SF:/home/liu/proj/toy-kv-engine/kv-engine/src/bin/compaction-simulator.rs
FN:372,_RNCNvCsfcDFrSmLaHu_20compaction_simulator4main0B3_
FN:569,_RNCNvCsfcDFrSmLaHu_20compaction_simulator4mains0_0B3_
FN:589,_RNCNvCsfcDFrSmLaHu_20compaction_simulator4mains1_0B3_
FN:608,_RNCNvCsfcDFrSmLaHu_20compaction_simulator4mains2_0B3_
FN:671,_RNCNvCsfcDFrSmLaHu_20compaction_simulator4mains3_0B3_
FN:473,_RNCNvCsfcDFrSmLaHu_20compaction_simulator4mains_0B3_
FN:200,_RNCNvMs_CsfcDFrSmLaHu_20compaction_simulatorNtB6_11MockStorage16dump_original_id0B6_
FN:240,_RNvCsfcDFrSmLaHu_20compaction_simulator21generate_random_split
FN:225,_RNvCsfcDFrSmLaHu_20compaction_simulator25generate_random_key_range
FN:266,_RNvCsfcDFrSmLaHu_20compaction_simulator4main
FN:157,_RNvMs_CsfcDFrSmLaHu_20compaction_simulatorNtB4_11MockStorage10check_keys
FN:208,_RNvMs_CsfcDFrSmLaHu_20compaction_simulatorNtB4_11MockStorage12dump_real_id
FN:180,_RNvMs_CsfcDFrSmLaHu_20compaction_simulatorNtB4_11MockStorage14dump_size_only
FN:133,_RNvMs_CsfcDFrSmLaHu_20compaction_simulatorNtB4_11MockStorage15flush_sst_to_l0
FN:127,_RNvMs_CsfcDFrSmLaHu_20compaction_simulatorNtB4_11MockStorage15generate_sst_id
FN:188,_RNvMs_CsfcDFrSmLaHu_20compaction_simulatorNtB4_11MockStorage16dump_original_id
FN:142,_RNvMs_CsfcDFrSmLaHu_20compaction_simulatorNtB4_11MockStorage21flush_sst_to_new_tier
FN:110,_RNvMs_CsfcDFrSmLaHu_20compaction_simulatorNtB4_11MockStorage3new
FN:150,_RNvMs_CsfcDFrSmLaHu_20compaction_simulatorNtB4_11MockStorage6remove
FN:104,_RNvXCsfcDFrSmLaHu_20compaction_simulatorNtB2_11MockStorageNtNtCslfAf2Mv2Tp5_4core7default7Default7default
FNDA:0,_RNCNvCsfcDFrSmLaHu_20compaction_simulator4main0B3_
FNDA:0,_RNCNvCsfcDFrSmLaHu_20compaction_simulator4mains0_0B3_
FNDA:0,_RNCNvCsfcDFrSmLaHu_20compaction_simulator4mains1_0B3_
FNDA:0,_RNCNvCsfcDFrSmLaHu_20compaction_simulator4mains2_0B3_
FNDA:0,_RNCNvCsfcDFrSmLaHu_20compaction_simulator4mains3_0B3_
FNDA:0,_RNCNvCsfcDFrSmLaHu_20compaction_simulator4mains_0B3_
FNDA:0,_RNCNvMs_CsfcDFrSmLaHu_20compaction_simulatorNtB6_11MockStorage16dump_original_id0B6_
FNDA:0,_RNvCsfcDFrSmLaHu_20compaction_simulator21generate_random_split
FNDA:0,_RNvCsfcDFrSmLaHu_20compaction_simulator25generate_random_key_range
FNDA:0,_RNvCsfcDFrSmLaHu_20compaction_simulator4main
FNDA:0,_RNvMs_CsfcDFrSmLaHu_20compaction_simulatorNtB4_11MockStorage10check_keys
FNDA:0,_RNvMs_CsfcDFrSmLaHu_20compaction_simulatorNtB4_11MockStorage12dump_real_id
FNDA:0,_RNvMs_CsfcDFrSmLaHu_20compaction_simulatorNtB4_11MockStorage14dump_size_only
FNDA:0,_RNvMs_CsfcDFrSmLaHu_20compaction_simulatorNtB4_11MockStorage15flush_sst_to_l0
FNDA:0,_RNvMs_CsfcDFrSmLaHu_20compaction_simulatorNtB4_11MockStorage15generate_sst_id
FNDA:0,_RNvMs_CsfcDFrSmLaHu_20compaction_simulatorNtB4_11MockStorage16dump_original_id
FNDA:0,_RNvMs_CsfcDFrSmLaHu_20compaction_simulatorNtB4_11MockStorage21flush_sst_to_new_tier
FNDA:0,_RNvMs_CsfcDFrSmLaHu_20compaction_simulatorNtB4_11MockStorage3new
FNDA:0,_RNvMs_CsfcDFrSmLaHu_20compaction_simulatorNtB4_11MockStorage6remove
FNDA:0,_RNvXCsfcDFrSmLaHu_20compaction_simulatorNtB2_11MockStorageNtNtCslfAf2Mv2Tp5_4core7default7Default7default
FNF:20
FNH:0
DA:104,0
DA:105,0
DA:106,0
DA:110,0
DA:111,0
DA:112,0
DA:113,0
DA:114,0
DA:115,0
DA:116,0
DA:117,0
DA:118,0
DA:119,0
DA:120,0
DA:121,0
DA:122,0
DA:123,0
DA:124,0
DA:125,0
DA:127,0
DA:128,0
DA:129,0
DA:130,0
DA:131,0
DA:133,0
DA:134,0
DA:135,0
DA:136,0
DA:137,0
DA:138,0
DA:139,0
DA:140,0
DA:142,0
DA:143,0
DA:144,0
DA:145,0
DA:146,0
DA:147,0
DA:148,0
DA:150,0
DA:151,0
DA:152,0
DA:153,0
DA:155,0
DA:157,0
DA:158,0
DA:159,0
DA:160,0
DA:161,0
DA:162,0
DA:163,0
DA:164,0
DA:167,0
DA:168,0
DA:169,0
DA:170,0
DA:171,0
DA:172,0
DA:174,0
DA:176,0
DA:178,0
DA:180,0
DA:181,0
DA:182,0
DA:183,0
DA:184,0
DA:185,0
DA:186,0
DA:188,0
DA:189,0
DA:190,0
DA:191,0
DA:192,0
DA:193,0
DA:194,0
DA:195,0
DA:196,0
DA:197,0
DA:199,0
DA:200,0
DA:203,0
DA:204,0
DA:205,0
DA:206,0
DA:208,0
DA:209,0
DA:210,0
DA:211,0
DA:212,0
DA:213,0
DA:214,0
DA:215,0
DA:216,0
DA:217,0
DA:218,0
DA:219,0
DA:220,0
DA:221,0
DA:222,0
DA:225,0
DA:227,0
DA:228,0
DA:229,0
DA:230,0
DA:231,0
DA:232,0
DA:233,0
DA:234,0
DA:235,0
DA:236,0
DA:237,0
DA:238,0
DA:240,0
DA:241,0
DA:242,0
DA:243,0
DA:244,0
DA:245,0
DA:246,0
DA:247,0
DA:248,0
DA:249,0
DA:250,0
DA:251,0
DA:252,0
DA:253,0
DA:254,0
DA:255,0
DA:256,0
DA:257,0
DA:258,0
DA:259,0
DA:260,0
DA:261,0
DA:262,0
DA:263,0
DA:264,0
DA:266,0
DA:267,0
DA:268,0
DA:270,0
DA:271,0
DA:272,0
DA:273,0
DA:274,0
DA:275,0
DA:278,0
DA:279,0
DA:280,0
DA:281,0
DA:282,0
DA:283,0
DA:284,0
DA:285,0
DA:286,0
DA:287,0
DA:288,0
DA:289,0
DA:290,0
DA:291,0
DA:292,0
DA:293,0
DA:294,0
DA:295,0
DA:296,0
DA:297,0
DA:298,0
DA:299,0
DA:300,0
DA:301,0
DA:302,0
DA:303,0
DA:304,0
DA:305,0
DA:307,0
DA:308,0
DA:309,0
DA:310,0
DA:311,0
DA:312,0
DA:313,0
DA:314,0
DA:315,0
DA:316,0
DA:317,0
DA:318,0
DA:320,0
DA:323,0
DA:327,0
DA:328,0
DA:329,0
DA:330,0
DA:331,0
DA:332,0
DA:333,0
DA:334,0
DA:335,0
DA:336,0
DA:337,0
DA:338,0
DA:339,0
DA:340,0
DA:341,0
DA:342,0
DA:343,0
DA:344,0
DA:346,0
DA:347,0
DA:348,0
DA:349,0
DA:350,0
DA:351,0
DA:352,0
DA:353,0
DA:357,0
DA:359,0
DA:363,0
DA:365,0
DA:367,0
DA:368,0
DA:369,0
DA:370,0
DA:371,0
DA:372,0
DA:373,0
DA:375,0
DA:379,0
DA:380,0
DA:381,0
DA:382,0
DA:383,0
DA:384,0
DA:385,0
DA:386,0
DA:388,0
DA:389,0
DA:390,0
DA:391,0
DA:392,0
DA:393,0
DA:394,0
DA:395,0
DA:396,0
DA:397,0
DA:398,0
DA:399,0
DA:400,0
DA:401,0
DA:402,0
DA:403,0
DA:404,0
DA:405,0
DA:406,0
DA:407,0
DA:408,0
DA:409,0
DA:410,0
DA:411,0
DA:412,0
DA:413,0
DA:414,0
DA:415,0
DA:416,0
DA:418,0
DA:419,0
DA:420,0
DA:421,0
DA:422,0
DA:423,0
DA:424,0
DA:425,0
DA:426,0
DA:428,0
DA:429,0
DA:430,0
DA:431,0
DA:432,0
DA:433,0
DA:434,0
DA:435,0
DA:436,0
DA:437,0
DA:438,0
DA:439,0
DA:440,0
DA:441,0
DA:442,0
DA:443,0
DA:444,0
DA:445,0
DA:447,0
DA:448,0
DA:449,0
DA:450,0
DA:451,0
DA:452,0
DA:453,0
DA:454,0
DA:458,0
DA:460,0
DA:464,0
DA:466,0
DA:468,0
DA:469,0
DA:470,0
DA:471,0
DA:472,0
DA:473,0
DA:474,0
DA:476,0
DA:480,0
DA:481,0
DA:482,0
DA:483,0
DA:484,0
DA:485,0
DA:486,0
DA:487,0
DA:489,0
DA:490,0
DA:491,0
DA:492,0
DA:493,0
DA:494,0
DA:496,0
DA:497,0
DA:498,0
DA:499,0
DA:500,0
DA:501,0
DA:502,0
DA:503,0
DA:504,0
DA:505,0
DA:506,0
DA:507,0
DA:508,0
DA:509,0
DA:510,0
DA:511,0
DA:514,0
DA:515,0
DA:516,0
DA:517,0
DA:518,0
DA:519,0
DA:520,0
DA:521,0
DA:522,0
DA:523,0
DA:524,0
DA:525,0
DA:526,0
DA:527,0
DA:529,0
DA:530,0
DA:531,0
DA:532,0
DA:533,0
DA:534,0
DA:535,0
DA:536,0
DA:537,0
DA:538,0
DA:539,0
DA:540,0
DA:541,0
DA:542,0
DA:543,0
DA:544,0
DA:545,0
DA:546,0
DA:547,0
DA:548,0
DA:549,0
DA:550,0
DA:551,0
DA:552,0
DA:553,0
DA:554,0
DA:555,0
DA:556,0
DA:557,0
DA:558,0
DA:559,0
DA:560,0
DA:561,0
DA:562,0
DA:563,0
DA:564,0
DA:566,0
DA:567,0
DA:568,0
DA:569,0
DA:572,0
DA:573,0
DA:574,0
DA:575,0
DA:576,0
DA:577,0
DA:578,0
DA:579,0
DA:581,0
DA:582,0
DA:584,0
DA:587,0
DA:588,0
DA:589,0
DA:592,0
DA:593,0
DA:594,0
DA:595,0
DA:596,0
DA:597,0
DA:598,0
DA:599,0
DA:601,0
DA:602,0
DA:604,0
DA:606,0
DA:607,0
DA:608,0
DA:611,0
DA:612,0
DA:613,0
DA:614,0
DA:615,0
DA:616,0
DA:617,0
DA:618,0
DA:620,0
DA:621,0
DA:623,0
DA:624,0
DA:625,0
DA:626,0
DA:627,0
DA:628,0
DA:629,0
DA:630,0
DA:631,0
DA:632,0
DA:633,0
DA:634,0
DA:635,0
DA:636,0
DA:637,0
DA:638,0
DA:639,0
DA:640,0
DA:641,0
DA:642,0
DA:643,0
DA:645,0
DA:646,0
DA:647,0
DA:648,0
DA:649,0
DA:650,0
DA:651,0
DA:652,0
DA:656,0
DA:658,0
DA:662,0
DA:664,0
DA:666,0
DA:667,0
DA:668,0
DA:669,0
DA:670,0
DA:671,0
DA:672,0
DA:674,0
DA:678,0
BRF:0
BRH:0
LF:481
LH:0
end_of_record
SF:/home/liu/proj/toy-kv-engine/kv-engine/src/bin/kv-engine-cli.rs
FN:190,_RNCNCNCNvMs_CsWGW8j9hfJi_13kv_engine_cliNtBa_7Command5parse000Ba_
FN:232,_RNCNCNCNvMs_CsWGW8j9hfJi_13kv_engine_cliNtBa_7Command5parses3_000Ba_
FN:188,_RNCNCNvMs_CsWGW8j9hfJi_13kv_engine_cliNtB8_7Command5parse00B8_
FN:204,_RNCNCNvMs_CsWGW8j9hfJi_13kv_engine_cliNtB8_7Command5parses0_00B8_
FN:213,_RNCNCNvMs_CsWGW8j9hfJi_13kv_engine_cliNtB8_7Command5parses1_00B8_
FN:220,_RNCNCNvMs_CsWGW8j9hfJi_13kv_engine_cliNtB8_7Command5parses2_00B8_
FN:230,_RNCNCNvMs_CsWGW8j9hfJi_13kv_engine_cliNtB8_7Command5parses3_00B8_
FN:195,_RNCNCNvMs_CsWGW8j9hfJi_13kv_engine_cliNtB8_7Command5parses_00B8_
FN:195,_RNCNCNvMs_CsWGW8j9hfJi_13kv_engine_cliNtB8_7Command5parses_0s_0B8_
FN:187,_RNCNvMs_CsWGW8j9hfJi_13kv_engine_cliNtB6_7Command5parse0B6_
FN:200,_RNCNvMs_CsWGW8j9hfJi_13kv_engine_cliNtB6_7Command5parses0_0B6_
FN:210,_RNCNvMs_CsWGW8j9hfJi_13kv_engine_cliNtB6_7Command5parses1_0B6_
FN:217,_RNCNvMs_CsWGW8j9hfJi_13kv_engine_cliNtB6_7Command5parses2_0B6_
FN:224,_RNCNvMs_CsWGW8j9hfJi_13kv_engine_cliNtB6_7Command5parses3_0B6_
FN:238,_RNCNvMs_CsWGW8j9hfJi_13kv_engine_cliNtB6_7Command5parses4_0B6_
FN:255,_RNCNvMs_CsWGW8j9hfJi_13kv_engine_cliNtB6_7Command5parses6_0B6_
FN:194,_RNCNvMs_CsWGW8j9hfJi_13kv_engine_cliNtB6_7Command5parses_0B6_
FN:334,_RNvCsWGW8j9hfJi_13kv_engine_cli4main
FN:48,_RNvMCsWGW8j9hfJi_13kv_engine_cliNtB2_11ReplHandler6handle
FN:270,_RNvMs0_CsWGW8j9hfJi_13kv_engine_cliNtB5_4Repl3run
FN:285,_RNvMs0_CsWGW8j9hfJi_13kv_engine_cliNtB5_4Repl9bootstrap
FN:313,_RNvMs1_CsWGW8j9hfJi_13kv_engine_cliNtB5_11ReplBuilder11description
FN:300,_RNvMs1_CsWGW8j9hfJi_13kv_engine_cliNtB5_11ReplBuilder3new
FN:323,_RNvMs1_CsWGW8j9hfJi_13kv_engine_cliNtB5_11ReplBuilder5build
FN:318,_RNvMs1_CsWGW8j9hfJi_13kv_engine_cliNtB5_11ReplBuilder6prompt
FN:308,_RNvMs1_CsWGW8j9hfJi_13kv_engine_cliNtB5_11ReplBuilder8app_name
FN:182,_RNvMs_CsWGW8j9hfJi_13kv_engine_cliNtB4_7Command5parse
FNDA:0,_RNCNCNCNvMs_CsWGW8j9hfJi_13kv_engine_cliNtBa_7Command5parse000Ba_
FNDA:0,_RNCNCNCNvMs_CsWGW8j9hfJi_13kv_engine_cliNtBa_7Command5parses3_000Ba_
FNDA:0,_RNCNCNvMs_CsWGW8j9hfJi_13kv_engine_cliNtB8_7Command5parse00B8_
FNDA:0,_RNCNCNvMs_CsWGW8j9hfJi_13kv_engine_cliNtB8_7Command5parses0_00B8_
FNDA:0,_RNCNCNvMs_CsWGW8j9hfJi_13kv_engine_cliNtB8_7Command5parses1_00B8_
FNDA:0,_RNCNCNvMs_CsWGW8j9hfJi_13kv_engine_cliNtB8_7Command5parses2_00B8_
FNDA:0,_RNCNCNvMs_CsWGW8j9hfJi_13kv_engine_cliNtB8_7Command5parses3_00B8_
FNDA:0,_RNCNCNvMs_CsWGW8j9hfJi_13kv_engine_cliNtB8_7Command5parses_00B8_
FNDA:0,_RNCNCNvMs_CsWGW8j9hfJi_13kv_engine_cliNtB8_7Command5parses_0s_0B8_
FNDA:0,_RNCNvMs_CsWGW8j9hfJi_13kv_engine_cliNtB6_7Command5parse0B6_
FNDA:0,_RNCNvMs_CsWGW8j9hfJi_13kv_engine_cliNtB6_7Command5parses0_0B6_
FNDA:0,_RNCNvMs_CsWGW8j9hfJi_13kv_engine_cliNtB6_7Command5parses1_0B6_
FNDA:0,_RNCNvMs_CsWGW8j9hfJi_13kv_engine_cliNtB6_7Command5parses2_0B6_
FNDA:0,_RNCNvMs_CsWGW8j9hfJi_13kv_engine_cliNtB6_7Command5parses3_0B6_
FNDA:0,_RNCNvMs_CsWGW8j9hfJi_13kv_engine_cliNtB6_7Command5parses4_0B6_
FNDA:0,_RNCNvMs_CsWGW8j9hfJi_13kv_engine_cliNtB6_7Command5parses6_0B6_
FNDA:0,_RNCNvMs_CsWGW8j9hfJi_13kv_engine_cliNtB6_7Command5parses_0B6_
FNDA:0,_RNvCsWGW8j9hfJi_13kv_engine_cli4main
FNDA:0,_RNvMCsWGW8j9hfJi_13kv_engine_cliNtB2_11ReplHandler6handle
FNDA:0,_RNvMs0_CsWGW8j9hfJi_13kv_engine_cliNtB5_4Repl3run
FNDA:0,_RNvMs0_CsWGW8j9hfJi_13kv_engine_cliNtB5_4Repl9bootstrap
FNDA:0,_RNvMs1_CsWGW8j9hfJi_13kv_engine_cliNtB5_11ReplBuilder11description
FNDA:0,_RNvMs1_CsWGW8j9hfJi_13kv_engine_cliNtB5_11ReplBuilder3new
FNDA:0,_RNvMs1_CsWGW8j9hfJi_13kv_engine_cliNtB5_11ReplBuilder5build
FNDA:0,_RNvMs1_CsWGW8j9hfJi_13kv_engine_cliNtB5_11ReplBuilder6prompt
FNDA:0,_RNvMs1_CsWGW8j9hfJi_13kv_engine_cliNtB5_11ReplBuilder8app_name
FNDA:0,_RNvMs_CsWGW8j9hfJi_13kv_engine_cliNtB4_7Command5parse
FNF:27
FNH:0
DA:48,0
DA:49,0
DA:50,0
DA:51,0
DA:52,0
DA:53,0
DA:54,0
DA:55,0
DA:58,0
DA:60,0
DA:64,0
DA:65,0
DA:66,0
DA:68,0
DA:69,0
DA:70,0
DA:71,0
DA:72,0
DA:73,0
DA:75,0
DA:77,0
DA:78,0
DA:79,0
DA:80,0
DA:81,0
DA:82,0
DA:84,0
DA:85,0
DA:87,0
DA:88,0
DA:90,0
DA:91,0
DA:93,0
DA:94,0
DA:95,0
DA:96,0
DA:97,0
DA:98,0
DA:99,0
DA:100,0
DA:102,0
DA:103,0
DA:105,0
DA:106,0
DA:108,0
DA:109,0
DA:111,0
DA:112,0
DA:113,0
DA:115,0
DA:116,0
DA:117,0
DA:118,0
DA:120,0
DA:121,0
DA:124,0
DA:125,0
DA:128,0
DA:129,0
DA:132,0
DA:133,0
DA:134,0
DA:135,0
DA:136,0
DA:137,0
DA:138,0
DA:139,0
DA:140,0
DA:141,0
DA:142,0
DA:143,0
DA:144,0
DA:145,0
DA:146,0
DA:150,0
DA:152,0
DA:153,0
DA:182,0
DA:187,0
DA:188,0
DA:189,0
DA:190,0
DA:191,0
DA:192,0
DA:194,0
DA:195,0
DA:196,0
DA:197,0
DA:198,0
DA:200,0
DA:201,0
DA:202,0
DA:204,0
DA:205,0
DA:206,0
DA:207,0
DA:208,0
DA:210,0
DA:211,0
DA:212,0
DA:213,0
DA:214,0
DA:215,0
DA:217,0
DA:218,0
DA:219,0
DA:220,0
DA:221,0
DA:222,0
DA:224,0
DA:225,0
DA:226,0
DA:227,0
DA:228,0
DA:229,0
DA:230,0
DA:231,0
DA:232,0
DA:233,0
DA:234,0
DA:235,0
DA:236,0
DA:238,0
DA:239,0
DA:240,0
DA:241,0
DA:242,0
DA:243,0
DA:244,0
DA:245,0
DA:246,0
DA:247,0
DA:248,0
DA:249,0
DA:250,0
DA:251,0
DA:253,0
DA:254,0
DA:255,0
DA:256,0
DA:270,0
DA:271,0
DA:274,0
DA:275,0
DA:277,0
DA:278,0
DA:279,0
DA:280,0
DA:281,0
DA:283,0
DA:285,0
DA:286,0
DA:287,0
DA:288,0
DA:289,0
DA:290,0
DA:300,0
DA:301,0
DA:302,0
DA:303,0
DA:304,0
DA:305,0
DA:306,0
DA:308,0
DA:309,0
DA:310,0
DA:311,0
DA:313,0
DA:314,0
DA:315,0
DA:316,0
DA:318,0
DA:319,0
DA:320,0
DA:321,0
DA:323,0
DA:325,0
DA:326,0
DA:327,0
DA:328,0
DA:329,0
DA:331,0
DA:334,0
DA:335,0
DA:336,0
DA:337,0
DA:340,0
DA:342,0
DA:343,0
DA:345,0
DA:346,0
DA:347,0
DA:348,0
DA:349,0
DA:351,0
DA:352,0
DA:353,0
DA:354,0
DA:355,0
DA:356,0
DA:357,0
DA:359,0
DA:360,0
DA:361,0
DA:362,0
DA:363,0
DA:364,0
DA:367,0
DA:368,0
DA:369,0
DA:370,0
DA:371,0
DA:374,0
DA:376,0
DA:377,0
DA:378,0
DA:379,0
DA:380,0
DA:382,0
DA:383,0
DA:384,0
BRF:0
BRH:0
LF:236
LH:0
end_of_record
SF:/home/liu/proj/toy-kv-engine/kv-engine/src/bin/wrapper.rs
FN:6,_RNvNtCsfcDFrSmLaHu_20compaction_simulator7wrapper4main
FN:6,_RNvNtCsWGW8j9hfJi_13kv_engine_cli7wrapper4main
FN:6,_RNvCse3kdqWC6Qqu_7wrapper4main
FN:6,_RNvNtCs84Y9kjD4mut_10write_perf7wrapper4main
FNDA:0,_RNvNtCsfcDFrSmLaHu_20compaction_simulator7wrapper4main
FNDA:0,_RNvNtCsWGW8j9hfJi_13kv_engine_cli7wrapper4main
FNDA:0,_RNvCse3kdqWC6Qqu_7wrapper4main
FNDA:0,_RNvNtCs84Y9kjD4mut_10write_perf7wrapper4main
FNF:1
FNH:0
DA:6,0
BRF:0
BRH:0
LF:1
LH:0
end_of_record
SF:/home/liu/proj/toy-kv-engine/kv-engine/src/bin/write-perf.rs
FN:130,_RNCNvCs84Y9kjD4mut_10write_perf19bench_concurrent_rw0B3_
FN:164,_RNCNvCs84Y9kjD4mut_10write_perf19bench_concurrent_rws0_0B3_
FN:147,_RNCNvCs84Y9kjD4mut_10write_perf19bench_concurrent_rws_0B3_
FN:245,_RNCNvCs84Y9kjD4mut_10write_perf20bench_wal_concurrent0B3_
FN:521,_RNCNvCs84Y9kjD4mut_10write_perf22bench_readwhilewriting0B3_
FN:539,_RNCNvCs84Y9kjD4mut_10write_perf22bench_readwhilewritings_0B3_
FN:332,_RNCNvCs84Y9kjD4mut_10write_perf24bench_vlog_concurrent_gc0B3_
FN:367,_RNCNvCs84Y9kjD4mut_10write_perf24bench_vlog_concurrent_gcs0_0B3_
FN:350,_RNCNvCs84Y9kjD4mut_10write_perf24bench_vlog_concurrent_gcs_0B3_
FN:600,_RNCNvCs84Y9kjD4mut_10write_perf27bench_readrandomwriterandom0B3_
FN:878,_RNCNvCs84Y9kjD4mut_10write_perf28bench_seekrandomwhilewriting0B3_
FN:904,_RNCNvCs84Y9kjD4mut_10write_perf28bench_seekrandomwhilewritings_0B3_
FN:53,_RNvCs84Y9kjD4mut_10write_perf10bench_scan
FN:21,_RNvCs84Y9kjD4mut_10write_perf12make_options
FN:980,_RNvCs84Y9kjD4mut_10write_perf13bench_compact
FN:407,_RNvCs84Y9kjD4mut_10write_perf13bench_fillseq
FN:728,_RNvCs84Y9kjD4mut_10write_perf13bench_readseq
FN:270,_RNvCs84Y9kjD4mut_10write_perf13bench_vlog_gc
FN:691,_RNvCs84Y9kjD4mut_10write_perf15bench_overwrite
FN:429,_RNvCs84Y9kjD4mut_10write_perf16bench_fillrandom
FN:458,_RNvCs84Y9kjD4mut_10write_perf16bench_readrandom
FN:641,_RNvCs84Y9kjD4mut_10write_perf16bench_seekrandom
FN:800,_RNvCs84Y9kjD4mut_10write_perf17bench_readmissing
FN:763,_RNvCs84Y9kjD4mut_10write_perf17bench_readreverse
FN:947,_RNvCs84Y9kjD4mut_10write_perf18bench_deleterandom
FN:103,_RNvCs84Y9kjD4mut_10write_perf19bench_concurrent_rw
FN:230,_RNvCs84Y9kjD4mut_10write_perf20bench_wal_concurrent
FN:208,_RNvCs84Y9kjD4mut_10write_perf20bench_wal_throughput
FN:495,_RNvCs84Y9kjD4mut_10write_perf22bench_readwhilewriting
FN:312,_RNvCs84Y9kjD4mut_10write_perf24bench_vlog_concurrent_gc
FN:574,_RNvCs84Y9kjD4mut_10write_perf27bench_readrandomwriterandom
FN:851,_RNvCs84Y9kjD4mut_10write_perf28bench_seekrandomwhilewriting
FN:1009,_RNvCs84Y9kjD4mut_10write_perf4main
FNDA:0,_RNCNvCs84Y9kjD4mut_10write_perf19bench_concurrent_rw0B3_
FNDA:0,_RNCNvCs84Y9kjD4mut_10write_perf19bench_concurrent_rws0_0B3_
FNDA:0,_RNCNvCs84Y9kjD4mut_10write_perf19bench_concurrent_rws_0B3_
FNDA:0,_RNCNvCs84Y9kjD4mut_10write_perf20bench_wal_concurrent0B3_
FNDA:0,_RNCNvCs84Y9kjD4mut_10write_perf22bench_readwhilewriting0B3_
FNDA:0,_RNCNvCs84Y9kjD4mut_10write_perf22bench_readwhilewritings_0B3_
FNDA:0,_RNCNvCs84Y9kjD4mut_10write_perf24bench_vlog_concurrent_gc0B3_
FNDA:0,_RNCNvCs84Y9kjD4mut_10write_perf24bench_vlog_concurrent_gcs0_0B3_
FNDA:0,_RNCNvCs84Y9kjD4mut_10write_perf24bench_vlog_concurrent_gcs_0B3_
FNDA:0,_RNCNvCs84Y9kjD4mut_10write_perf27bench_readrandomwriterandom0B3_
FNDA:0,_RNCNvCs84Y9kjD4mut_10write_perf28bench_seekrandomwhilewriting0B3_
FNDA:0,_RNCNvCs84Y9kjD4mut_10write_perf28bench_seekrandomwhilewritings_0B3_
FNDA:0,_RNvCs84Y9kjD4mut_10write_perf10bench_scan
FNDA:0,_RNvCs84Y9kjD4mut_10write_perf12make_options
FNDA:0,_RNvCs84Y9kjD4mut_10write_perf13bench_compact
FNDA:0,_RNvCs84Y9kjD4mut_10write_perf13bench_fillseq
FNDA:0,_RNvCs84Y9kjD4mut_10write_perf13bench_readseq
FNDA:0,_RNvCs84Y9kjD4mut_10write_perf13bench_vlog_gc
FNDA:0,_RNvCs84Y9kjD4mut_10write_perf15bench_overwrite
FNDA:0,_RNvCs84Y9kjD4mut_10write_perf16bench_fillrandom
FNDA:0,_RNvCs84Y9kjD4mut_10write_perf16bench_readrandom
FNDA:0,_RNvCs84Y9kjD4mut_10write_perf16bench_seekrandom
FNDA:0,_RNvCs84Y9kjD4mut_10write_perf17bench_readmissing
FNDA:0,_RNvCs84Y9kjD4mut_10write_perf17bench_readreverse
FNDA:0,_RNvCs84Y9kjD4mut_10write_perf18bench_deleterandom
FNDA:0,_RNvCs84Y9kjD4mut_10write_perf19bench_concurrent_rw
FNDA:0,_RNvCs84Y9kjD4mut_10write_perf20bench_wal_concurrent
FNDA:0,_RNvCs84Y9kjD4mut_10write_perf20bench_wal_throughput
FNDA:0,_RNvCs84Y9kjD4mut_10write_perf22bench_readwhilewriting
FNDA:0,_RNvCs84Y9kjD4mut_10write_perf24bench_vlog_concurrent_gc
FNDA:0,_RNvCs84Y9kjD4mut_10write_perf27bench_readrandomwriterandom
FNDA:0,_RNvCs84Y9kjD4mut_10write_perf28bench_seekrandomwhilewriting
FNDA:0,_RNvCs84Y9kjD4mut_10write_perf4main
FNF:33
FNH:0
DA:21,0
DA:24,0
DA:26,0
DA:27,0
DA:28,0
DA:29,0
DA:30,0
DA:31,0
DA:32,0
DA:34,0
DA:35,0
DA:36,0
DA:37,0
DA:38,0
DA:39,0
DA:40,0
DA:41,0
DA:42,0
DA:43,0
DA:45,0
DA:47,0
DA:51,0
DA:53,0
DA:54,0
DA:55,0
DA:56,0
DA:57,0
DA:58,0
DA:60,0
DA:63,0
DA:64,0
DA:65,0
DA:66,0
DA:67,0
DA:68,0
DA:70,0
DA:71,0
DA:75,0
DA:79,0
DA:80,0
DA:81,0
DA:82,0
DA:83,0
DA:84,0
DA:85,0
DA:86,0
DA:87,0
DA:88,0
DA:90,0
DA:91,0
DA:95,0
DA:98,0
DA:99,0
DA:100,0
DA:101,0
DA:103,0
DA:104,0
DA:105,0
DA:106,0
DA:107,0
DA:108,0
DA:109,0
DA:110,0
DA:111,0
DA:112,0
DA:113,0
DA:114,0
DA:115,0
DA:117,0
DA:119,0
DA:120,0
DA:121,0
DA:122,0
DA:123,0
DA:125,0
DA:126,0
DA:127,0
DA:128,0
DA:129,0
DA:130,0
DA:131,0
DA:132,0
DA:133,0
DA:134,0
DA:135,0
DA:136,0
DA:137,0
DA:139,0
DA:140,0
DA:143,0
DA:144,0
DA:145,0
DA:146,0
DA:147,0
DA:148,0
DA:149,0
DA:150,0
DA:151,0
DA:152,0
DA:153,0
DA:154,0
DA:155,0
DA:156,0
DA:161,0
DA:162,0
DA:163,0
DA:164,0
DA:165,0
DA:166,0
DA:167,0
DA:168,0
DA:170,0
DA:171,0
DA:172,0
DA:173,0
DA:174,0
DA:176,0
DA:178,0
DA:179,0
DA:182,0
DA:183,0
DA:184,0
DA:185,0
DA:186,0
DA:188,0
DA:189,0
DA:190,0
DA:191,0
DA:197,0
DA:199,0
DA:203,0
DA:204,0
DA:205,0
DA:206,0
DA:208,0
DA:209,0
DA:210,0
DA:211,0
DA:212,0
DA:213,0
DA:214,0
DA:216,0
DA:217,0
DA:222,0
DA:224,0
DA:225,0
DA:226,0
DA:227,0
DA:228,0
DA:230,0
DA:231,0
DA:232,0
DA:233,0
DA:234,0
DA:235,0
DA:236,0
DA:237,0
DA:238,0
DA:239,0
DA:240,0
DA:241,0
DA:242,0
DA:243,0
DA:244,0
DA:245,0
DA:246,0
DA:247,0
DA:248,0
DA:249,0
DA:250,0
DA:252,0
DA:253,0
DA:254,0
DA:255,0
DA:256,0
DA:262,0
DA:264,0
DA:265,0
DA:266,0
DA:267,0
DA:268,0
DA:270,0
DA:271,0
DA:272,0
DA:273,0
DA:275,0
DA:279,0
DA:280,0
DA:282,0
DA:283,0
DA:284,0
DA:285,0
DA:287,0
DA:288,0
DA:289,0
DA:290,0
DA:291,0
DA:292,0
DA:294,0
DA:295,0
DA:296,0
DA:297,0
DA:298,0
DA:299,0
DA:300,0
DA:301,0
DA:302,0
DA:303,0
DA:304,0
DA:307,0
DA:308,0
DA:309,0
DA:310,0
DA:312,0
DA:313,0
DA:314,0
DA:315,0
DA:316,0
DA:317,0
DA:319,0
DA:321,0
DA:322,0
DA:323,0
DA:324,0
DA:325,0
DA:329,0
DA:330,0
DA:331,0
DA:332,0
DA:333,0
DA:334,0
DA:335,0
DA:336,0
DA:337,0
DA:338,0
DA:339,0
DA:340,0
DA:342,0
DA:343,0
DA:347,0
DA:348,0
DA:349,0
DA:350,0
DA:351,0
DA:352,0
DA:353,0
DA:354,0
DA:355,0
DA:356,0
DA:357,0
DA:359,0
DA:360,0
DA:364,0
DA:365,0
DA:366,0
DA:367,0
DA:368,0
DA:369,0
DA:370,0
DA:371,0
DA:372,0
DA:373,0
DA:374,0
DA:375,0
DA:378,0
DA:379,0
DA:380,0
DA:381,0
DA:382,0
DA:384,0
DA:385,0
DA:386,0
DA:387,0
DA:391,0
DA:393,0
DA:396,0
DA:397,0
DA:398,0
DA:399,0
DA:400,0
DA:401,0
DA:402,0
DA:407,0
DA:408,0
DA:409,0
DA:410,0
DA:411,0
DA:412,0
DA:413,0
DA:415,0
DA:416,0
DA:421,0
DA:423,0
DA:424,0
DA:425,0
DA:426,0
DA:427,0
DA:429,0
DA:430,0
DA:431,0
DA:432,0
DA:433,0
DA:434,0
DA:435,0
DA:436,0
DA:437,0
DA:439,0
DA:440,0
DA:441,0
DA:442,0
DA:444,0
DA:445,0
DA:450,0
DA:452,0
DA:453,0
DA:454,0
DA:455,0
DA:456,0
DA:458,0
DA:459,0
DA:460,0
DA:461,0
DA:462,0
DA:463,0
DA:464,0
DA:465,0
DA:466,0
DA:467,0
DA:468,0
DA:470,0
DA:472,0
DA:473,0
DA:474,0
DA:475,0
DA:476,0
DA:477,0
DA:478,0
DA:479,0
DA:481,0
DA:482,0
DA:487,0
DA:490,0
DA:491,0
DA:492,0
DA:493,0
DA:495,0
DA:496,0
DA:497,0
DA:498,0
DA:499,0
DA:500,0
DA:501,0
DA:502,0
DA:503,0
DA:504,0
DA:505,0
DA:506,0
DA:508,0
DA:510,0
DA:511,0
DA:512,0
DA:513,0
DA:517,0
DA:518,0
DA:519,0
DA:520,0
DA:521,0
DA:522,0
DA:523,0
DA:524,0
DA:525,0
DA:526,0
DA:527,0
DA:528,0
DA:530,0
DA:531,0
DA:535,0
DA:536,0
DA:537,0
DA:538,0
DA:539,0
DA:540,0
DA:541,0
DA:542,0
DA:543,0
DA:544,0
DA:545,0
DA:546,0
DA:548,0
DA:549,0
DA:552,0
DA:553,0
DA:554,0
DA:555,0
DA:556,0
DA:558,0
DA:559,0
DA:560,0
DA:565,0
DA:567,0
DA:569,0
DA:570,0
DA:571,0
DA:572,0
DA:574,0
DA:575,0
DA:576,0
DA:577,0
DA:578,0
DA:579,0
DA:580,0
DA:581,0
DA:582,0
DA:583,0
DA:584,0
DA:585,0
DA:587,0
DA:589,0
DA:590,0
DA:591,0
DA:592,0
DA:594,0
DA:595,0
DA:596,0
DA:597,0
DA:598,0
DA:599,0
DA:600,0
DA:601,0
DA:602,0
DA:603,0
DA:604,0
DA:605,0
DA:606,0
DA:607,0
DA:608,0
DA:609,0
DA:610,0
DA:611,0
DA:612,0
DA:614,0
DA:615,0
DA:616,0
DA:619,0
DA:620,0
DA:621,0
DA:622,0
DA:623,0
DA:625,0
DA:626,0
DA:627,0
DA:632,0
DA:634,0
DA:636,0
DA:637,0
DA:638,0
DA:639,0
DA:641,0
DA:642,0
DA:643,0
DA:644,0
DA:645,0
DA:646,0
DA:647,0
DA:648,0
DA:649,0
DA:650,0
DA:651,0
DA:653,0
DA:655,0
DA:656,0
DA:657,0
DA:658,0
DA:659,0
DA:660,0
DA:661,0
DA:662,0
DA:663,0
DA:664,0
DA:665,0
DA:666,0
DA:667,0
DA:668,0
DA:669,0
DA:670,0
DA:671,0
DA:673,0
DA:675,0
DA:676,0
DA:681,0
DA:684,0
DA:685,0
DA:686,0
DA:687,0
DA:691,0
DA:692,0
DA:693,0
DA:694,0
DA:696,0
DA:697,0
DA:699,0
DA:702,0
DA:703,0
DA:704,0
DA:705,0
DA:706,0
DA:707,0
DA:708,0
DA:709,0
DA:710,0
DA:711,0
DA:713,0
DA:714,0
DA:720,0
DA:722,0
DA:723,0
DA:724,0
DA:725,0
DA:726,0
DA:728,0
DA:729,0
DA:730,0
DA:731,0
DA:732,0
DA:733,0
DA:735,0
DA:737,0
DA:738,0
DA:739,0
DA:740,0
DA:741,0
DA:742,0
DA:744,0
DA:745,0
DA:750,0
DA:752,0
DA:753,0
DA:758,0
DA:759,0
DA:760,0
DA:761,0
DA:763,0
DA:764,0
DA:765,0
DA:766,0
DA:767,0
DA:768,0
DA:770,0
DA:774,0
DA:775,0
DA:776,0
DA:777,0
DA:778,0
DA:779,0
DA:781,0
DA:782,0
DA:787,0
DA:789,0
DA:790,0
DA:795,0
DA:796,0
DA:797,0
DA:798,0
DA:800,0
DA:801,0
DA:802,0
DA:803,0
DA:804,0
DA:805,0
DA:806,0
DA:807,0
DA:808,0
DA:813,0
DA:814,0
DA:816,0
DA:819,0
DA:820,0
DA:821,0
DA:822,0
DA:823,0
DA:824,0
DA:825,0
DA:826,0
DA:827,0
DA:828,0
DA:829,0
DA:830,0
DA:832,0
DA:833,0
DA:838,0
DA:841,0
DA:842,0
DA:846,0
DA:847,0
DA:848,0
DA:849,0
DA:851,0
DA:852,0
DA:853,0
DA:854,0
DA:855,0
DA:856,0
DA:857,0
DA:858,0
DA:859,0
DA:860,0
DA:861,0
DA:862,0
DA:864,0
DA:866,0
DA:867,0
DA:868,0
DA:869,0
DA:873,0
DA:874,0
DA:875,0
DA:876,0
DA:877,0
DA:878,0
DA:879,0
DA:880,0
DA:881,0
DA:882,0
DA:883,0
DA:884,0
DA:885,0
DA:886,0
DA:887,0
DA:888,0
DA:889,0
DA:890,0
DA:891,0
DA:895,0
DA:896,0
DA:900,0
DA:901,0
DA:902,0
DA:903,0
DA:904,0
DA:905,0
DA:906,0
DA:907,0
DA:908,0
DA:909,0
DA:910,0
DA:911,0
DA:912,0
DA:913,0
DA:914,0
DA:915,0
DA:916,0
DA:919,0
DA:921,0
DA:923,0
DA:924,0
DA:925,0
DA:926,0
DA:927,0
DA:928,0
DA:929,0
DA:930,0
DA:931,0
DA:933,0
DA:938,0
DA:942,0
DA:943,0
DA:944,0
DA:945,0
DA:947,0
DA:948,0
DA:949,0
DA:950,0
DA:951,0
DA:952,0
DA:954,0
DA:956,0
DA:957,0
DA:958,0
DA:959,0
DA:960,0
DA:961,0
DA:962,0
DA:963,0
DA:964,0
DA:966,0
DA:967,0
DA:972,0
DA:974,0
DA:975,0
DA:976,0
DA:977,0
DA:978,0
DA:980,0
DA:981,0
DA:984,0
DA:985,0
DA:986,0
DA:987,0
DA:988,0
DA:989,0
DA:990,0
DA:991,0
DA:992,0
DA:993,0
DA:995,0
DA:997,0
DA:998,0
DA:999,0
DA:1000,0
DA:1004,0
DA:1005,0
DA:1006,0
DA:1007,0
DA:1009,0
DA:1011,0
DA:1012,0
DA:1014,0
DA:1015,0
DA:1017,0
DA:1018,0
DA:1020,0
DA:1021,0
DA:1022,0
DA:1023,0
DA:1025,0
DA:1026,0
DA:1028,0
DA:1029,0
DA:1032,0
DA:1033,0
DA:1035,0
DA:1036,0
DA:1038,0
DA:1039,0
DA:1041,0
DA:1042,0
DA:1044,0
DA:1045,0
DA:1047,0
DA:1048,0
DA:1051,0
DA:1052,0
DA:1054,0
DA:1055,0
DA:1057,0
DA:1058,0
DA:1060,0
DA:1061,0
DA:1063,0
DA:1064,0
DA:1066,0
DA:1067,0
DA:1069,0
DA:1070,0
DA:1072,0
DA:1073,0
BRF:0
BRH:0
LF:768
LH:0
end_of_record
SF:/home/liu/proj/toy-kv-engine/kv-engine/src/block.rs
FN:129,_RNvMNtCs3ksH6Jg0luU_9kv_engine5blockNtB2_5Block10data_sliceB4_
FN:49,_RNvMNtCs3ksH6Jg0luU_9kv_engine5blockNtB2_5Block10encode_ref
FN:97,_RNvMNtCs3ksH6Jg0luU_9kv_engine5blockNtB2_5Block15decode_from_vec
FN:67,_RNvMNtCs3ksH6Jg0luU_9kv_engine5blockNtB2_5Block6decode
FN:27,_RNvMNtCs3ksH6Jg0luU_9kv_engine5blockNtB2_5Block6encode
FN:60,_RNCNvMNtCs3ksH6Jg0luU_9kv_engine5blockNtB4_5Block10encode_ref0B6_
FN:117,_RNCNvMNtCs3ksH6Jg0luU_9kv_engine5blockNtB4_5Block15decode_from_vec0B6_
FN:86,_RNCNvMNtCs3ksH6Jg0luU_9kv_engine5blockNtB4_5Block6decode0B6_
FN:38,_RNCNvMNtCs3ksH6Jg0luU_9kv_engine5blockNtB4_5Block6encode0B6_
FNDA:115768,_RNvMNtCs3ksH6Jg0luU_9kv_engine5blockNtB2_5Block10data_sliceB4_
FNDA:26882,_RNvMNtCs3ksH6Jg0luU_9kv_engine5blockNtB2_5Block10encode_ref
FNDA:30340,_RNvMNtCs3ksH6Jg0luU_9kv_engine5blockNtB2_5Block15decode_from_vec
FNDA:2,_RNvMNtCs3ksH6Jg0luU_9kv_engine5blockNtB2_5Block6decode
FNDA:9968,_RNvMNtCs3ksH6Jg0luU_9kv_engine5blockNtB2_5Block6encode
FNDA:0,_RNCNvMNtCs3ksH6Jg0luU_9kv_engine5blockNtB4_5Block10encode_ref0B6_
FNDA:816205,_RNCNvMNtCs3ksH6Jg0luU_9kv_engine5blockNtB4_5Block15decode_from_vec0B6_
FNDA:103,_RNCNvMNtCs3ksH6Jg0luU_9kv_engine5blockNtB4_5Block6decode0B6_
FNDA:0,_RNCNvMNtCs3ksH6Jg0luU_9kv_engine5blockNtB4_5Block6encode0B6_
FNF:9
FNH:7
DA:27,9968
DA:28,9968
DA:29,9968
DA:30,9968
DA:31,174189
DA:32,174189
DA:33,174189
DA:34,9968
DA:35,9968
DA:36,9968
DA:37,9968
DA:38,9968
DA:39,9968
DA:41,9968
DA:42,9968
DA:49,26882
DA:50,26882
DA:51,26882
DA:52,26882
DA:53,703549
DA:54,703549
DA:55,703549
DA:56,26882
DA:57,26882
DA:58,26882
DA:59,26882
DA:60,26882
DA:61,26882
DA:63,26882
DA:64,26882
DA:67,2
DA:68,2
DA:69,2
DA:72,0
DA:74,2
DA:75,2
DA:76,2
DA:77,2
DA:79,0
DA:81,2
DA:83,2
DA:84,2
DA:85,2
DA:86,103
DA:87,2
DA:89,2
DA:90,2
DA:91,2
DA:92,2
DA:93,2
DA:97,30340
DA:98,30340
DA:99,30340
DA:102,0
DA:104,30340
DA:105,30340
DA:106,30340
DA:107,30340
DA:109,0
DA:111,30340
DA:113,30340
DA:114,30340
DA:115,30340
DA:116,30340
DA:117,816205
DA:118,30340
DA:120,30340
DA:121,30340
DA:122,30340
DA:123,30340
DA:124,30340
DA:129,115768
DA:130,115768
DA:131,115768
BRF:0
BRH:0
LF:78
LH:72
end_of_record
SF:/home/liu/proj/toy-kv-engine/kv-engine/src/block/builder.rs
FN:149,_RNvMNtNtCs3ksH6Jg0luU_9kv_engine5block7builderNtB2_12BlockBuilder11num_entries
FN:45,_RNvMNtNtCs3ksH6Jg0luU_9kv_engine5block7builderNtB2_12BlockBuilder11overlap_len
FN:39,_RNvMNtNtCs3ksH6Jg0luU_9kv_engine5block7builderNtB2_12BlockBuilder12current_size
FN:68,_RNvMNtNtCs3ksH6Jg0luU_9kv_engine5block7builderNtB2_12BlockBuilder3add
FN:26,_RNvMNtNtCs3ksH6Jg0luU_9kv_engine5block7builderNtB2_12BlockBuilder3new
FN:154,_RNvMNtNtCs3ksH6Jg0luU_9kv_engine5block7builderNtB2_12BlockBuilder5build
FN:119,_RNvMNtNtCs3ksH6Jg0luU_9kv_engine5block7builderNtB2_12BlockBuilder6key_at
FN:144,_RNvMNtNtCs3ksH6Jg0luU_9kv_engine5block7builderNtB2_12BlockBuilder8is_empty
FN:54,_RNCNvMNtNtCs3ksH6Jg0luU_9kv_engine5block7builderNtB4_12BlockBuilder11overlap_len0B8_
FN:60,_RNCNvMNtNtCs3ksH6Jg0luU_9kv_engine5block7builderNtB4_12BlockBuilder11overlap_lens_0B8_
FN:79,_RNCNvMNtNtCs3ksH6Jg0luU_9kv_engine5block7builderNtB4_12BlockBuilder3add0B8_
FN:92,_RNCNvMNtNtCs3ksH6Jg0luU_9kv_engine5block7builderNtB4_12BlockBuilder3adds0_0B8_
FN:94,_RNCNvMNtNtCs3ksH6Jg0luU_9kv_engine5block7builderNtB4_12BlockBuilder3adds1_0B8_
FN:96,_RNCNvMNtNtCs3ksH6Jg0luU_9kv_engine5block7builderNtB4_12BlockBuilder3adds2_0B8_
FN:90,_RNCNvMNtNtCs3ksH6Jg0luU_9kv_engine5block7builderNtB4_12BlockBuilder3adds_0B8_
FNDA:110629,_RNvMNtNtCs3ksH6Jg0luU_9kv_engine5block7builderNtB2_12BlockBuilder11num_entries
FNDA:841302,_RNvMNtNtCs3ksH6Jg0luU_9kv_engine5block7builderNtB2_12BlockBuilder11overlap_len
FNDA:877793,_RNvMNtNtCs3ksH6Jg0luU_9kv_engine5block7builderNtB2_12BlockBuilder12current_size
FNDA:914646,_RNvMNtNtCs3ksH6Jg0luU_9kv_engine5block7builderNtB2_12BlockBuilder3add
FNDA:36864,_RNvMNtNtCs3ksH6Jg0luU_9kv_engine5block7builderNtB2_12BlockBuilder3new
FNDA:36856,_RNvMNtNtCs3ksH6Jg0luU_9kv_engine5block7builderNtB2_12BlockBuilder5build
FNDA:73791,_RNvMNtNtCs3ksH6Jg0luU_9kv_engine5block7builderNtB2_12BlockBuilder6key_at
FNDA:1792801,_RNvMNtNtCs3ksH6Jg0luU_9kv_engine5block7builderNtB2_12BlockBuilder8is_empty
FNDA:9,_RNCNvMNtNtCs3ksH6Jg0luU_9kv_engine5block7builderNtB4_12BlockBuilder11overlap_len0B8_
FNDA:8660095,_RNCNvMNtNtCs3ksH6Jg0luU_9kv_engine5block7builderNtB4_12BlockBuilder11overlap_lens_0B8_
FNDA:0,_RNCNvMNtNtCs3ksH6Jg0luU_9kv_engine5block7builderNtB4_12BlockBuilder3add0B8_
FNDA:0,_RNCNvMNtNtCs3ksH6Jg0luU_9kv_engine5block7builderNtB4_12BlockBuilder3adds0_0B8_
FNDA:0,_RNCNvMNtNtCs3ksH6Jg0luU_9kv_engine5block7builderNtB4_12BlockBuilder3adds1_0B8_
FNDA:0,_RNCNvMNtNtCs3ksH6Jg0luU_9kv_engine5block7builderNtB4_12BlockBuilder3adds2_0B8_
FNDA:0,_RNCNvMNtNtCs3ksH6Jg0luU_9kv_engine5block7builderNtB4_12BlockBuilder3adds_0B8_
FNF:15
FNH:10
DA:26,36864
DA:27,36864
DA:28,36864
DA:29,36864
DA:30,36864
DA:31,36864
DA:32,36864
DA:33,36864
DA:34,36864
DA:35,36864
DA:36,36864
DA:37,36864
DA:39,877793
DA:40,877793
DA:42,877793
DA:45,841302
DA:46,841302
DA:47,841302
DA:49,841302
DA:50,841302
DA:51,841302
DA:52,841302
DA:54,841302
DA:55,841302
DA:56,841302
DA:58,841302
DA:59,841302
DA:60,8660095
DA:61,841302
DA:62,841302
DA:68,914646
DA:70,914646
DA:71,877793
DA:73,36491
DA:74,878155
DA:78,878155
DA:79,878155
DA:80,0
DA:81,0
DA:83,878155
DA:84,36853
DA:86,841302
DA:88,878155
DA:89,878155
DA:90,878155
DA:91,878155
DA:92,878155
DA:93,878155
DA:94,878155
DA:95,878155
DA:96,878155
DA:99,878155
DA:100,878155
DA:101,878155
DA:102,878155
DA:103,878155
DA:104,878155
DA:106,878155
DA:107,36853
DA:108,36853
DA:109,36853
DA:110,36853
DA:111,841302
DA:113,878155
DA:114,914646
DA:119,73791
DA:120,73791
DA:122,73790
DA:123,73790
DA:124,73790
DA:125,73790
DA:126,73790
DA:127,73790
DA:128,73790
DA:129,73790
DA:131,73790
DA:132,43594
DA:134,30196
DA:135,30196
DA:136,30196
DA:137,30196
DA:138,30196
DA:139,30196
DA:141,73790
DA:144,1792801
DA:145,1792801
DA:146,1792801
DA:149,110629
DA:150,110629
DA:151,110629
DA:154,36856
DA:155,36856
DA:156,36856
DA:157,36856
DA:158,36856
DA:159,36856
BRF:0
BRH:0
LF:104
LH:96
end_of_record
SF:/home/liu/proj/toy-kv-engine/kv-engine/src/block/iterator.rs
FN:78,_RNvMNtNtCs3ksH6Jg0luU_9kv_engine5block8iteratorNtB2_13BlockIterator9raw_value
FN:94,_RNvMNtNtCs3ksH6Jg0luU_9kv_engine5block8iteratorNtB2_13BlockIterator11seek_to_idx
FN:172,_RNvMNtNtCs3ksH6Jg0luU_9kv_engine5block8iteratorNtB2_13BlockIterator11seek_to_key
FN:72,_RNvMNtNtCs3ksH6Jg0luU_9kv_engine5block8iteratorNtB2_13BlockIterator11value_bytes
FN:129,_RNvMNtNtCs3ksH6Jg0luU_9kv_engine5block8iteratorNtB2_13BlockIterator12cmp_entry_at
FN:35,_RNvMNtNtCs3ksH6Jg0luU_9kv_engine5block8iteratorNtB2_13BlockIterator13get_first_key
FN:89,_RNvMNtNtCs3ksH6Jg0luU_9kv_engine5block8iteratorNtB2_13BlockIterator13seek_to_first
FN:52,_RNvMNtNtCs3ksH6Jg0luU_9kv_engine5block8iteratorNtB2_13BlockIterator22create_and_seek_to_key
FN:44,_RNvMNtNtCs3ksH6Jg0luU_9kv_engine5block8iteratorNtB2_13BlockIterator24create_and_seek_to_first
FN:60,_RNvMNtNtCs3ksH6Jg0luU_9kv_engine5block8iteratorNtB2_13BlockIterator3key
FN:23,_RNvMNtNtCs3ksH6Jg0luU_9kv_engine5block8iteratorNtB2_13BlockIterator3new
FN:120,_RNvMNtNtCs3ksH6Jg0luU_9kv_engine5block8iteratorNtB2_13BlockIterator4next
FN:65,_RNvMNtNtCs3ksH6Jg0luU_9kv_engine5block8iteratorNtB2_13BlockIterator5value
FN:84,_RNvMNtNtCs3ksH6Jg0luU_9kv_engine5block8iteratorNtB2_13BlockIterator8is_valid
FNDA:0,_RNvMNtNtCs3ksH6Jg0luU_9kv_engine5block8iteratorNtB2_13BlockIterator9raw_value
FNDA:1013076,_RNvMNtNtCs3ksH6Jg0luU_9kv_engine5block8iteratorNtB2_13BlockIterator11seek_to_idx
FNDA:117742,_RNvMNtNtCs3ksH6Jg0luU_9kv_engine5block8iteratorNtB2_13BlockIterator11seek_to_key
FNDA:115768,_RNvMNtNtCs3ksH6Jg0luU_9kv_engine5block8iteratorNtB2_13BlockIterator11value_bytes
FNDA:569302,_RNvMNtNtCs3ksH6Jg0luU_9kv_engine5block8iteratorNtB2_13BlockIterator12cmp_entry_at
FNDA:150782,_RNvMNtNtCs3ksH6Jg0luU_9kv_engine5block8iteratorNtB2_13BlockIterator13get_first_key
FNDA:33550,_RNvMNtNtCs3ksH6Jg0luU_9kv_engine5block8iteratorNtB2_13BlockIterator13seek_to_first
FNDA:117237,_RNvMNtNtCs3ksH6Jg0luU_9kv_engine5block8iteratorNtB2_13BlockIterator22create_and_seek_to_key
FNDA:33545,_RNvMNtNtCs3ksH6Jg0luU_9kv_engine5block8iteratorNtB2_13BlockIterator24create_and_seek_to_first
FNDA:8508644,_RNvMNtNtCs3ksH6Jg0luU_9kv_engine5block8iteratorNtB2_13BlockIterator3key
FNDA:150782,_RNvMNtNtCs3ksH6Jg0luU_9kv_engine5block8iteratorNtB2_13BlockIterator3new
FNDA:861784,_RNvMNtNtCs3ksH6Jg0luU_9kv_engine5block8iteratorNtB2_13BlockIterator4next
FNDA:1543499,_RNvMNtNtCs3ksH6Jg0luU_9kv_engine5block8iteratorNtB2_13BlockIterator5value
FNDA:5021479,_RNvMNtNtCs3ksH6Jg0luU_9kv_engine5block8iteratorNtB2_13BlockIterator8is_valid
FNF:14
FNH:13
DA:23,150782
DA:24,150782
DA:26,150782
DA:27,150782
DA:28,150782
DA:29,150782
DA:30,150782
DA:31,150782
DA:32,150782
DA:33,150782
DA:35,150782
DA:36,150782
DA:37,150782
DA:38,150782
DA:40,150782
DA:41,150782
DA:44,33545
DA:45,33545
DA:46,33545
DA:48,33545
DA:49,33545
DA:52,117237
DA:53,117237
DA:54,117237
DA:56,117237
DA:57,117237
DA:60,8508644
DA:61,8508644
DA:62,8508644
DA:65,1543499
DA:66,1543499
DA:67,1543499
DA:72,115768
DA:73,115768
DA:74,115768
DA:75,115768
DA:78,0
DA:79,0
DA:80,0
DA:84,5021479
DA:85,5021479
DA:86,5021479
DA:89,33550
DA:90,33550
DA:91,33550
DA:94,1013076
DA:95,1013076
DA:97,1013076
DA:98,33877
DA:99,33877
DA:100,33877
DA:101,979199
DA:103,979199
DA:104,979199
DA:105,979199
DA:106,979199
DA:107,979199
DA:108,979199
DA:109,979199
DA:110,979199
DA:111,979199
DA:112,979199
DA:113,979199
DA:114,979199
DA:115,979199
DA:116,979199
DA:117,1013076
DA:120,861784
DA:121,861784
DA:122,861784
DA:123,861784
DA:129,569302
DA:130,569302
DA:131,569302
DA:132,569302
DA:133,569302
DA:135,0
DA:136,0
DA:138,569302
DA:139,569302
DA:140,569302
DA:141,569302
DA:142,569302
DA:144,0
DA:146,569302
DA:152,569302
DA:153,569302
DA:154,569302
DA:155,569302
DA:156,524143
DA:157,45159
DA:161,524143
DA:162,30
DA:163,524113
DA:166,524113
DA:167,569302
DA:172,117742
DA:173,117742
DA:174,117742
DA:175,117742
DA:176,117742
DA:177,686743
DA:178,569302
DA:179,569302
DA:180,251365
DA:181,317636
DA:183,301
DA:184,301
DA:189,117742
DA:190,117742
BRF:0
BRH:0
LF:110
LH:104
end_of_record
SF:/home/liu/proj/toy-kv-engine/kv-engine/src/cache.rs
FN:120,_RINvMNtCs3ksH6Jg0luU_9kv_engine5cacheNtB3_10BlockCache12try_get_withNCNCNCNvNtB3_5testss_41block_cache_try_get_with_concurrent_error000ReEB5_
FN:120,_RINvMNtCs3ksH6Jg0luU_9kv_engine5cacheNtB3_10BlockCache12try_get_withNCNCNCNvNtB3_5testss_46block_cache_try_get_with_single_flight_success000ReEB5_
FN:120,_RINvMNtCs3ksH6Jg0luU_9kv_engine5cacheNtB3_10BlockCache12try_get_withNCNvMs0_NtB5_5tableNtB1c_7SsTable17read_block_cached0NtCs9i9VuZPdG6Z_6anyhow5ErrorEB5_
FN:120,_RINvMNtCs3ksH6Jg0luU_9kv_engine5cacheNtB3_10BlockCache12try_get_withNCNvNtB3_5testss_28block_cache_try_get_with_hit0NtNtCs2TrN21NlPz_5alloc6string6StringEB5_
FN:120,_RINvMNtCs3ksH6Jg0luU_9kv_engine5cacheNtB3_10BlockCache12try_get_withNCNvNtB3_5testss_28block_cache_try_get_with_hits_0NtNtCs2TrN21NlPz_5alloc6string6StringEB5_
FN:120,_RINvMNtCs3ksH6Jg0luU_9kv_engine5cacheNtB3_10BlockCache12try_get_withNCNvNtB3_5testss_41block_cache_try_get_with_concurrent_errors_0ReEB5_
FN:120,_RINvMNtCs3ksH6Jg0luU_9kv_engine5cacheNtB3_10BlockCache12try_get_withNCNvNtB3_5testss_41block_cache_try_get_with_error_propagates0ReEB5_
FN:120,_RINvMNtCs3ksH6Jg0luU_9kv_engine5cacheNtB3_10BlockCache12try_get_withNCNvNtB3_5testss_41block_cache_try_get_with_error_propagatess_0ReEB5_
FN:71,_RINvMNtCs3ksH6Jg0luU_9kv_engine5cacheNtB3_10BlockCache13get_or_insertNCNCNCNvNtB3_5testss_42block_cache_single_flight_coalesces_misses000EB5_
FN:71,_RINvMNtCs3ksH6Jg0luU_9kv_engine5cacheNtB3_10BlockCache13get_or_insertNCNvNtB3_5testss_27block_cache_invalidate_ssts0EB5_
FN:71,_RINvMNtCs3ksH6Jg0luU_9kv_engine5cacheNtB3_10BlockCache13get_or_insertNCNvNtB3_5testss_27block_cache_invalidate_sstss0_0EB5_
FN:71,_RINvMNtCs3ksH6Jg0luU_9kv_engine5cacheNtB3_10BlockCache13get_or_insertNCNvNtB3_5testss_27block_cache_invalidate_sstss_0EB5_
FN:71,_RINvMNtCs3ksH6Jg0luU_9kv_engine5cacheNtB3_10BlockCache13get_or_insertNCNvNtB3_5testss_31block_cache_new_clamps_capacity0EB5_
FN:71,_RINvMNtCs3ksH6Jg0luU_9kv_engine5cacheNtB3_10BlockCache13get_or_insertNCNvNtB3_5testss_38block_cache_different_keys_independent0EB5_
FN:71,_RINvMNtCs3ksH6Jg0luU_9kv_engine5cacheNtB3_10BlockCache13get_or_insertNCNvNtB3_5testss_38block_cache_different_keys_independents0_0EB5_
FN:71,_RINvMNtCs3ksH6Jg0luU_9kv_engine5cacheNtB3_10BlockCache13get_or_insertNCNvNtB3_5testss_38block_cache_different_keys_independents_0EB5_
FN:71,_RINvMNtCs3ksH6Jg0luU_9kv_engine5cacheNtB3_10BlockCache13get_or_insertNCNvNtB3_5testss_38block_cache_get_or_insert_hit_and_miss0EB5_
FN:71,_RINvMNtCs3ksH6Jg0luU_9kv_engine5cacheNtB3_10BlockCache13get_or_insertNCNvNtB3_5testss_38block_cache_get_or_insert_hit_and_misss_0EB5_
FN:71,_RINvMNtCs3ksH6Jg0luU_9kv_engine5cacheNtB3_10BlockCache13get_or_insertNCNvNtB3_5testss_38block_cache_invalidate_unknown_id_noop0EB5_
FN:71,_RINvMNtCs3ksH6Jg0luU_9kv_engine5cacheNtB3_10BlockCache13get_or_insertNCNvNtB3_5testss_45block_cache_entry_count_drifts_after_eviction0EB5_
FN:136,_RNCINvMNtCs3ksH6Jg0luU_9kv_engine5cacheNtB5_10BlockCache12try_get_withNCNCNCNvNtB5_5testss_41block_cache_try_get_with_concurrent_error000ReE0B7_
FN:151,_RNCINvMNtCs3ksH6Jg0luU_9kv_engine5cacheNtB5_10BlockCache12try_get_withNCNCNCNvNtB5_5testss_41block_cache_try_get_with_concurrent_error000ReEs_0B7_
FN:136,_RNCINvMNtCs3ksH6Jg0luU_9kv_engine5cacheNtB5_10BlockCache12try_get_withNCNCNCNvNtB5_5testss_46block_cache_try_get_with_single_flight_success000ReE0B7_
FN:151,_RNCINvMNtCs3ksH6Jg0luU_9kv_engine5cacheNtB5_10BlockCache12try_get_withNCNCNCNvNtB5_5testss_46block_cache_try_get_with_single_flight_success000ReEs_0B7_
FN:136,_RNCINvMNtCs3ksH6Jg0luU_9kv_engine5cacheNtB5_10BlockCache12try_get_withNCNvMs0_NtB7_5tableNtB1e_7SsTable17read_block_cached0NtCs9i9VuZPdG6Z_6anyhow5ErrorE0B7_
FN:151,_RNCINvMNtCs3ksH6Jg0luU_9kv_engine5cacheNtB5_10BlockCache12try_get_withNCNvMs0_NtB7_5tableNtB1e_7SsTable17read_block_cached0NtCs9i9VuZPdG6Z_6anyhow5ErrorEs_0B7_
FN:136,_RNCINvMNtCs3ksH6Jg0luU_9kv_engine5cacheNtB5_10BlockCache12try_get_withNCNvNtB5_5testss_28block_cache_try_get_with_hit0NtNtCs2TrN21NlPz_5alloc6string6StringE0B7_
FN:151,_RNCINvMNtCs3ksH6Jg0luU_9kv_engine5cacheNtB5_10BlockCache12try_get_withNCNvNtB5_5testss_28block_cache_try_get_with_hit0NtNtCs2TrN21NlPz_5alloc6string6StringEs_0B7_
FN:136,_RNCINvMNtCs3ksH6Jg0luU_9kv_engine5cacheNtB5_10BlockCache12try_get_withNCNvNtB5_5testss_28block_cache_try_get_with_hits_0NtNtCs2TrN21NlPz_5alloc6string6StringE0B7_
FN:151,_RNCINvMNtCs3ksH6Jg0luU_9kv_engine5cacheNtB5_10BlockCache12try_get_withNCNvNtB5_5testss_28block_cache_try_get_with_hits_0NtNtCs2TrN21NlPz_5alloc6string6StringEs_0B7_
FN:136,_RNCINvMNtCs3ksH6Jg0luU_9kv_engine5cacheNtB5_10BlockCache12try_get_withNCNvNtB5_5testss_41block_cache_try_get_with_concurrent_errors_0ReE0B7_
FN:151,_RNCINvMNtCs3ksH6Jg0luU_9kv_engine5cacheNtB5_10BlockCache12try_get_withNCNvNtB5_5testss_41block_cache_try_get_with_concurrent_errors_0ReEs_0B7_
FN:136,_RNCINvMNtCs3ksH6Jg0luU_9kv_engine5cacheNtB5_10BlockCache12try_get_withNCNvNtB5_5testss_41block_cache_try_get_with_error_propagates0ReE0B7_
FN:151,_RNCINvMNtCs3ksH6Jg0luU_9kv_engine5cacheNtB5_10BlockCache12try_get_withNCNvNtB5_5testss_41block_cache_try_get_with_error_propagates0ReEs_0B7_
FN:136,_RNCINvMNtCs3ksH6Jg0luU_9kv_engine5cacheNtB5_10BlockCache12try_get_withNCNvNtB5_5testss_41block_cache_try_get_with_error_propagatess_0ReE0B7_
FN:151,_RNCINvMNtCs3ksH6Jg0luU_9kv_engine5cacheNtB5_10BlockCache12try_get_withNCNvNtB5_5testss_41block_cache_try_get_with_error_propagatess_0ReEs_0B7_
FN:89,_RNCINvMNtCs3ksH6Jg0luU_9kv_engine5cacheNtB5_10BlockCache13get_or_insertNCNCNCNvNtB5_5testss_42block_cache_single_flight_coalesces_misses000E0B7_
FN:104,_RNCINvMNtCs3ksH6Jg0luU_9kv_engine5cacheNtB5_10BlockCache13get_or_insertNCNCNCNvNtB5_5testss_42block_cache_single_flight_coalesces_misses000Es_0B7_
FN:89,_RNCINvMNtCs3ksH6Jg0luU_9kv_engine5cacheNtB5_10BlockCache13get_or_insertNCNvNtB5_5testss_27block_cache_invalidate_ssts0E0B7_
FN:104,_RNCINvMNtCs3ksH6Jg0luU_9kv_engine5cacheNtB5_10BlockCache13get_or_insertNCNvNtB5_5testss_27block_cache_invalidate_ssts0Es_0B7_
FN:89,_RNCINvMNtCs3ksH6Jg0luU_9kv_engine5cacheNtB5_10BlockCache13get_or_insertNCNvNtB5_5testss_27block_cache_invalidate_sstss0_0E0B7_
FN:104,_RNCINvMNtCs3ksH6Jg0luU_9kv_engine5cacheNtB5_10BlockCache13get_or_insertNCNvNtB5_5testss_27block_cache_invalidate_sstss0_0Es_0B7_
FN:89,_RNCINvMNtCs3ksH6Jg0luU_9kv_engine5cacheNtB5_10BlockCache13get_or_insertNCNvNtB5_5testss_27block_cache_invalidate_sstss_0E0B7_
FN:104,_RNCINvMNtCs3ksH6Jg0luU_9kv_engine5cacheNtB5_10BlockCache13get_or_insertNCNvNtB5_5testss_27block_cache_invalidate_sstss_0Es_0B7_
FN:89,_RNCINvMNtCs3ksH6Jg0luU_9kv_engine5cacheNtB5_10BlockCache13get_or_insertNCNvNtB5_5testss_31block_cache_new_clamps_capacity0E0B7_
FN:104,_RNCINvMNtCs3ksH6Jg0luU_9kv_engine5cacheNtB5_10BlockCache13get_or_insertNCNvNtB5_5testss_31block_cache_new_clamps_capacity0Es_0B7_
FN:89,_RNCINvMNtCs3ksH6Jg0luU_9kv_engine5cacheNtB5_10BlockCache13get_or_insertNCNvNtB5_5testss_38block_cache_different_keys_independent0E0B7_
FN:104,_RNCINvMNtCs3ksH6Jg0luU_9kv_engine5cacheNtB5_10BlockCache13get_or_insertNCNvNtB5_5testss_38block_cache_different_keys_independent0Es_0B7_
FN:89,_RNCINvMNtCs3ksH6Jg0luU_9kv_engine5cacheNtB5_10BlockCache13get_or_insertNCNvNtB5_5testss_38block_cache_different_keys_independents0_0E0B7_
FN:104,_RNCINvMNtCs3ksH6Jg0luU_9kv_engine5cacheNtB5_10BlockCache13get_or_insertNCNvNtB5_5testss_38block_cache_different_keys_independents0_0Es_0B7_
FN:89,_RNCINvMNtCs3ksH6Jg0luU_9kv_engine5cacheNtB5_10BlockCache13get_or_insertNCNvNtB5_5testss_38block_cache_different_keys_independents_0E0B7_
FN:104,_RNCINvMNtCs3ksH6Jg0luU_9kv_engine5cacheNtB5_10BlockCache13get_or_insertNCNvNtB5_5testss_38block_cache_different_keys_independents_0Es_0B7_
FN:89,_RNCINvMNtCs3ksH6Jg0luU_9kv_engine5cacheNtB5_10BlockCache13get_or_insertNCNvNtB5_5testss_38block_cache_get_or_insert_hit_and_miss0E0B7_
FN:104,_RNCINvMNtCs3ksH6Jg0luU_9kv_engine5cacheNtB5_10BlockCache13get_or_insertNCNvNtB5_5testss_38block_cache_get_or_insert_hit_and_miss0Es_0B7_
FN:89,_RNCINvMNtCs3ksH6Jg0luU_9kv_engine5cacheNtB5_10BlockCache13get_or_insertNCNvNtB5_5testss_38block_cache_get_or_insert_hit_and_misss_0E0B7_
FN:104,_RNCINvMNtCs3ksH6Jg0luU_9kv_engine5cacheNtB5_10BlockCache13get_or_insertNCNvNtB5_5testss_38block_cache_get_or_insert_hit_and_misss_0Es_0B7_
FN:89,_RNCINvMNtCs3ksH6Jg0luU_9kv_engine5cacheNtB5_10BlockCache13get_or_insertNCNvNtB5_5testss_38block_cache_invalidate_unknown_id_noop0E0B7_
FN:104,_RNCINvMNtCs3ksH6Jg0luU_9kv_engine5cacheNtB5_10BlockCache13get_or_insertNCNvNtB5_5testss_38block_cache_invalidate_unknown_id_noop0Es_0B7_
FN:89,_RNCINvMNtCs3ksH6Jg0luU_9kv_engine5cacheNtB5_10BlockCache13get_or_insertNCNvNtB5_5testss_45block_cache_entry_count_drifts_after_eviction0E0B7_
FN:104,_RNCINvMNtCs3ksH6Jg0luU_9kv_engine5cacheNtB5_10BlockCache13get_or_insertNCNvNtB5_5testss_45block_cache_entry_count_drifts_after_eviction0Es_0B7_
FN:169,_RNCNvMNtCs3ksH6Jg0luU_9kv_engine5cacheNtB4_10BlockCache15invalidate_ssts0B6_
FN:220,_RNCNvMNtCs3ksH6Jg0luU_9kv_engine5cacheNtB4_10BlockCache8backfill0B6_
FN:314,_RNvNtNtCs3ksH6Jg0luU_9kv_engine5cache5tests10make_block
FN:581,_RNvNtNtCs3ksH6Jg0luU_9kv_engine5cache5testss_26value_cache_insert_and_get
FN:398,_RNvNtNtCs3ksH6Jg0luU_9kv_engine5cache5testss_27block_cache_invalidate_ssts
FN:617,_RNvNtNtCs3ksH6Jg0luU_9kv_engine5cache5testss_27value_cache_invalidate_file
FN:368,_RNvNtNtCs3ksH6Jg0luU_9kv_engine5cache5testss_28block_cache_try_get_with_hit
FN:326,_RNvNtNtCs3ksH6Jg0luU_9kv_engine5cache5testss_31block_cache_new_clamps_capacity
FN:548,_RNvNtNtCs3ksH6Jg0luU_9kv_engine5cache5testss_34block_cache_backfill_empty_is_noop
FN:528,_RNvNtNtCs3ksH6Jg0luU_9kv_engine5cache5testss_35block_cache_backfill_inserts_blocks
FN:356,_RNvNtNtCs3ksH6Jg0luU_9kv_engine5cache5testss_38block_cache_different_keys_independent
FN:334,_RNvNtNtCs3ksH6Jg0luU_9kv_engine5cache5testss_38block_cache_get_or_insert_hit_and_miss
FN:417,_RNvNtNtCs3ksH6Jg0luU_9kv_engine5cache5testss_38block_cache_invalidate_unknown_id_noop
FN:607,_RNvNtNtCs3ksH6Jg0luU_9kv_engine5cache5testss_38value_cache_weight_exceeds_u16_skipped
FN:589,_RNvNtNtCs3ksH6Jg0luU_9kv_engine5cache5testss_39value_cache_weight_clamping_small_value
FN:630,_RNvNtNtCs3ksH6Jg0luU_9kv_engine5cache5testss_40value_cache_invalidate_unknown_file_noop
FN:459,_RNvNtNtCs3ksH6Jg0luU_9kv_engine5cache5testss_41block_cache_try_get_with_concurrent_error
FN:380,_RNvNtNtCs3ksH6Jg0luU_9kv_engine5cache5testss_41block_cache_try_get_with_error_propagates
FN:597,_RNvNtNtCs3ksH6Jg0luU_9kv_engine5cache5testss_41value_cache_weight_exceeds_budget_skipped
FN:427,_RNvNtNtCs3ksH6Jg0luU_9kv_engine5cache5testss_42block_cache_single_flight_coalesces_misses
FN:650,_RNvNtNtCs3ksH6Jg0luU_9kv_engine5cache5testss_44value_cache_concurrent_insert_and_invalidate
FN:555,_RNvNtNtCs3ksH6Jg0luU_9kv_engine5cache5testss_45block_cache_entry_count_drifts_after_eviction
FN:497,_RNvNtNtCs3ksH6Jg0luU_9kv_engine5cache5testss_46block_cache_try_get_with_single_flight_success
FN:638,_RNvNtNtCs3ksH6Jg0luU_9kv_engine5cache5testss_47value_cache_duplicate_key_updates_reverse_index
FN:193,_RNvMNtCs3ksH6Jg0luU_9kv_engine5cacheNtB2_10BlockCache11entry_count
FN:164,_RNvMNtCs3ksH6Jg0luU_9kv_engine5cacheNtB2_10BlockCache15invalidate_ssts
FN:56,_RNvMNtCs3ksH6Jg0luU_9kv_engine5cacheNtB2_10BlockCache3new
FN:203,_RNvMNtCs3ksH6Jg0luU_9kv_engine5cacheNtB2_10BlockCache8backfill
FN:269,_RNvMs_NtCs3ksH6Jg0luU_9kv_engine5cacheNtB4_10ValueCache12value_weight
FN:297,_RNvMs_NtCs3ksH6Jg0luU_9kv_engine5cacheNtB4_10ValueCache15invalidate_file
FN:278,_RNvMs_NtCs3ksH6Jg0luU_9kv_engine5cacheNtB4_10ValueCache3get
FN:251,_RNvMs_NtCs3ksH6Jg0luU_9kv_engine5cacheNtB4_10ValueCache3new
FN:285,_RNvMs_NtCs3ksH6Jg0luU_9kv_engine5cacheNtB4_10ValueCache6insert
FN:471,_RNCNCNCNvNtNtCs3ksH6Jg0luU_9kv_engine5cache5testss_41block_cache_try_get_with_concurrent_error000Bb_
FN:439,_RNCNCNCNvNtNtCs3ksH6Jg0luU_9kv_engine5cache5testss_42block_cache_single_flight_coalesces_misses000Bb_
FN:509,_RNCNCNCNvNtNtCs3ksH6Jg0luU_9kv_engine5cache5testss_46block_cache_try_get_with_single_flight_success000Bb_
FN:469,_RNCNCNvNtNtCs3ksH6Jg0luU_9kv_engine5cache5testss_41block_cache_try_get_with_concurrent_error00B9_
FN:437,_RNCNCNvNtNtCs3ksH6Jg0luU_9kv_engine5cache5testss_42block_cache_single_flight_coalesces_misses00B9_
FN:658,_RNCNCNvNtNtCs3ksH6Jg0luU_9kv_engine5cache5testss_44value_cache_concurrent_insert_and_invalidate00B9_
FN:507,_RNCNCNvNtNtCs3ksH6Jg0luU_9kv_engine5cache5testss_46block_cache_try_get_with_single_flight_success00B9_
FN:400,_RNCNvNtNtCs3ksH6Jg0luU_9kv_engine5cache5testss_27block_cache_invalidate_ssts0B7_
FN:402,_RNCNvNtNtCs3ksH6Jg0luU_9kv_engine5cache5testss_27block_cache_invalidate_sstss0_0B7_
FN:401,_RNCNvNtNtCs3ksH6Jg0luU_9kv_engine5cache5testss_27block_cache_invalidate_sstss_0B7_
FN:370,_RNCNvNtNtCs3ksH6Jg0luU_9kv_engine5cache5testss_28block_cache_try_get_with_hit0B7_
FN:375,_RNCNvNtNtCs3ksH6Jg0luU_9kv_engine5cache5testss_28block_cache_try_get_with_hits_0B7_
FN:329,_RNCNvNtNtCs3ksH6Jg0luU_9kv_engine5cache5testss_31block_cache_new_clamps_capacity0B7_
FN:530,_RNCNvNtNtCs3ksH6Jg0luU_9kv_engine5cache5testss_35block_cache_backfill_inserts_blocks0B7_
FN:358,_RNCNvNtNtCs3ksH6Jg0luU_9kv_engine5cache5testss_38block_cache_different_keys_independent0B7_
FN:360,_RNCNvNtNtCs3ksH6Jg0luU_9kv_engine5cache5testss_38block_cache_different_keys_independents0_0B7_
FN:359,_RNCNvNtNtCs3ksH6Jg0luU_9kv_engine5cache5testss_38block_cache_different_keys_independents_0B7_
FN:339,_RNCNvNtNtCs3ksH6Jg0luU_9kv_engine5cache5testss_38block_cache_get_or_insert_hit_and_miss0B7_
FN:347,_RNCNvNtNtCs3ksH6Jg0luU_9kv_engine5cache5testss_38block_cache_get_or_insert_hit_and_misss_0B7_
FN:419,_RNCNvNtNtCs3ksH6Jg0luU_9kv_engine5cache5testss_38block_cache_invalidate_unknown_id_noop0B7_
FN:465,_RNCNvNtNtCs3ksH6Jg0luU_9kv_engine5cache5testss_41block_cache_try_get_with_concurrent_error0B7_
FN:491,_RNCNvNtNtCs3ksH6Jg0luU_9kv_engine5cache5testss_41block_cache_try_get_with_concurrent_errors_0B7_
FN:392,_RNCNvNtNtCs3ksH6Jg0luU_9kv_engine5cache5testss_41block_cache_try_get_with_error_propagatess_0B7_
FN:433,_RNCNvNtNtCs3ksH6Jg0luU_9kv_engine5cache5testss_42block_cache_single_flight_coalesces_misses0B7_
FN:655,_RNCNvNtNtCs3ksH6Jg0luU_9kv_engine5cache5testss_44value_cache_concurrent_insert_and_invalidate0B7_
FN:560,_RNCNvNtNtCs3ksH6Jg0luU_9kv_engine5cache5testss_45block_cache_entry_count_drifts_after_eviction0B7_
FN:568,_RNCNvNtNtCs3ksH6Jg0luU_9kv_engine5cache5testss_45block_cache_entry_count_drifts_after_evictions_0B7_
FN:503,_RNCNvNtNtCs3ksH6Jg0luU_9kv_engine5cache5testss_46block_cache_try_get_with_single_flight_success0B7_
FNDA:4,_RINvMNtCs3ksH6Jg0luU_9kv_engine5cacheNtB3_10BlockCache12try_get_withNCNCNCNvNtB3_5testss_41block_cache_try_get_with_concurrent_error000ReEB5_
FNDA:4,_RINvMNtCs3ksH6Jg0luU_9kv_engine5cacheNtB3_10BlockCache12try_get_withNCNCNCNvNtB3_5testss_46block_cache_try_get_with_single_flight_success000ReEB5_
FNDA:149978,_RINvMNtCs3ksH6Jg0luU_9kv_engine5cacheNtB3_10BlockCache12try_get_withNCNvMs0_NtB5_5tableNtB1c_7SsTable17read_block_cached0NtCs9i9VuZPdG6Z_6anyhow5ErrorEB5_
FNDA:1,_RINvMNtCs3ksH6Jg0luU_9kv_engine5cacheNtB3_10BlockCache12try_get_withNCNvNtB3_5testss_28block_cache_try_get_with_hit0NtNtCs2TrN21NlPz_5alloc6string6StringEB5_
FNDA:1,_RINvMNtCs3ksH6Jg0luU_9kv_engine5cacheNtB3_10BlockCache12try_get_withNCNvNtB3_5testss_28block_cache_try_get_with_hits_0NtNtCs2TrN21NlPz_5alloc6string6StringEB5_
FNDA:1,_RINvMNtCs3ksH6Jg0luU_9kv_engine5cacheNtB3_10BlockCache12try_get_withNCNvNtB3_5testss_41block_cache_try_get_with_concurrent_errors_0ReEB5_
FNDA:1,_RINvMNtCs3ksH6Jg0luU_9kv_engine5cacheNtB3_10BlockCache12try_get_withNCNvNtB3_5testss_41block_cache_try_get_with_error_propagates0ReEB5_
FNDA:1,_RINvMNtCs3ksH6Jg0luU_9kv_engine5cacheNtB3_10BlockCache12try_get_withNCNvNtB3_5testss_41block_cache_try_get_with_error_propagatess_0ReEB5_
FNDA:4,_RINvMNtCs3ksH6Jg0luU_9kv_engine5cacheNtB3_10BlockCache13get_or_insertNCNCNCNvNtB3_5testss_42block_cache_single_flight_coalesces_misses000EB5_
FNDA:1,_RINvMNtCs3ksH6Jg0luU_9kv_engine5cacheNtB3_10BlockCache13get_or_insertNCNvNtB3_5testss_27block_cache_invalidate_ssts0EB5_
FNDA:1,_RINvMNtCs3ksH6Jg0luU_9kv_engine5cacheNtB3_10BlockCache13get_or_insertNCNvNtB3_5testss_27block_cache_invalidate_sstss0_0EB5_
FNDA:1,_RINvMNtCs3ksH6Jg0luU_9kv_engine5cacheNtB3_10BlockCache13get_or_insertNCNvNtB3_5testss_27block_cache_invalidate_sstss_0EB5_
FNDA:1,_RINvMNtCs3ksH6Jg0luU_9kv_engine5cacheNtB3_10BlockCache13get_or_insertNCNvNtB3_5testss_31block_cache_new_clamps_capacity0EB5_
FNDA:1,_RINvMNtCs3ksH6Jg0luU_9kv_engine5cacheNtB3_10BlockCache13get_or_insertNCNvNtB3_5testss_38block_cache_different_keys_independent0EB5_
FNDA:1,_RINvMNtCs3ksH6Jg0luU_9kv_engine5cacheNtB3_10BlockCache13get_or_insertNCNvNtB3_5testss_38block_cache_different_keys_independents0_0EB5_
FNDA:1,_RINvMNtCs3ksH6Jg0luU_9kv_engine5cacheNtB3_10BlockCache13get_or_insertNCNvNtB3_5testss_38block_cache_different_keys_independents_0EB5_
FNDA:1,_RINvMNtCs3ksH6Jg0luU_9kv_engine5cacheNtB3_10BlockCache13get_or_insertNCNvNtB3_5testss_38block_cache_get_or_insert_hit_and_miss0EB5_
FNDA:1,_RINvMNtCs3ksH6Jg0luU_9kv_engine5cacheNtB3_10BlockCache13get_or_insertNCNvNtB3_5testss_38block_cache_get_or_insert_hit_and_misss_0EB5_
FNDA:1,_RINvMNtCs3ksH6Jg0luU_9kv_engine5cacheNtB3_10BlockCache13get_or_insertNCNvNtB3_5testss_38block_cache_invalidate_unknown_id_noop0EB5_
FNDA:10,_RINvMNtCs3ksH6Jg0luU_9kv_engine5cacheNtB3_10BlockCache13get_or_insertNCNvNtB3_5testss_45block_cache_entry_count_drifts_after_eviction0EB5_
FNDA:0,_RNCINvMNtCs3ksH6Jg0luU_9kv_engine5cacheNtB5_10BlockCache12try_get_withNCNCNCNvNtB5_5testss_41block_cache_try_get_with_concurrent_error000ReE0B7_
FNDA:0,_RNCINvMNtCs3ksH6Jg0luU_9kv_engine5cacheNtB5_10BlockCache12try_get_withNCNCNCNvNtB5_5testss_41block_cache_try_get_with_concurrent_error000ReEs_0B7_
FNDA:0,_RNCINvMNtCs3ksH6Jg0luU_9kv_engine5cacheNtB5_10BlockCache12try_get_withNCNCNCNvNtB5_5testss_46block_cache_try_get_with_single_flight_success000ReE0B7_
FNDA:1,_RNCINvMNtCs3ksH6Jg0luU_9kv_engine5cacheNtB5_10BlockCache12try_get_withNCNCNCNvNtB5_5testss_46block_cache_try_get_with_single_flight_success000ReEs_0B7_
FNDA:0,_RNCINvMNtCs3ksH6Jg0luU_9kv_engine5cacheNtB5_10BlockCache12try_get_withNCNvMs0_NtB7_5tableNtB1e_7SsTable17read_block_cached0NtCs9i9VuZPdG6Z_6anyhow5ErrorE0B7_
FNDA:29539,_RNCINvMNtCs3ksH6Jg0luU_9kv_engine5cacheNtB5_10BlockCache12try_get_withNCNvMs0_NtB7_5tableNtB1e_7SsTable17read_block_cached0NtCs9i9VuZPdG6Z_6anyhow5ErrorEs_0B7_
FNDA:0,_RNCINvMNtCs3ksH6Jg0luU_9kv_engine5cacheNtB5_10BlockCache12try_get_withNCNvNtB5_5testss_28block_cache_try_get_with_hit0NtNtCs2TrN21NlPz_5alloc6string6StringE0B7_
FNDA:1,_RNCINvMNtCs3ksH6Jg0luU_9kv_engine5cacheNtB5_10BlockCache12try_get_withNCNvNtB5_5testss_28block_cache_try_get_with_hit0NtNtCs2TrN21NlPz_5alloc6string6StringEs_0B7_
FNDA:0,_RNCINvMNtCs3ksH6Jg0luU_9kv_engine5cacheNtB5_10BlockCache12try_get_withNCNvNtB5_5testss_28block_cache_try_get_with_hits_0NtNtCs2TrN21NlPz_5alloc6string6StringE0B7_
FNDA:0,_RNCINvMNtCs3ksH6Jg0luU_9kv_engine5cacheNtB5_10BlockCache12try_get_withNCNvNtB5_5testss_28block_cache_try_get_with_hits_0NtNtCs2TrN21NlPz_5alloc6string6StringEs_0B7_
FNDA:0,_RNCINvMNtCs3ksH6Jg0luU_9kv_engine5cacheNtB5_10BlockCache12try_get_withNCNvNtB5_5testss_41block_cache_try_get_with_concurrent_errors_0ReE0B7_
FNDA:1,_RNCINvMNtCs3ksH6Jg0luU_9kv_engine5cacheNtB5_10BlockCache12try_get_withNCNvNtB5_5testss_41block_cache_try_get_with_concurrent_errors_0ReEs_0B7_
FNDA:0,_RNCINvMNtCs3ksH6Jg0luU_9kv_engine5cacheNtB5_10BlockCache12try_get_withNCNvNtB5_5testss_41block_cache_try_get_with_error_propagates0ReE0B7_
FNDA:0,_RNCINvMNtCs3ksH6Jg0luU_9kv_engine5cacheNtB5_10BlockCache12try_get_withNCNvNtB5_5testss_41block_cache_try_get_with_error_propagates0ReEs_0B7_
FNDA:0,_RNCINvMNtCs3ksH6Jg0luU_9kv_engine5cacheNtB5_10BlockCache12try_get_withNCNvNtB5_5testss_41block_cache_try_get_with_error_propagatess_0ReE0B7_
FNDA:1,_RNCINvMNtCs3ksH6Jg0luU_9kv_engine5cacheNtB5_10BlockCache12try_get_withNCNvNtB5_5testss_41block_cache_try_get_with_error_propagatess_0ReEs_0B7_
FNDA:0,_RNCINvMNtCs3ksH6Jg0luU_9kv_engine5cacheNtB5_10BlockCache13get_or_insertNCNCNCNvNtB5_5testss_42block_cache_single_flight_coalesces_misses000E0B7_
FNDA:1,_RNCINvMNtCs3ksH6Jg0luU_9kv_engine5cacheNtB5_10BlockCache13get_or_insertNCNCNCNvNtB5_5testss_42block_cache_single_flight_coalesces_misses000Es_0B7_
FNDA:0,_RNCINvMNtCs3ksH6Jg0luU_9kv_engine5cacheNtB5_10BlockCache13get_or_insertNCNvNtB5_5testss_27block_cache_invalidate_ssts0E0B7_
FNDA:1,_RNCINvMNtCs3ksH6Jg0luU_9kv_engine5cacheNtB5_10BlockCache13get_or_insertNCNvNtB5_5testss_27block_cache_invalidate_ssts0Es_0B7_
FNDA:0,_RNCINvMNtCs3ksH6Jg0luU_9kv_engine5cacheNtB5_10BlockCache13get_or_insertNCNvNtB5_5testss_27block_cache_invalidate_sstss0_0E0B7_
FNDA:1,_RNCINvMNtCs3ksH6Jg0luU_9kv_engine5cacheNtB5_10BlockCache13get_or_insertNCNvNtB5_5testss_27block_cache_invalidate_sstss0_0Es_0B7_
FNDA:0,_RNCINvMNtCs3ksH6Jg0luU_9kv_engine5cacheNtB5_10BlockCache13get_or_insertNCNvNtB5_5testss_27block_cache_invalidate_sstss_0E0B7_
FNDA:1,_RNCINvMNtCs3ksH6Jg0luU_9kv_engine5cacheNtB5_10BlockCache13get_or_insertNCNvNtB5_5testss_27block_cache_invalidate_sstss_0Es_0B7_
FNDA:0,_RNCINvMNtCs3ksH6Jg0luU_9kv_engine5cacheNtB5_10BlockCache13get_or_insertNCNvNtB5_5testss_31block_cache_new_clamps_capacity0E0B7_
FNDA:1,_RNCINvMNtCs3ksH6Jg0luU_9kv_engine5cacheNtB5_10BlockCache13get_or_insertNCNvNtB5_5testss_31block_cache_new_clamps_capacity0Es_0B7_
FNDA:0,_RNCINvMNtCs3ksH6Jg0luU_9kv_engine5cacheNtB5_10BlockCache13get_or_insertNCNvNtB5_5testss_38block_cache_different_keys_independent0E0B7_
FNDA:1,_RNCINvMNtCs3ksH6Jg0luU_9kv_engine5cacheNtB5_10BlockCache13get_or_insertNCNvNtB5_5testss_38block_cache_different_keys_independent0Es_0B7_
FNDA:0,_RNCINvMNtCs3ksH6Jg0luU_9kv_engine5cacheNtB5_10BlockCache13get_or_insertNCNvNtB5_5testss_38block_cache_different_keys_independents0_0E0B7_
FNDA:1,_RNCINvMNtCs3ksH6Jg0luU_9kv_engine5cacheNtB5_10BlockCache13get_or_insertNCNvNtB5_5testss_38block_cache_different_keys_independents0_0Es_0B7_
FNDA:0,_RNCINvMNtCs3ksH6Jg0luU_9kv_engine5cacheNtB5_10BlockCache13get_or_insertNCNvNtB5_5testss_38block_cache_different_keys_independents_0E0B7_
FNDA:1,_RNCINvMNtCs3ksH6Jg0luU_9kv_engine5cacheNtB5_10BlockCache13get_or_insertNCNvNtB5_5testss_38block_cache_different_keys_independents_0Es_0B7_
FNDA:0,_RNCINvMNtCs3ksH6Jg0luU_9kv_engine5cacheNtB5_10BlockCache13get_or_insertNCNvNtB5_5testss_38block_cache_get_or_insert_hit_and_miss0E0B7_
FNDA:1,_RNCINvMNtCs3ksH6Jg0luU_9kv_engine5cacheNtB5_10BlockCache13get_or_insertNCNvNtB5_5testss_38block_cache_get_or_insert_hit_and_miss0Es_0B7_
FNDA:0,_RNCINvMNtCs3ksH6Jg0luU_9kv_engine5cacheNtB5_10BlockCache13get_or_insertNCNvNtB5_5testss_38block_cache_get_or_insert_hit_and_misss_0E0B7_
FNDA:0,_RNCINvMNtCs3ksH6Jg0luU_9kv_engine5cacheNtB5_10BlockCache13get_or_insertNCNvNtB5_5testss_38block_cache_get_or_insert_hit_and_misss_0Es_0B7_
FNDA:0,_RNCINvMNtCs3ksH6Jg0luU_9kv_engine5cacheNtB5_10BlockCache13get_or_insertNCNvNtB5_5testss_38block_cache_invalidate_unknown_id_noop0E0B7_
FNDA:1,_RNCINvMNtCs3ksH6Jg0luU_9kv_engine5cacheNtB5_10BlockCache13get_or_insertNCNvNtB5_5testss_38block_cache_invalidate_unknown_id_noop0Es_0B7_
FNDA:0,_RNCINvMNtCs3ksH6Jg0luU_9kv_engine5cacheNtB5_10BlockCache13get_or_insertNCNvNtB5_5testss_45block_cache_entry_count_drifts_after_eviction0E0B7_
FNDA:10,_RNCINvMNtCs3ksH6Jg0luU_9kv_engine5cacheNtB5_10BlockCache13get_or_insertNCNvNtB5_5testss_45block_cache_entry_count_drifts_after_eviction0Es_0B7_
FNDA:126,_RNCNvMNtCs3ksH6Jg0luU_9kv_engine5cacheNtB4_10BlockCache15invalidate_ssts0B6_
FNDA:265,_RNCNvMNtCs3ksH6Jg0luU_9kv_engine5cacheNtB4_10BlockCache8backfill0B6_
FNDA:27,_RNvNtNtCs3ksH6Jg0luU_9kv_engine5cache5tests10make_block
FNDA:1,_RNvNtNtCs3ksH6Jg0luU_9kv_engine5cache5testss_26value_cache_insert_and_get
FNDA:1,_RNvNtNtCs3ksH6Jg0luU_9kv_engine5cache5testss_27block_cache_invalidate_ssts
FNDA:1,_RNvNtNtCs3ksH6Jg0luU_9kv_engine5cache5testss_27value_cache_invalidate_file
FNDA:1,_RNvNtNtCs3ksH6Jg0luU_9kv_engine5cache5testss_28block_cache_try_get_with_hit
FNDA:1,_RNvNtNtCs3ksH6Jg0luU_9kv_engine5cache5testss_31block_cache_new_clamps_capacity
FNDA:1,_RNvNtNtCs3ksH6Jg0luU_9kv_engine5cache5testss_34block_cache_backfill_empty_is_noop
FNDA:1,_RNvNtNtCs3ksH6Jg0luU_9kv_engine5cache5testss_35block_cache_backfill_inserts_blocks
FNDA:1,_RNvNtNtCs3ksH6Jg0luU_9kv_engine5cache5testss_38block_cache_different_keys_independent
FNDA:1,_RNvNtNtCs3ksH6Jg0luU_9kv_engine5cache5testss_38block_cache_get_or_insert_hit_and_miss
FNDA:1,_RNvNtNtCs3ksH6Jg0luU_9kv_engine5cache5testss_38block_cache_invalidate_unknown_id_noop
FNDA:1,_RNvNtNtCs3ksH6Jg0luU_9kv_engine5cache5testss_38value_cache_weight_exceeds_u16_skipped
FNDA:1,_RNvNtNtCs3ksH6Jg0luU_9kv_engine5cache5testss_39value_cache_weight_clamping_small_value
FNDA:1,_RNvNtNtCs3ksH6Jg0luU_9kv_engine5cache5testss_40value_cache_invalidate_unknown_file_noop
FNDA:1,_RNvNtNtCs3ksH6Jg0luU_9kv_engine5cache5testss_41block_cache_try_get_with_concurrent_error
FNDA:1,_RNvNtNtCs3ksH6Jg0luU_9kv_engine5cache5testss_41block_cache_try_get_with_error_propagates
FNDA:1,_RNvNtNtCs3ksH6Jg0luU_9kv_engine5cache5testss_41value_cache_weight_exceeds_budget_skipped
FNDA:1,_RNvNtNtCs3ksH6Jg0luU_9kv_engine5cache5testss_42block_cache_single_flight_coalesces_misses
FNDA:1,_RNvNtNtCs3ksH6Jg0luU_9kv_engine5cache5testss_44value_cache_concurrent_insert_and_invalidate
FNDA:1,_RNvNtNtCs3ksH6Jg0luU_9kv_engine5cache5testss_45block_cache_entry_count_drifts_after_eviction
FNDA:1,_RNvNtNtCs3ksH6Jg0luU_9kv_engine5cache5testss_46block_cache_try_get_with_single_flight_success
FNDA:1,_RNvNtNtCs3ksH6Jg0luU_9kv_engine5cache5testss_47value_cache_duplicate_key_updates_reverse_index
FNDA:18,_RNvMNtCs3ksH6Jg0luU_9kv_engine5cacheNtB2_10BlockCache11entry_count
FNDA:64,_RNvMNtCs3ksH6Jg0luU_9kv_engine5cacheNtB2_10BlockCache15invalidate_ssts
FNDA:167,_RNvMNtCs3ksH6Jg0luU_9kv_engine5cacheNtB2_10BlockCache3new
FNDA:279,_RNvMNtCs3ksH6Jg0luU_9kv_engine5cacheNtB2_10BlockCache8backfill
FNDA:332,_RNvMs_NtCs3ksH6Jg0luU_9kv_engine5cacheNtB4_10ValueCache12value_weight
FNDA:9,_RNvMs_NtCs3ksH6Jg0luU_9kv_engine5cacheNtB4_10ValueCache15invalidate_file
FNDA:318,_RNvMs_NtCs3ksH6Jg0luU_9kv_engine5cacheNtB4_10ValueCache3get
FNDA:52,_RNvMs_NtCs3ksH6Jg0luU_9kv_engine5cacheNtB4_10ValueCache3new
FNDA:332,_RNvMs_NtCs3ksH6Jg0luU_9kv_engine5cacheNtB4_10ValueCache6insert
FNDA:4,_RNCNCNCNvNtNtCs3ksH6Jg0luU_9kv_engine5cache5testss_41block_cache_try_get_with_concurrent_error000Bb_
FNDA:1,_RNCNCNCNvNtNtCs3ksH6Jg0luU_9kv_engine5cache5testss_42block_cache_single_flight_coalesces_misses000Bb_
FNDA:1,_RNCNCNCNvNtNtCs3ksH6Jg0luU_9kv_engine5cache5testss_46block_cache_try_get_with_single_flight_success000Bb_
FNDA:4,_RNCNCNvNtNtCs3ksH6Jg0luU_9kv_engine5cache5testss_41block_cache_try_get_with_concurrent_error00B9_
FNDA:4,_RNCNCNvNtNtCs3ksH6Jg0luU_9kv_engine5cache5testss_42block_cache_single_flight_coalesces_misses00B9_
FNDA:4,_RNCNCNvNtNtCs3ksH6Jg0luU_9kv_engine5cache5testss_44value_cache_concurrent_insert_and_invalidate00B9_
FNDA:4,_RNCNCNvNtNtCs3ksH6Jg0luU_9kv_engine5cache5testss_46block_cache_try_get_with_single_flight_success00B9_
FNDA:1,_RNCNvNtNtCs3ksH6Jg0luU_9kv_engine5cache5testss_27block_cache_invalidate_ssts0B7_
FNDA:1,_RNCNvNtNtCs3ksH6Jg0luU_9kv_engine5cache5testss_27block_cache_invalidate_sstss0_0B7_
FNDA:1,_RNCNvNtNtCs3ksH6Jg0luU_9kv_engine5cache5testss_27block_cache_invalidate_sstss_0B7_
FNDA:1,_RNCNvNtNtCs3ksH6Jg0luU_9kv_engine5cache5testss_28block_cache_try_get_with_hit0B7_
FNDA:0,_RNCNvNtNtCs3ksH6Jg0luU_9kv_engine5cache5testss_28block_cache_try_get_with_hits_0B7_
FNDA:1,_RNCNvNtNtCs3ksH6Jg0luU_9kv_engine5cache5testss_31block_cache_new_clamps_capacity0B7_
FNDA:3,_RNCNvNtNtCs3ksH6Jg0luU_9kv_engine5cache5testss_35block_cache_backfill_inserts_blocks0B7_
FNDA:1,_RNCNvNtNtCs3ksH6Jg0luU_9kv_engine5cache5testss_38block_cache_different_keys_independent0B7_
FNDA:1,_RNCNvNtNtCs3ksH6Jg0luU_9kv_engine5cache5testss_38block_cache_different_keys_independents0_0B7_
FNDA:1,_RNCNvNtNtCs3ksH6Jg0luU_9kv_engine5cache5testss_38block_cache_different_keys_independents_0B7_
FNDA:1,_RNCNvNtNtCs3ksH6Jg0luU_9kv_engine5cache5testss_38block_cache_get_or_insert_hit_and_miss0B7_
FNDA:0,_RNCNvNtNtCs3ksH6Jg0luU_9kv_engine5cache5testss_38block_cache_get_or_insert_hit_and_misss_0B7_
FNDA:1,_RNCNvNtNtCs3ksH6Jg0luU_9kv_engine5cache5testss_38block_cache_invalidate_unknown_id_noop0B7_
FNDA:4,_RNCNvNtNtCs3ksH6Jg0luU_9kv_engine5cache5testss_41block_cache_try_get_with_concurrent_error0B7_
FNDA:1,_RNCNvNtNtCs3ksH6Jg0luU_9kv_engine5cache5testss_41block_cache_try_get_with_concurrent_errors_0B7_
FNDA:1,_RNCNvNtNtCs3ksH6Jg0luU_9kv_engine5cache5testss_41block_cache_try_get_with_error_propagatess_0B7_
FNDA:4,_RNCNvNtNtCs3ksH6Jg0luU_9kv_engine5cache5testss_42block_cache_single_flight_coalesces_misses0B7_
FNDA:4,_RNCNvNtNtCs3ksH6Jg0luU_9kv_engine5cache5testss_44value_cache_concurrent_insert_and_invalidate0B7_
FNDA:10,_RNCNvNtNtCs3ksH6Jg0luU_9kv_engine5cache5testss_45block_cache_entry_count_drifts_after_eviction0B7_
FNDA:10,_RNCNvNtNtCs3ksH6Jg0luU_9kv_engine5cache5testss_45block_cache_entry_count_drifts_after_evictions_0B7_
FNDA:4,_RNCNvNtNtCs3ksH6Jg0luU_9kv_engine5cache5testss_46block_cache_try_get_with_single_flight_success0B7_
FNF:67
FNH:63
DA:56,167
DA:57,167
DA:58,167
DA:59,167
DA:60,167
DA:61,167
DA:62,167
DA:63,167
DA:64,167
DA:71,24
DA:72,24
DA:73,24
DA:75,24
DA:76,24
DA:77,1
DA:78,23
DA:80,23
DA:81,23
DA:82,23
DA:84,23
DA:86,23
DA:88,3
DA:89,3
DA:90,0
DA:91,3
DA:92,3
DA:93,20
DA:94,20
DA:95,20
DA:96,20
DA:97,20
DA:98,20
DA:99,20
DA:100,20
DA:101,20
DA:103,20
DA:104,20
DA:105,20
DA:106,20
DA:109,20
DA:110,24
DA:120,149991
DA:121,149991
DA:122,149991
DA:124,149991
DA:125,149991
DA:126,120435
DA:127,29556
DA:128,29556
DA:129,29556
DA:130,29556
DA:132,29556
DA:134,29556
DA:135,8
DA:136,8
DA:137,0
DA:138,8
DA:139,8
DA:140,29548
DA:141,29548
DA:142,29543
DA:143,29543
DA:144,29543
DA:145,29543
DA:146,29543
DA:147,29543
DA:148,29543
DA:150,29543
DA:151,29543
DA:152,29543
DA:153,29543
DA:156,29543
DA:157,149991
DA:164,64
DA:165,64
DA:166,64
DA:167,64
DA:168,64
DA:169,126
DA:170,64
DA:172,64
DA:173,22284
DA:174,22284
DA:175,22284
DA:178,64
DA:179,22284
DA:180,22284
DA:181,22284
DA:183,64
DA:184,64
DA:193,18
DA:194,18
DA:195,18
DA:203,279
DA:204,279
DA:205,14
DA:206,265
DA:207,265
DA:210,265
DA:211,26125
DA:212,26125
DA:213,26125
DA:214,26125
DA:215,26125
DA:216,265
DA:217,265
DA:218,265
DA:219,265
DA:220,265
DA:221,265
DA:222,279
DA:251,52
DA:252,52
DA:253,52
DA:254,52
DA:255,52
DA:257,52
DA:258,52
DA:259,52
DA:260,52
DA:261,52
DA:262,52
DA:263,52
DA:269,332
DA:270,332
DA:271,332
DA:272,2
DA:273,330
DA:274,330
DA:275,332
DA:278,318
DA:279,318
DA:280,318
DA:285,332
DA:286,332
DA:287,2
DA:289,330
DA:290,330
DA:291,332
DA:297,9
DA:298,9
DA:299,9
DA:300,9
DA:302,202
DA:303,202
DA:304,202
DA:305,9
DA:314,27
DA:315,27
DA:316,27
DA:317,27
DA:318,27
DA:319,27
DA:326,1
DA:327,1
DA:329,1
DA:330,1
DA:331,1
DA:334,1
DA:335,1
DA:336,1
DA:339,1
DA:340,1
DA:341,1
DA:342,1
DA:343,1
DA:344,1
DA:347,1
DA:348,0
DA:349,0
DA:350,0
DA:351,1
DA:352,1
DA:353,1
DA:356,1
DA:357,1
DA:358,1
DA:359,1
DA:360,1
DA:361,1
DA:362,1
DA:363,1
DA:364,1
DA:365,1
DA:368,1
DA:369,1
DA:370,1
DA:371,1
DA:372,1
DA:375,1
DA:376,1
DA:377,1
DA:380,1
DA:381,1
DA:382,1
DA:383,1
DA:384,1
DA:385,0
DA:389,1
DA:392,1
DA:393,1
DA:394,1
DA:395,1
DA:398,1
DA:399,1
DA:400,1
DA:401,1
DA:402,1
DA:403,1
DA:405,1
DA:406,1
DA:407,1
DA:410,1
DA:411,1
DA:412,1
DA:413,1
DA:414,1
DA:417,1
DA:418,1
DA:419,1
DA:420,1
DA:421,1
DA:422,1
DA:423,1
DA:424,1
DA:427,1
DA:428,1
DA:429,1
DA:430,1
DA:432,1
DA:433,4
DA:434,4
DA:435,4
DA:436,4
DA:437,4
DA:438,4
DA:439,4
DA:440,1
DA:442,1
DA:443,1
DA:444,1
DA:445,4
DA:446,4
DA:447,1
DA:449,4
DA:450,4
DA:451,4
DA:454,1
DA:455,1
DA:456,1
DA:459,1
DA:460,1
DA:461,1
DA:462,1
DA:464,1
DA:465,4
DA:466,4
DA:467,4
DA:468,4
DA:469,4
DA:470,4
DA:471,4
DA:472,4
DA:473,4
DA:474,4
DA:475,4
DA:476,4
DA:477,4
DA:478,1
DA:480,4
DA:481,4
DA:482,4
DA:486,1
DA:488,1
DA:491,1
DA:492,1
DA:493,1
DA:494,1
DA:497,1
DA:498,1
DA:499,1
DA:500,1
DA:502,1
DA:503,4
DA:504,4
DA:505,4
DA:506,4
DA:507,4
DA:508,4
DA:509,4
DA:510,1
DA:511,1
DA:512,1
DA:513,1
DA:514,4
DA:515,4
DA:516,1
DA:518,4
DA:519,4
DA:520,4
DA:523,1
DA:524,1
DA:525,1
DA:528,1
DA:529,1
DA:530,3
DA:532,1
DA:535,1
DA:536,3
DA:537,3
DA:538,3
DA:539,3
DA:543,1
DA:544,1
DA:545,1
DA:548,1
DA:549,1
DA:550,1
DA:551,1
DA:552,1
DA:555,1
DA:557,1
DA:559,10
DA:560,10
DA:564,1
DA:567,1
DA:568,10
DA:569,1
DA:570,1
DA:571,1
DA:574,1
DA:581,1
DA:582,1
DA:583,1
DA:584,1
DA:585,1
DA:586,1
DA:589,1
DA:590,1
DA:592,1
DA:593,1
DA:594,1
DA:597,1
DA:599,1
DA:601,1
DA:602,1
DA:603,1
DA:604,1
DA:607,1
DA:609,1
DA:611,1
DA:612,1
DA:613,1
DA:614,1
DA:617,1
DA:618,1
DA:619,1
DA:620,1
DA:621,1
DA:623,1
DA:624,1
DA:625,1
DA:626,1
DA:627,1
DA:630,1
DA:631,1
DA:632,1
DA:633,1
DA:634,1
DA:635,1
DA:638,1
DA:639,1
DA:640,1
DA:641,1
DA:642,1
DA:645,1
DA:646,1
DA:647,1
DA:650,1
DA:651,1
DA:652,1
DA:654,1
DA:655,4
DA:656,4
DA:657,4
DA:658,4
DA:659,4
DA:661,4
DA:662,200
DA:663,200
DA:664,200
DA:666,4
DA:667,4
DA:668,4
DA:669,1
DA:671,4
DA:672,4
DA:673,4
DA:675,4
DA:676,200
DA:677,200
DA:680,1
BRF:0
BRH:0
LF:436
LH:425
end_of_record
SF:/home/liu/proj/toy-kv-engine/kv-engine/src/compact.rs
FN:264,_RINvMs1_NtCs3ksH6Jg0luU_9kv_engine7compactNtNtB8_11lsm_storage15LsmStorageInner17compact_from_iterINtNtNtB8_9iterators14merge_iterator13MergeIteratorNtNtB1D_15concat_iterator17SstConcatIteratorEEB8_
FN:264,_RINvMs1_NtCs3ksH6Jg0luU_9kv_engine7compactNtNtB8_11lsm_storage15LsmStorageInner17compact_from_iterINtNtNtB8_9iterators18two_merge_iterator16TwoMergeIteratorINtNtB1D_14merge_iterator13MergeIteratorNtNtNtB8_5table8iterator15SsTableIteratorENtNtB1D_15concat_iterator17SstConcatIteratorEEB8_
FN:264,_RINvMs1_NtCs3ksH6Jg0luU_9kv_engine7compactNtNtB8_11lsm_storage15LsmStorageInner17compact_from_iterINtNtNtB8_9iterators18two_merge_iterator16TwoMergeIteratorNtNtB1D_15concat_iterator17SstConcatIteratorB2u_EEB8_
FN:331,_RINvMs1_NtCs3ksH6Jg0luU_9kv_engine7compactNtNtB8_11lsm_storage15LsmStorageInner18compact_from_itersINtNtNtB8_9iterators14merge_iterator13MergeIteratorNtNtNtB8_5table8iterator15SsTableIteratorENtNtB1E_15concat_iterator17SstConcatIteratorEB8_
FN:331,_RINvMs1_NtCs3ksH6Jg0luU_9kv_engine7compactNtNtB8_11lsm_storage15LsmStorageInner18compact_from_itersNtNtNtB8_9iterators15concat_iterator17SstConcatIteratorB1z_EB8_
FN:71,_RNvNtNtCs3ksH6Jg0luU_9kv_engine7compact5testss_28test_compact_to_bottom_level
FN:119,_RNvNtNtCs3ksH6Jg0luU_9kv_engine7compact5testss_30test_is_upper_level_compaction
FN:192,_RNvNtNtCs3ksH6Jg0luU_9kv_engine7compact5testss_38test_compaction_controller_flush_to_l0
FN:564,_RNCNvMs1_NtCs3ksH6Jg0luU_9kv_engine7compactNtNtB9_11lsm_storage15LsmStorageInner18post_compaction_gc0B9_
FN:597,_RNCNvMs1_NtCs3ksH6Jg0luU_9kv_engine7compactNtNtB9_11lsm_storage15LsmStorageInner18post_compaction_gcs_0B9_
FN:800,_RNCNvMs1_NtCs3ksH6Jg0luU_9kv_engine7compactNtNtB9_11lsm_storage15LsmStorageInner18spawn_flush_thread0B9_
FN:638,_RNCNvMs1_NtCs3ksH6Jg0luU_9kv_engine7compactNtNtB9_11lsm_storage15LsmStorageInner18trigger_compaction0B9_
FN:670,_RNCNvMs1_NtCs3ksH6Jg0luU_9kv_engine7compactNtNtB9_11lsm_storage15LsmStorageInner18trigger_compactions_0B9_
FN:496,_RNCNvMs1_NtCs3ksH6Jg0luU_9kv_engine7compactNtNtB9_11lsm_storage15LsmStorageInner21force_full_compaction0B9_
FN:501,_RNCNvMs1_NtCs3ksH6Jg0luU_9kv_engine7compactNtNtB9_11lsm_storage15LsmStorageInner21force_full_compactions0_0B9_
FN:506,_RNCNvMs1_NtCs3ksH6Jg0luU_9kv_engine7compactNtNtB9_11lsm_storage15LsmStorageInner21force_full_compactions1_0B9_
FN:499,_RNCNvMs1_NtCs3ksH6Jg0luU_9kv_engine7compactNtNtB9_11lsm_storage15LsmStorageInner21force_full_compactions_0B9_
FN:769,_RNCNvMs1_NtCs3ksH6Jg0luU_9kv_engine7compactNtNtB9_11lsm_storage15LsmStorageInner23spawn_compaction_thread0B9_
FN:41,_RNvMNtCs3ksH6Jg0luU_9kv_engine7compactNtB2_14CompactionTask23compact_to_bottom_level
FN:53,_RNvMNtCs3ksH6Jg0luU_9kv_engine7compactNtB2_14CompactionTask25is_upper_level_compaction
FN:242,_RNvMs0_NtCs3ksH6Jg0luU_9kv_engine7compactNtB5_20CompactionController11flush_to_l0
FN:220,_RNvMs_NtCs3ksH6Jg0luU_9kv_engine7compactNtB4_20CompactionController23apply_compaction_result
FN:205,_RNvMs_NtCs3ksH6Jg0luU_9kv_engine7compactNtB4_20CompactionController24generate_compaction_task
FN:786,_RNvMs1_NtCs3ksH6Jg0luU_9kv_engine7compactNtNtB7_11lsm_storage15LsmStorageInner13trigger_flush
FN:343,_RNvMs1_NtCs3ksH6Jg0luU_9kv_engine7compactNtNtB7_11lsm_storage15LsmStorageInner18compact_from_l0_l1
FN:554,_RNvMs1_NtCs3ksH6Jg0luU_9kv_engine7compactNtNtB7_11lsm_storage15LsmStorageInner18post_compaction_gc
FN:795,_RNvMs1_NtCs3ksH6Jg0luU_9kv_engine7compactNtNtB7_11lsm_storage15LsmStorageInner18spawn_flush_thread
FN:630,_RNvMs1_NtCs3ksH6Jg0luU_9kv_engine7compactNtNtB7_11lsm_storage15LsmStorageInner18trigger_compaction
FN:452,_RNvMs1_NtCs3ksH6Jg0luU_9kv_engine7compactNtNtB7_11lsm_storage15LsmStorageInner21force_full_compaction
FN:760,_RNvMs1_NtCs3ksH6Jg0luU_9kv_engine7compactNtNtB7_11lsm_storage15LsmStorageInner23spawn_compaction_thread
FN:374,_RNvMs1_NtCs3ksH6Jg0luU_9kv_engine7compactNtNtB7_11lsm_storage15LsmStorageInner7compact
FNDA:0,_RINvMs1_NtCs3ksH6Jg0luU_9kv_engine7compactNtNtB8_11lsm_storage15LsmStorageInner17compact_from_iterINtNtNtB8_9iterators14merge_iterator13MergeIteratorNtNtB1D_15concat_iterator17SstConcatIteratorEEB8_
FNDA:27,_RINvMs1_NtCs3ksH6Jg0luU_9kv_engine7compactNtNtB8_11lsm_storage15LsmStorageInner17compact_from_iterINtNtNtB8_9iterators18two_merge_iterator16TwoMergeIteratorINtNtB1D_14merge_iterator13MergeIteratorNtNtNtB8_5table8iterator15SsTableIteratorENtNtB1D_15concat_iterator17SstConcatIteratorEEB8_
FNDA:41,_RINvMs1_NtCs3ksH6Jg0luU_9kv_engine7compactNtNtB8_11lsm_storage15LsmStorageInner17compact_from_iterINtNtNtB8_9iterators18two_merge_iterator16TwoMergeIteratorNtNtB1D_15concat_iterator17SstConcatIteratorB2u_EEB8_
FNDA:27,_RINvMs1_NtCs3ksH6Jg0luU_9kv_engine7compactNtNtB8_11lsm_storage15LsmStorageInner18compact_from_itersINtNtNtB8_9iterators14merge_iterator13MergeIteratorNtNtNtB8_5table8iterator15SsTableIteratorENtNtB1E_15concat_iterator17SstConcatIteratorEB8_
FNDA:41,_RINvMs1_NtCs3ksH6Jg0luU_9kv_engine7compactNtNtB8_11lsm_storage15LsmStorageInner18compact_from_itersNtNtNtB8_9iterators15concat_iterator17SstConcatIteratorB1z_EB8_
FNDA:1,_RNvNtNtCs3ksH6Jg0luU_9kv_engine7compact5testss_28test_compact_to_bottom_level
FNDA:1,_RNvNtNtCs3ksH6Jg0luU_9kv_engine7compact5testss_30test_is_upper_level_compaction
FNDA:1,_RNvNtNtCs3ksH6Jg0luU_9kv_engine7compact5testss_38test_compaction_controller_flush_to_l0
FNDA:9,_RNCNvMs1_NtCs3ksH6Jg0luU_9kv_engine7compactNtNtB9_11lsm_storage15LsmStorageInner18post_compaction_gc0B9_
FNDA:0,_RNCNvMs1_NtCs3ksH6Jg0luU_9kv_engine7compactNtNtB9_11lsm_storage15LsmStorageInner18post_compaction_gcs_0B9_
FNDA:130,_RNCNvMs1_NtCs3ksH6Jg0luU_9kv_engine7compactNtNtB9_11lsm_storage15LsmStorageInner18spawn_flush_thread0B9_
FNDA:86,_RNCNvMs1_NtCs3ksH6Jg0luU_9kv_engine7compactNtNtB9_11lsm_storage15LsmStorageInner18trigger_compaction0B9_
FNDA:0,_RNCNvMs1_NtCs3ksH6Jg0luU_9kv_engine7compactNtNtB9_11lsm_storage15LsmStorageInner18trigger_compactions_0B9_
FNDA:35,_RNCNvMs1_NtCs3ksH6Jg0luU_9kv_engine7compactNtNtB9_11lsm_storage15LsmStorageInner21force_full_compaction0B9_
FNDA:15,_RNCNvMs1_NtCs3ksH6Jg0luU_9kv_engine7compactNtNtB9_11lsm_storage15LsmStorageInner21force_full_compactions0_0B9_
FNDA:33,_RNCNvMs1_NtCs3ksH6Jg0luU_9kv_engine7compactNtNtB9_11lsm_storage15LsmStorageInner21force_full_compactions1_0B9_
FNDA:15,_RNCNvMs1_NtCs3ksH6Jg0luU_9kv_engine7compactNtNtB9_11lsm_storage15LsmStorageInner21force_full_compactions_0B9_
FNDA:25,_RNCNvMs1_NtCs3ksH6Jg0luU_9kv_engine7compactNtNtB9_11lsm_storage15LsmStorageInner23spawn_compaction_thread0B9_
FNDA:74,_RNvMNtCs3ksH6Jg0luU_9kv_engine7compactNtB2_14CompactionTask23compact_to_bottom_level
FNDA:76,_RNvMNtCs3ksH6Jg0luU_9kv_engine7compactNtB2_14CompactionTask25is_upper_level_compaction
FNDA:287,_RNvMs0_NtCs3ksH6Jg0luU_9kv_engine7compactNtB5_20CompactionController11flush_to_l0
FNDA:46,_RNvMs_NtCs3ksH6Jg0luU_9kv_engine7compactNtB4_20CompactionController23apply_compaction_result
FNDA:606,_RNvMs_NtCs3ksH6Jg0luU_9kv_engine7compactNtB4_20CompactionController24generate_compaction_task
FNDA:992,_RNvMs1_NtCs3ksH6Jg0luU_9kv_engine7compactNtNtB7_11lsm_storage15LsmStorageInner13trigger_flush
FNDA:27,_RNvMs1_NtCs3ksH6Jg0luU_9kv_engine7compactNtNtB7_11lsm_storage15LsmStorageInner18compact_from_l0_l1
FNDA:9,_RNvMs1_NtCs3ksH6Jg0luU_9kv_engine7compactNtNtB7_11lsm_storage15LsmStorageInner18post_compaction_gc
FNDA:130,_RNvMs1_NtCs3ksH6Jg0luU_9kv_engine7compactNtNtB7_11lsm_storage15LsmStorageInner18spawn_flush_thread
FNDA:606,_RNvMs1_NtCs3ksH6Jg0luU_9kv_engine7compactNtNtB7_11lsm_storage15LsmStorageInner18trigger_compaction
FNDA:16,_RNvMs1_NtCs3ksH6Jg0luU_9kv_engine7compactNtNtB7_11lsm_storage15LsmStorageInner21force_full_compaction
FNDA:130,_RNvMs1_NtCs3ksH6Jg0luU_9kv_engine7compactNtNtB7_11lsm_storage15LsmStorageInner23spawn_compaction_thread
FNDA:68,_RNvMs1_NtCs3ksH6Jg0luU_9kv_engine7compactNtNtB7_11lsm_storage15LsmStorageInner7compact
FNF:28
FNH:26
DA:41,74
DA:42,74
DA:43,17
DA:44,49
DA:45,6
DA:46,2
DA:48,74
DA:53,76
DA:54,76
DA:55,17
DA:56,50
DA:57,7
DA:61,2
DA:63,76
DA:71,1
DA:72,1
DA:73,1
DA:74,1
DA:75,1
DA:76,1
DA:78,1
DA:79,1
DA:80,1
DA:81,1
DA:82,1
DA:83,1
DA:84,1
DA:85,1
DA:87,1
DA:88,1
DA:89,1
DA:90,1
DA:91,1
DA:92,1
DA:93,1
DA:94,1
DA:96,1
DA:97,1
DA:98,1
DA:99,1
DA:100,1
DA:101,1
DA:102,1
DA:103,1
DA:105,1
DA:106,1
DA:107,1
DA:108,1
DA:109,1
DA:111,1
DA:112,1
DA:113,1
DA:114,1
DA:115,1
DA:116,1
DA:119,1
DA:120,1
DA:121,1
DA:122,1
DA:123,1
DA:124,1
DA:127,1
DA:128,1
DA:129,1
DA:130,1
DA:131,1
DA:132,1
DA:133,1
DA:134,1
DA:137,1
DA:138,1
DA:139,1
DA:140,1
DA:141,1
DA:142,1
DA:143,1
DA:144,1
DA:147,1
DA:148,1
DA:149,1
DA:150,1
DA:151,1
DA:152,1
DA:153,1
DA:154,1
DA:157,1
DA:158,1
DA:159,1
DA:160,1
DA:161,1
DA:162,1
DA:163,1
DA:164,1
DA:167,1
DA:168,1
DA:169,1
DA:170,1
DA:171,1
DA:172,1
DA:173,1
DA:174,1
DA:177,1
DA:178,1
DA:179,1
DA:180,1
DA:181,1
DA:184,1
DA:185,1
DA:186,1
DA:187,1
DA:188,1
DA:189,1
DA:192,1
DA:193,1
DA:194,1
DA:205,606
DA:206,606
DA:207,559
DA:208,559
DA:209,559
DA:210,47
DA:211,47
DA:212,47
DA:213,0
DA:214,0
DA:215,0
DA:216,0
DA:218,606
DA:220,46
DA:221,46
DA:222,46
DA:223,46
DA:224,46
DA:225,46
DA:226,46
DA:227,42
DA:228,42
DA:230,4
DA:231,4
DA:233,0
DA:234,0
DA:236,0
DA:238,46
DA:242,287
DA:243,44
DA:244,287
DA:247,287
DA:264,68
DA:265,68
DA:266,68
DA:267,68
DA:268,68
DA:269,68
DA:274,68
DA:275,68
DA:276,68
DA:277,68
DA:278,68
DA:280,660761
DA:281,660694
DA:282,47
DA:283,47
DA:284,47
DA:285,47
DA:286,47
DA:287,47
DA:288,1
DA:289,46
DA:290,46
DA:291,46
DA:292,46
DA:293,46
DA:294,46
DA:295,660647
DA:298,660693
DA:299,660693
DA:306,660693
DA:307,660693
DA:308,0
DA:309,660693
DA:312,67
DA:313,66
DA:314,66
DA:315,66
DA:316,66
DA:317,66
DA:318,66
DA:319,5
DA:320,61
DA:321,22
DA:322,39
DA:323,61
DA:324,1
DA:326,62
DA:327,62
DA:328,62
DA:329,68
DA:331,68
DA:332,68
DA:333,68
DA:334,68
DA:335,68
DA:336,68
DA:337,68
DA:338,68
DA:340,68
DA:341,68
DA:343,27
DA:344,27
DA:345,27
DA:346,27
DA:347,27
DA:348,27
DA:349,27
DA:350,27
DA:351,27
DA:352,66
DA:353,66
DA:354,66
DA:355,66
DA:357,27
DA:359,27
DA:360,27
DA:361,23
DA:362,23
DA:363,23
DA:364,27
DA:366,27
DA:367,27
DA:368,27
DA:369,27
DA:370,27
DA:372,27
DA:374,68
DA:375,68
DA:376,68
DA:378,5
DA:379,5
DA:381,5
DA:385,47
DA:386,47
DA:388,47
DA:391,52
DA:392,11
DA:393,11
DA:394,11
DA:395,11
DA:396,11
DA:399,41
DA:400,53
DA:401,53
DA:402,53
DA:403,53
DA:404,41
DA:406,41
DA:407,41
DA:408,0
DA:409,0
DA:410,0
DA:411,41
DA:413,41
DA:414,41
DA:415,41
DA:416,41
DA:417,41
DA:422,16
DA:423,16
DA:424,16
DA:425,16
DA:426,16
DA:427,16
DA:428,16
DA:430,0
DA:431,0
DA:432,0
DA:433,0
DA:434,0
DA:435,0
DA:436,0
DA:437,0
DA:438,0
DA:439,0
DA:440,0
DA:442,0
DA:443,0
DA:444,0
DA:445,0
DA:446,0
DA:450,68
DA:452,16
DA:453,16
DA:454,16
DA:455,16
DA:456,16
DA:457,16
DA:458,16
DA:460,16
DA:463,16
DA:464,9
DA:465,19
DA:466,19
DA:467,19
DA:468,19
DA:470,9
DA:471,9
DA:472,9
DA:474,7
DA:478,16
DA:479,16
DA:482,16
DA:483,19
DA:484,19
DA:485,19
DA:487,9
DA:488,9
DA:489,9
DA:490,7
DA:492,16
DA:493,16
DA:494,16
DA:495,16
DA:496,35
DA:497,35
DA:498,35
DA:499,16
DA:500,16
DA:501,16
DA:502,15
DA:503,15
DA:504,16
DA:506,33
DA:508,16
DA:510,16
DA:512,16
DA:513,9
DA:515,7
DA:517,16
DA:518,16
DA:519,16
DA:520,16
DA:521,16
DA:524,16
DA:525,16
DA:526,16
DA:527,16
DA:528,16
DA:529,16
DA:530,35
DA:531,35
DA:534,35
DA:535,35
DA:536,0
DA:537,0
DA:541,16
DA:544,16
DA:545,9
DA:546,9
DA:548,16
DA:549,16
DA:554,9
DA:555,9
DA:556,9
DA:557,9
DA:558,9
DA:560,9
DA:561,9
DA:563,9
DA:564,9
DA:565,19
DA:568,19
DA:569,2
DA:571,17
DA:572,17
DA:573,7
DA:574,7
DA:575,7
DA:576,7
DA:577,7
DA:578,7
DA:579,7
DA:580,7
DA:581,7
DA:582,7
DA:583,7
DA:585,8
DA:586,2
DA:587,2
DA:588,2
DA:591,9
DA:592,0
DA:593,9
DA:594,9
DA:596,9
DA:597,9
DA:598,9
DA:599,9
DA:603,0
DA:604,0
DA:605,0
DA:606,0
DA:607,0
DA:608,0
DA:609,0
DA:610,0
DA:611,0
DA:612,0
DA:613,0
DA:614,0
DA:615,0
DA:616,0
DA:618,0
DA:619,0
DA:620,0
DA:621,0
DA:624,0
DA:625,0
DA:626,0
DA:628,9
DA:630,606
DA:631,606
DA:632,606
DA:633,606
DA:634,606
DA:635,554
DA:637,52
DA:638,86
DA:641,46
DA:643,0
DA:644,0
DA:645,0
DA:646,0
DA:647,0
DA:648,0
DA:649,0
DA:651,42
DA:652,42
DA:654,42
DA:655,42
DA:656,42
DA:657,42
DA:658,42
DA:660,4
DA:661,4
DA:663,4
DA:664,4
DA:665,4
DA:666,4
DA:667,4
DA:668,0
DA:669,0
DA:670,0
DA:671,0
DA:675,46
DA:676,0
DA:677,0
DA:678,0
DA:679,0
DA:680,0
DA:682,0
DA:683,0
DA:684,0
DA:686,46
DA:689,46
DA:690,46
DA:691,46
DA:693,86
DA:694,86
DA:695,86
DA:696,46
DA:697,46
DA:698,46
DA:701,46
DA:702,0
DA:703,0
DA:704,0
DA:706,0
DA:707,0
DA:708,0
DA:709,46
DA:711,46
DA:713,46
DA:714,89
DA:715,89
DA:716,89
DA:717,46
DA:718,46
DA:719,46
DA:721,46
DA:723,46
DA:724,46
DA:725,0
DA:727,46
DA:729,46
DA:730,46
DA:731,46
DA:732,46
DA:733,46
DA:735,46
DA:738,46
DA:739,89
DA:740,89
DA:743,89
DA:744,89
DA:745,0
DA:746,0
DA:750,46
DA:753,46
DA:754,0
DA:755,46
DA:757,46
DA:758,606
DA:760,130
DA:761,130
DA:762,130
DA:763,130
DA:766,130
DA:768,25
DA:769,25
DA:770,25
DA:772,631
DA:773,631
DA:774,6
DA:775,600
DA:776,631
DA:779,25
DA:780,25
DA:781,105
DA:783,105
DA:784,130
DA:786,992
DA:787,992
DA:788,992
DA:789,25
DA:790,967
DA:792,992
DA:793,992
DA:795,130
DA:796,130
DA:797,130
DA:798,130
DA:799,130
DA:800,130
DA:801,130
DA:803,1122
DA:804,1122
DA:805,0
DA:806,992
DA:807,1122
DA:810,130
DA:812,130
DA:813,130
BRF:0
BRH:0
LF:561
LH:477
end_of_record
SF:/home/liu/proj/toy-kv-engine/kv-engine/src/compact/leveled.rs
FN:40,_RNCNvMNtNtCs3ksH6Jg0luU_9kv_engine7compact7leveledNtB4_27LeveledCompactionController21find_overlapping_ssts0B8_
FN:47,_RNCNvMNtNtCs3ksH6Jg0luU_9kv_engine7compact7leveledNtB4_27LeveledCompactionController21find_overlapping_sstss_0B8_
FN:149,_RNCNvMNtNtCs3ksH6Jg0luU_9kv_engine7compact7leveledNtB4_27LeveledCompactionController23apply_compaction_result0B8_
FN:156,_RNCNvMNtNtCs3ksH6Jg0luU_9kv_engine7compact7leveledNtB4_27LeveledCompactionController23apply_compaction_results0_0B8_
FN:160,_RNCNvMNtNtCs3ksH6Jg0luU_9kv_engine7compact7leveledNtB4_27LeveledCompactionController23apply_compaction_results1_0B8_
FN:152,_RNCNvMNtNtCs3ksH6Jg0luU_9kv_engine7compact7leveledNtB4_27LeveledCompactionController23apply_compaction_results_0B8_
FN:74,_RNCNvMNtNtCs3ksH6Jg0luU_9kv_engine7compact7leveledNtB4_27LeveledCompactionController24generate_compaction_task0B8_
FN:109,_RNCNvMNtNtCs3ksH6Jg0luU_9kv_engine7compact7leveledNtB4_27LeveledCompactionController24generate_compaction_tasks_0B8_
FN:32,_RNvMNtNtCs3ksH6Jg0luU_9kv_engine7compact7leveledNtB2_27LeveledCompactionController21find_overlapping_ssts
FN:136,_RNvMNtNtCs3ksH6Jg0luU_9kv_engine7compact7leveledNtB2_27LeveledCompactionController23apply_compaction_result
FN:64,_RNvMNtNtCs3ksH6Jg0luU_9kv_engine7compact7leveledNtB2_27LeveledCompactionController24generate_compaction_task
FN:28,_RNvMNtNtCs3ksH6Jg0luU_9kv_engine7compact7leveledNtB2_27LeveledCompactionController3new
FNDA:60,_RNCNvMNtNtCs3ksH6Jg0luU_9kv_engine7compact7leveledNtB4_27LeveledCompactionController21find_overlapping_ssts0B8_
FNDA:60,_RNCNvMNtNtCs3ksH6Jg0luU_9kv_engine7compact7leveledNtB4_27LeveledCompactionController21find_overlapping_sstss_0B8_
FNDA:35,_RNCNvMNtNtCs3ksH6Jg0luU_9kv_engine7compact7leveledNtB4_27LeveledCompactionController23apply_compaction_result0B8_
FNDA:203,_RNCNvMNtNtCs3ksH6Jg0luU_9kv_engine7compact7leveledNtB4_27LeveledCompactionController23apply_compaction_results0_0B8_
FNDA:426,_RNCNvMNtNtCs3ksH6Jg0luU_9kv_engine7compact7leveledNtB4_27LeveledCompactionController23apply_compaction_results1_0B8_
FNDA:263,_RNCNvMNtNtCs3ksH6Jg0luU_9kv_engine7compact7leveledNtB4_27LeveledCompactionController23apply_compaction_results_0B8_
FNDA:3834,_RNCNvMNtNtCs3ksH6Jg0luU_9kv_engine7compact7leveledNtB4_27LeveledCompactionController24generate_compaction_task0B8_
FNDA:5951,_RNCNvMNtNtCs3ksH6Jg0luU_9kv_engine7compact7leveledNtB4_27LeveledCompactionController24generate_compaction_tasks_0B8_
FNDA:47,_RNvMNtNtCs3ksH6Jg0luU_9kv_engine7compact7leveledNtB2_27LeveledCompactionController21find_overlapping_ssts
FNDA:42,_RNvMNtNtCs3ksH6Jg0luU_9kv_engine7compact7leveledNtB2_27LeveledCompactionController23apply_compaction_result
FNDA:559,_RNvMNtNtCs3ksH6Jg0luU_9kv_engine7compact7leveledNtB2_27LeveledCompactionController24generate_compaction_task
FNDA:16,_RNvMNtNtCs3ksH6Jg0luU_9kv_engine7compact7leveledNtB2_27LeveledCompactionController3new
FNF:12
FNH:12
DA:28,16
DA:29,16
DA:30,16
DA:32,47
DA:33,47
DA:34,47
DA:35,47
DA:36,47
DA:37,47
DA:38,47
DA:39,47
DA:40,60
DA:41,47
DA:43,0
DA:45,47
DA:46,47
DA:47,60
DA:48,47
DA:50,0
DA:53,47
DA:54,203
DA:55,203
DA:56,203
DA:57,4
DA:58,199
DA:61,47
DA:62,47
DA:64,559
DA:65,559
DA:66,559
DA:67,559
DA:69,559
DA:70,559
DA:71,559
DA:72,559
DA:73,559
DA:74,3834
DA:75,559
DA:76,1617
DA:77,1617
DA:78,1286
DA:79,1286
DA:82,559
DA:83,7
DA:84,24
DA:85,24
DA:86,0
DA:87,0
DA:88,24
DA:91,7
DA:92,7
DA:93,7
DA:94,7
DA:95,7
DA:96,7
DA:97,7
DA:98,7
DA:99,7
DA:100,552
DA:103,552
DA:104,2152
DA:105,2152
DA:106,2152
DA:107,2152
DA:108,2152
DA:109,5951
DA:110,2152
DA:111,2152
DA:112,884
DA:113,1268
DA:115,552
DA:116,512
DA:117,40
DA:119,40
DA:121,40
DA:123,40
DA:124,40
DA:125,40
DA:126,40
DA:127,40
DA:128,40
DA:129,40
DA:130,40
DA:131,40
DA:132,40
DA:133,40
DA:134,559
DA:136,42
DA:137,42
DA:138,42
DA:139,42
DA:140,42
DA:141,42
DA:142,42
DA:143,42
DA:145,42
DA:147,7
DA:148,7
DA:149,35
DA:150,35
DA:151,35
DA:152,263
DA:154,42
DA:155,42
DA:156,203
DA:157,42
DA:158,42
DA:159,42
DA:160,426
DA:162,42
DA:163,42
DA:164,42
DA:165,42
DA:167,42
DA:168,42
BRF:0
BRH:0
LF:123
LH:119
end_of_record
SF:/home/liu/proj/toy-kv-engine/kv-engine/src/compact/simple_leveled.rs
FN:92,_RNCNvMNtNtCs3ksH6Jg0luU_9kv_engine7compact14simple_leveledNtB4_33SimpleLeveledCompactionController23apply_compaction_result0B8_
FN:80,_RNvMNtNtCs3ksH6Jg0luU_9kv_engine7compact14simple_leveledNtB2_33SimpleLeveledCompactionController23apply_compaction_result
FN:35,_RNvMNtNtCs3ksH6Jg0luU_9kv_engine7compact14simple_leveledNtB2_33SimpleLeveledCompactionController24generate_compaction_task
FN:27,_RNvMNtNtCs3ksH6Jg0luU_9kv_engine7compact14simple_leveledNtB2_33SimpleLeveledCompactionController3new
FNDA:24,_RNCNvMNtNtCs3ksH6Jg0luU_9kv_engine7compact14simple_leveledNtB4_33SimpleLeveledCompactionController23apply_compaction_result0B8_
FNDA:4,_RNvMNtNtCs3ksH6Jg0luU_9kv_engine7compact14simple_leveledNtB2_33SimpleLeveledCompactionController23apply_compaction_result
FNDA:47,_RNvMNtNtCs3ksH6Jg0luU_9kv_engine7compact14simple_leveledNtB2_33SimpleLeveledCompactionController24generate_compaction_task
FNDA:5,_RNvMNtNtCs3ksH6Jg0luU_9kv_engine7compact14simple_leveledNtB2_33SimpleLeveledCompactionController3new
FNF:4
FNH:4
DA:27,5
DA:28,5
DA:29,5
DA:35,47
DA:36,47
DA:37,47
DA:38,47
DA:39,47
DA:40,4
DA:41,4
DA:42,4
DA:43,4
DA:44,4
DA:45,4
DA:46,4
DA:47,43
DA:49,85
DA:50,85
DA:51,85
DA:52,85
DA:53,85
DA:54,1
DA:58,1
DA:59,1
DA:60,1
DA:61,1
DA:62,1
DA:63,1
DA:64,1
DA:65,84
DA:68,42
DA:69,47
DA:80,4
DA:81,4
DA:82,4
DA:83,4
DA:84,4
DA:85,4
DA:86,4
DA:88,4
DA:90,4
DA:91,4
DA:92,24
DA:93,0
DA:95,4
DA:97,4
DA:98,4
DA:99,4
DA:100,4
DA:102,4
DA:103,4
BRF:0
BRH:0
LF:52
LH:51
end_of_record
SF:/home/liu/proj/toy-kv-engine/kv-engine/src/compact/tiered.rs
FN:80,_RNvMNtNtCs3ksH6Jg0luU_9kv_engine7compact6tieredNtB2_26TieredCompactionController23apply_compaction_result
FN:31,_RNvMNtNtCs3ksH6Jg0luU_9kv_engine7compact6tieredNtB2_26TieredCompactionController24generate_compaction_task
FN:27,_RNvMNtNtCs3ksH6Jg0luU_9kv_engine7compact6tieredNtB2_26TieredCompactionController3new
FN:94,_RNCNvMNtNtCs3ksH6Jg0luU_9kv_engine7compact6tieredNtB4_26TieredCompactionController23apply_compaction_result0B8_
FNDA:3,_RNvMNtNtCs3ksH6Jg0luU_9kv_engine7compact6tieredNtB2_26TieredCompactionController23apply_compaction_result
FNDA:5,_RNvMNtNtCs3ksH6Jg0luU_9kv_engine7compact6tieredNtB2_26TieredCompactionController24generate_compaction_task
FNDA:12,_RNvMNtNtCs3ksH6Jg0luU_9kv_engine7compact6tieredNtB2_26TieredCompactionController3new
FNDA:7,_RNCNvMNtNtCs3ksH6Jg0luU_9kv_engine7compact6tieredNtB4_26TieredCompactionController23apply_compaction_result0B8_
FNF:4
FNH:4
DA:27,12
DA:28,12
DA:29,12
DA:31,5
DA:32,5
DA:33,5
DA:34,5
DA:36,5
DA:37,1
DA:38,4
DA:41,4
DA:42,11
DA:43,11
DA:44,11
DA:45,4
DA:47,4
DA:48,4
DA:50,1
DA:51,1
DA:52,1
DA:53,1
DA:54,3
DA:57,3
DA:58,7
DA:59,7
DA:60,7
DA:62,7
DA:63,7
DA:65,1
DA:66,1
DA:67,1
DA:68,1
DA:69,6
DA:72,2
DA:74,2
DA:75,2
DA:76,2
DA:77,2
DA:78,5
DA:80,3
DA:81,3
DA:82,3
DA:83,3
DA:84,3
DA:85,3
DA:86,3
DA:87,3
DA:90,3
DA:91,3
DA:92,3
DA:93,3
DA:94,7
DA:95,3
DA:96,3
DA:97,3
DA:98,3
DA:100,10
DA:102,10
DA:104,7
DA:105,7
DA:106,3
DA:107,3
DA:108,3
DA:109,3
DA:110,10
DA:111,3
DA:112,3
DA:113,3
DA:114,3
DA:115,3
DA:116,7
DA:118,3
DA:119,0
DA:120,3
DA:121,3
DA:123,3
DA:124,3
BRF:0
BRH:0
LF:78
LH:77
end_of_record
SF:/home/liu/proj/toy-kv-engine/kv-engine/src/debug.rs
FN:4,_RNvMNtCs3ksH6Jg0luU_9kv_engine5debugNtNtB4_11lsm_storage15LsmStorageInner14dump_structure
FN:20,_RNvMs_NtCs3ksH6Jg0luU_9kv_engine5debugNtNtB6_11lsm_storage8KvEngine14dump_structure
FNDA:8,_RNvMNtCs3ksH6Jg0luU_9kv_engine5debugNtNtB4_11lsm_storage15LsmStorageInner14dump_structure
FNDA:8,_RNvMs_NtCs3ksH6Jg0luU_9kv_engine5debugNtNtB6_11lsm_storage8KvEngine14dump_structure
FNF:2
FNH:2
DA:4,8
DA:5,8
DA:6,8
DA:7,3
DA:8,3
DA:9,3
DA:10,3
DA:11,3
DA:12,5
DA:13,41
DA:14,41
DA:15,41
DA:16,8
DA:20,8
DA:21,8
DA:22,8
BRF:0
BRH:0
LF:16
LH:16
end_of_record
SF:/home/liu/proj/toy-kv-engine/kv-engine/src/iterators.rs
FN:29,_RNvYNtNtNtCs3ksH6Jg0luU_9kv_engine5tests7harness12MockIteratorNtNtB8_9iterators15StorageIterator20num_active_iteratorsB8_
FN:24,_RNvYNtNtNtCs3ksH6Jg0luU_9kv_engine5tests7harness12MockIteratorNtNtB8_9iterators15StorageIterator9raw_valueB8_
FNDA:1,_RNvYNtNtNtCs3ksH6Jg0luU_9kv_engine5tests7harness12MockIteratorNtNtB8_9iterators15StorageIterator20num_active_iteratorsB8_
FNDA:1,_RNvYNtNtNtCs3ksH6Jg0luU_9kv_engine5tests7harness12MockIteratorNtNtB8_9iterators15StorageIterator9raw_valueB8_
FNF:2
FNH:2
DA:24,1
DA:25,1
DA:26,1
DA:29,1
DA:30,1
DA:31,1
BRF:0
BRH:0
LF:6
LH:6
end_of_record
SF:/home/liu/proj/toy-kv-engine/kv-engine/src/iterators/concat_iterator.rs
FN:184,_RNvXs_NtNtCs3ksH6Jg0luU_9kv_engine9iterators15concat_iteratorNtB4_17SstConcatIteratorNtB6_15StorageIterator20num_active_iterators
FN:60,_RNvMNtNtCs3ksH6Jg0luU_9kv_engine9iterators15concat_iteratorNtB2_17SstConcatIterator22create_and_seek_to_key
FN:22,_RNvMNtNtCs3ksH6Jg0luU_9kv_engine9iterators15concat_iteratorNtB2_17SstConcatIterator24create_and_seek_to_first
FN:72,_RNvMNtNtCs3ksH6Jg0luU_9kv_engine9iterators15concat_iteratorNtB2_17SstConcatIterator28create_and_seek_to_key_inner
FN:33,_RNvMNtNtCs3ksH6Jg0luU_9kv_engine9iterators15concat_iteratorNtB2_17SstConcatIterator30create_and_seek_to_first_inner
FN:64,_RNvMNtNtCs3ksH6Jg0luU_9kv_engine9iterators15concat_iteratorNtB2_17SstConcatIterator32create_and_seek_to_key_with_vlog
FN:26,_RNvMNtNtCs3ksH6Jg0luU_9kv_engine9iterators15concat_iteratorNtB2_17SstConcatIterator34create_and_seek_to_first_with_vlog
FN:136,_RNvXs_NtNtCs3ksH6Jg0luU_9kv_engine9iterators15concat_iteratorNtB4_17SstConcatIteratorNtB6_15StorageIterator3key
FN:156,_RNvXs_NtNtCs3ksH6Jg0luU_9kv_engine9iterators15concat_iteratorNtB4_17SstConcatIteratorNtB6_15StorageIterator4next
FN:144,_RNvXs_NtNtCs3ksH6Jg0luU_9kv_engine9iterators15concat_iteratorNtB4_17SstConcatIteratorNtB6_15StorageIterator5value
FN:152,_RNvXs_NtNtCs3ksH6Jg0luU_9kv_engine9iterators15concat_iteratorNtB4_17SstConcatIteratorNtB6_15StorageIterator8is_valid
FN:188,_RNvXs_NtNtCs3ksH6Jg0luU_9kv_engine9iterators15concat_iteratorNtB4_17SstConcatIteratorNtB6_15StorageIterator9raw_value
FNDA:0,_RNvXs_NtNtCs3ksH6Jg0luU_9kv_engine9iterators15concat_iteratorNtB4_17SstConcatIteratorNtB6_15StorageIterator20num_active_iterators
FNDA:131,_RNvMNtNtCs3ksH6Jg0luU_9kv_engine9iterators15concat_iteratorNtB2_17SstConcatIterator22create_and_seek_to_key
FNDA:147,_RNvMNtNtCs3ksH6Jg0luU_9kv_engine9iterators15concat_iteratorNtB2_17SstConcatIterator24create_and_seek_to_first
FNDA:131,_RNvMNtNtCs3ksH6Jg0luU_9kv_engine9iterators15concat_iteratorNtB2_17SstConcatIterator28create_and_seek_to_key_inner
FNDA:153,_RNvMNtNtCs3ksH6Jg0luU_9kv_engine9iterators15concat_iteratorNtB2_17SstConcatIterator30create_and_seek_to_first_inner
FNDA:0,_RNvMNtNtCs3ksH6Jg0luU_9kv_engine9iterators15concat_iteratorNtB2_17SstConcatIterator32create_and_seek_to_key_with_vlog
FNDA:6,_RNvMNtNtCs3ksH6Jg0luU_9kv_engine9iterators15concat_iteratorNtB2_17SstConcatIterator34create_and_seek_to_first_with_vlog
FNDA:1954167,_RNvXs_NtNtCs3ksH6Jg0luU_9kv_engine9iterators15concat_iteratorNtB4_17SstConcatIteratorNtB6_15StorageIterator3key
FNDA:658328,_RNvXs_NtNtCs3ksH6Jg0luU_9kv_engine9iterators15concat_iteratorNtB4_17SstConcatIteratorNtB6_15StorageIterator4next
FNDA:218200,_RNvXs_NtNtCs3ksH6Jg0luU_9kv_engine9iterators15concat_iteratorNtB4_17SstConcatIteratorNtB6_15StorageIterator5value
FNDA:3451758,_RNvXs_NtNtCs3ksH6Jg0luU_9kv_engine9iterators15concat_iteratorNtB4_17SstConcatIteratorNtB6_15StorageIterator8is_valid
FNDA:918430,_RNvXs_NtNtCs3ksH6Jg0luU_9kv_engine9iterators15concat_iteratorNtB4_17SstConcatIteratorNtB6_15StorageIterator9raw_value
FNF:12
FNH:10
DA:22,147
DA:23,147
DA:24,147
DA:26,6
DA:27,6
DA:28,6
DA:29,6
DA:30,6
DA:31,6
DA:33,153
DA:34,153
DA:35,153
DA:36,153
DA:37,153
DA:38,96
DA:39,96
DA:40,96
DA:41,96
DA:42,96
DA:43,96
DA:44,57
DA:46,57
DA:47,57
DA:48,1
DA:49,56
DA:50,57
DA:51,57
DA:52,57
DA:53,57
DA:54,57
DA:55,57
DA:57,57
DA:58,153
DA:60,131
DA:61,131
DA:62,131
DA:64,0
DA:65,0
DA:66,0
DA:67,0
DA:68,0
DA:69,0
DA:70,0
DA:72,131
DA:73,131
DA:74,131
DA:75,131
DA:76,131
DA:77,131
DA:78,11
DA:79,11
DA:80,11
DA:81,11
DA:82,11
DA:83,11
DA:84,120
DA:85,120
DA:86,10
DA:87,10
DA:88,10
DA:89,10
DA:90,10
DA:91,10
DA:92,110
DA:94,110
DA:95,110
DA:96,320
DA:97,320
DA:98,320
DA:99,320
DA:100,100
DA:101,100
DA:102,220
DA:103,220
DA:104,100
DA:105,10
DA:106,10
DA:107,90
DA:108,90
DA:109,120
DA:110,120
DA:111,0
DA:112,0
DA:113,120
DA:114,120
DA:115,0
DA:118,110
DA:119,110
DA:120,0
DA:121,110
DA:122,110
DA:123,110
DA:124,110
DA:125,110
DA:126,110
DA:127,110
DA:129,110
DA:130,131
DA:136,1954167
DA:141,1954167
DA:142,1954167
DA:144,218200
DA:149,218200
DA:150,218200
DA:152,3451758
DA:153,3451758
DA:154,3451758
DA:156,658328
DA:161,658328
DA:163,658426
DA:164,658374
DA:165,658276
DA:166,98
DA:167,98
DA:168,46
DA:169,46
DA:170,0
DA:171,46
DA:172,0
DA:173,46
DA:174,46
DA:175,46
DA:176,52
DA:177,52
DA:178,52
DA:181,658328
DA:182,658328
DA:184,0
DA:185,0
DA:186,0
DA:188,918430
DA:189,918430
DA:190,918430
BRF:0
BRH:0
LF:133
LH:117
end_of_record
SF:/home/liu/proj/toy-kv-engine/kv-engine/src/iterators/merge_iterator.rs
FN:14,_RNvXININtNtCs3ksH6Jg0luU_9kv_engine9iterators14merge_iterator0pEINtB5_11HeapWrapperpENtNtCslfAf2Mv2Tp5_4core3cmp9PartialEq2eqB9_
FN:47,_RNvMs2_NtNtCs3ksH6Jg0luU_9kv_engine9iterators14merge_iteratorINtB5_13MergeIteratorNtNtB7_15concat_iterator17SstConcatIteratorE6createB9_
FN:47,_RNvMs2_NtNtCs3ksH6Jg0luU_9kv_engine9iterators14merge_iteratorINtB5_13MergeIteratorNtNtNtB9_5table8iterator15SsTableIteratorE6createB9_
FN:47,_RNvMs2_NtNtCs3ksH6Jg0luU_9kv_engine9iterators14merge_iteratorINtB5_13MergeIteratorNtNtNtB9_5tests7harness12MockIteratorE6createB9_
FN:47,_RNvMs2_NtNtCs3ksH6Jg0luU_9kv_engine9iterators14merge_iteratorINtB5_13MergeIteratorNtNtNtB9_9mem_table33ouroboros_impl_mem_table_iterator16MemTableIteratorE6createB9_
FN:24,_RNvXs0_NtNtCs3ksH6Jg0luU_9kv_engine9iterators14merge_iteratorINtB5_11HeapWrapperNtNtB7_15concat_iterator17SstConcatIteratorENtNtCslfAf2Mv2Tp5_4core3cmp10PartialOrd11partial_cmpB9_
FN:24,_RNvXs0_NtNtCs3ksH6Jg0luU_9kv_engine9iterators14merge_iteratorINtB5_11HeapWrapperNtNtNtB9_5table8iterator15SsTableIteratorENtNtCslfAf2Mv2Tp5_4core3cmp10PartialOrd11partial_cmpB9_
FN:24,_RNvXs0_NtNtCs3ksH6Jg0luU_9kv_engine9iterators14merge_iteratorINtB5_11HeapWrapperNtNtNtB9_5tests7harness12MockIteratorENtNtCslfAf2Mv2Tp5_4core3cmp10PartialOrd11partial_cmpB9_
FN:24,_RNvXs0_NtNtCs3ksH6Jg0luU_9kv_engine9iterators14merge_iteratorINtB5_11HeapWrapperNtNtNtB9_9mem_table33ouroboros_impl_mem_table_iterator16MemTableIteratorENtNtCslfAf2Mv2Tp5_4core3cmp10PartialOrd11partial_cmpB9_
FN:30,_RNvXs1_NtNtCs3ksH6Jg0luU_9kv_engine9iterators14merge_iteratorINtB5_11HeapWrapperNtNtB7_15concat_iterator17SstConcatIteratorENtNtCslfAf2Mv2Tp5_4core3cmp3Ord3cmpB9_
FN:30,_RNvXs1_NtNtCs3ksH6Jg0luU_9kv_engine9iterators14merge_iteratorINtB5_11HeapWrapperNtNtNtB9_5table8iterator15SsTableIteratorENtNtCslfAf2Mv2Tp5_4core3cmp3Ord3cmpB9_
FN:30,_RNvXs1_NtNtCs3ksH6Jg0luU_9kv_engine9iterators14merge_iteratorINtB5_11HeapWrapperNtNtNtB9_5tests7harness12MockIteratorENtNtCslfAf2Mv2Tp5_4core3cmp3Ord3cmpB9_
FN:30,_RNvXs1_NtNtCs3ksH6Jg0luU_9kv_engine9iterators14merge_iteratorINtB5_11HeapWrapperNtNtNtB9_9mem_table33ouroboros_impl_mem_table_iterator16MemTableIteratorENtNtCslfAf2Mv2Tp5_4core3cmp3Ord3cmpB9_
FN:123,_RNvXs3_NtNtCs3ksH6Jg0luU_9kv_engine9iterators14merge_iteratorINtB5_13MergeIteratorNtNtB7_15concat_iterator17SstConcatIteratorENtB7_15StorageIterator20num_active_iteratorsB9_
FN:68,_RNvXs3_NtNtCs3ksH6Jg0luU_9kv_engine9iterators14merge_iteratorINtB5_13MergeIteratorNtNtB7_15concat_iterator17SstConcatIteratorENtB7_15StorageIterator3keyB9_
FN:80,_RNvXs3_NtNtCs3ksH6Jg0luU_9kv_engine9iterators14merge_iteratorINtB5_13MergeIteratorNtNtB7_15concat_iterator17SstConcatIteratorENtB7_15StorageIterator4nextB9_
FN:72,_RNvXs3_NtNtCs3ksH6Jg0luU_9kv_engine9iterators14merge_iteratorINtB5_13MergeIteratorNtNtB7_15concat_iterator17SstConcatIteratorENtB7_15StorageIterator5valueB9_
FN:76,_RNvXs3_NtNtCs3ksH6Jg0luU_9kv_engine9iterators14merge_iteratorINtB5_13MergeIteratorNtNtB7_15concat_iterator17SstConcatIteratorENtB7_15StorageIterator8is_validB9_
FN:127,_RNvXs3_NtNtCs3ksH6Jg0luU_9kv_engine9iterators14merge_iteratorINtB5_13MergeIteratorNtNtB7_15concat_iterator17SstConcatIteratorENtB7_15StorageIterator9raw_valueB9_
FN:123,_RNvXs3_NtNtCs3ksH6Jg0luU_9kv_engine9iterators14merge_iteratorINtB5_13MergeIteratorNtNtNtB9_5table8iterator15SsTableIteratorENtB7_15StorageIterator20num_active_iteratorsB9_
FN:68,_RNvXs3_NtNtCs3ksH6Jg0luU_9kv_engine9iterators14merge_iteratorINtB5_13MergeIteratorNtNtNtB9_5table8iterator15SsTableIteratorENtB7_15StorageIterator3keyB9_
FN:80,_RNvXs3_NtNtCs3ksH6Jg0luU_9kv_engine9iterators14merge_iteratorINtB5_13MergeIteratorNtNtNtB9_5table8iterator15SsTableIteratorENtB7_15StorageIterator4nextB9_
FN:72,_RNvXs3_NtNtCs3ksH6Jg0luU_9kv_engine9iterators14merge_iteratorINtB5_13MergeIteratorNtNtNtB9_5table8iterator15SsTableIteratorENtB7_15StorageIterator5valueB9_
FN:76,_RNvXs3_NtNtCs3ksH6Jg0luU_9kv_engine9iterators14merge_iteratorINtB5_13MergeIteratorNtNtNtB9_5table8iterator15SsTableIteratorENtB7_15StorageIterator8is_validB9_
FN:127,_RNvXs3_NtNtCs3ksH6Jg0luU_9kv_engine9iterators14merge_iteratorINtB5_13MergeIteratorNtNtNtB9_5table8iterator15SsTableIteratorENtB7_15StorageIterator9raw_valueB9_
FN:68,_RNvXs3_NtNtCs3ksH6Jg0luU_9kv_engine9iterators14merge_iteratorINtB5_13MergeIteratorNtNtNtB9_5tests7harness12MockIteratorENtB7_15StorageIterator3keyB9_
FN:80,_RNvXs3_NtNtCs3ksH6Jg0luU_9kv_engine9iterators14merge_iteratorINtB5_13MergeIteratorNtNtNtB9_5tests7harness12MockIteratorENtB7_15StorageIterator4nextB9_
FN:72,_RNvXs3_NtNtCs3ksH6Jg0luU_9kv_engine9iterators14merge_iteratorINtB5_13MergeIteratorNtNtNtB9_5tests7harness12MockIteratorENtB7_15StorageIterator5valueB9_
FN:76,_RNvXs3_NtNtCs3ksH6Jg0luU_9kv_engine9iterators14merge_iteratorINtB5_13MergeIteratorNtNtNtB9_5tests7harness12MockIteratorENtB7_15StorageIterator8is_validB9_
FN:123,_RNvXs3_NtNtCs3ksH6Jg0luU_9kv_engine9iterators14merge_iteratorINtB5_13MergeIteratorNtNtNtB9_9mem_table33ouroboros_impl_mem_table_iterator16MemTableIteratorENtB7_15StorageIterator20num_active_iteratorsB9_
FN:68,_RNvXs3_NtNtCs3ksH6Jg0luU_9kv_engine9iterators14merge_iteratorINtB5_13MergeIteratorNtNtNtB9_9mem_table33ouroboros_impl_mem_table_iterator16MemTableIteratorENtB7_15StorageIterator3keyB9_
FN:80,_RNvXs3_NtNtCs3ksH6Jg0luU_9kv_engine9iterators14merge_iteratorINtB5_13MergeIteratorNtNtNtB9_9mem_table33ouroboros_impl_mem_table_iterator16MemTableIteratorENtB7_15StorageIterator4nextB9_
FN:72,_RNvXs3_NtNtCs3ksH6Jg0luU_9kv_engine9iterators14merge_iteratorINtB5_13MergeIteratorNtNtNtB9_9mem_table33ouroboros_impl_mem_table_iterator16MemTableIteratorENtB7_15StorageIterator5valueB9_
FN:76,_RNvXs3_NtNtCs3ksH6Jg0luU_9kv_engine9iterators14merge_iteratorINtB5_13MergeIteratorNtNtNtB9_9mem_table33ouroboros_impl_mem_table_iterator16MemTableIteratorENtB7_15StorageIterator8is_validB9_
FNDA:0,_RNvXININtNtCs3ksH6Jg0luU_9kv_engine9iterators14merge_iterator0pEINtB5_11HeapWrapperpENtNtCslfAf2Mv2Tp5_4core3cmp9PartialEq2eqB9_
FNDA:42,_RNvMs2_NtNtCs3ksH6Jg0luU_9kv_engine9iterators14merge_iteratorINtB5_13MergeIteratorNtNtB7_15concat_iterator17SstConcatIteratorE6createB9_
FNDA:73,_RNvMs2_NtNtCs3ksH6Jg0luU_9kv_engine9iterators14merge_iteratorINtB5_13MergeIteratorNtNtNtB9_5table8iterator15SsTableIteratorE6createB9_
FNDA:9,_RNvMs2_NtNtCs3ksH6Jg0luU_9kv_engine9iterators14merge_iteratorINtB5_13MergeIteratorNtNtNtB9_5tests7harness12MockIteratorE6createB9_
FNDA:42,_RNvMs2_NtNtCs3ksH6Jg0luU_9kv_engine9iterators14merge_iteratorINtB5_13MergeIteratorNtNtNtB9_9mem_table33ouroboros_impl_mem_table_iterator16MemTableIteratorE6createB9_
FNDA:69646,_RNvXs0_NtNtCs3ksH6Jg0luU_9kv_engine9iterators14merge_iteratorINtB5_11HeapWrapperNtNtB7_15concat_iterator17SstConcatIteratorENtNtCslfAf2Mv2Tp5_4core3cmp10PartialOrd11partial_cmpB9_
FNDA:252076,_RNvXs0_NtNtCs3ksH6Jg0luU_9kv_engine9iterators14merge_iteratorINtB5_11HeapWrapperNtNtNtB9_5table8iterator15SsTableIteratorENtNtCslfAf2Mv2Tp5_4core3cmp10PartialOrd11partial_cmpB9_
FNDA:52,_RNvXs0_NtNtCs3ksH6Jg0luU_9kv_engine9iterators14merge_iteratorINtB5_11HeapWrapperNtNtNtB9_5tests7harness12MockIteratorENtNtCslfAf2Mv2Tp5_4core3cmp10PartialOrd11partial_cmpB9_
FNDA:34,_RNvXs0_NtNtCs3ksH6Jg0luU_9kv_engine9iterators14merge_iteratorINtB5_11HeapWrapperNtNtNtB9_9mem_table33ouroboros_impl_mem_table_iterator16MemTableIteratorENtNtCslfAf2Mv2Tp5_4core3cmp10PartialOrd11partial_cmpB9_
FNDA:69646,_RNvXs1_NtNtCs3ksH6Jg0luU_9kv_engine9iterators14merge_iteratorINtB5_11HeapWrapperNtNtB7_15concat_iterator17SstConcatIteratorENtNtCslfAf2Mv2Tp5_4core3cmp3Ord3cmpB9_
FNDA:252076,_RNvXs1_NtNtCs3ksH6Jg0luU_9kv_engine9iterators14merge_iteratorINtB5_11HeapWrapperNtNtNtB9_5table8iterator15SsTableIteratorENtNtCslfAf2Mv2Tp5_4core3cmp3Ord3cmpB9_
FNDA:52,_RNvXs1_NtNtCs3ksH6Jg0luU_9kv_engine9iterators14merge_iteratorINtB5_11HeapWrapperNtNtNtB9_5tests7harness12MockIteratorENtNtCslfAf2Mv2Tp5_4core3cmp3Ord3cmpB9_
FNDA:34,_RNvXs1_NtNtCs3ksH6Jg0luU_9kv_engine9iterators14merge_iteratorINtB5_11HeapWrapperNtNtNtB9_9mem_table33ouroboros_impl_mem_table_iterator16MemTableIteratorENtNtCslfAf2Mv2Tp5_4core3cmp3Ord3cmpB9_
FNDA:11,_RNvXs3_NtNtCs3ksH6Jg0luU_9kv_engine9iterators14merge_iteratorINtB5_13MergeIteratorNtNtB7_15concat_iterator17SstConcatIteratorENtB7_15StorageIterator20num_active_iteratorsB9_
FNDA:1061972,_RNvXs3_NtNtCs3ksH6Jg0luU_9kv_engine9iterators14merge_iteratorINtB5_13MergeIteratorNtNtB7_15concat_iterator17SstConcatIteratorENtB7_15StorageIterator3keyB9_
FNDA:199113,_RNvXs3_NtNtCs3ksH6Jg0luU_9kv_engine9iterators14merge_iteratorINtB5_13MergeIteratorNtNtB7_15concat_iterator17SstConcatIteratorENtB7_15StorageIterator4nextB9_
FNDA:218200,_RNvXs3_NtNtCs3ksH6Jg0luU_9kv_engine9iterators14merge_iteratorINtB5_13MergeIteratorNtNtB7_15concat_iterator17SstConcatIteratorENtB7_15StorageIterator5valueB9_
FNDA:1282349,_RNvXs3_NtNtCs3ksH6Jg0luU_9kv_engine9iterators14merge_iteratorINtB5_13MergeIteratorNtNtB7_15concat_iterator17SstConcatIteratorENtB7_15StorageIterator8is_validB9_
FNDA:0,_RNvXs3_NtNtCs3ksH6Jg0luU_9kv_engine9iterators14merge_iteratorINtB5_13MergeIteratorNtNtB7_15concat_iterator17SstConcatIteratorENtB7_15StorageIterator9raw_valueB9_
FNDA:11,_RNvXs3_NtNtCs3ksH6Jg0luU_9kv_engine9iterators14merge_iteratorINtB5_13MergeIteratorNtNtNtB9_5table8iterator15SsTableIteratorENtB7_15StorageIterator20num_active_iteratorsB9_
FNDA:462428,_RNvXs3_NtNtCs3ksH6Jg0luU_9kv_engine9iterators14merge_iteratorINtB5_13MergeIteratorNtNtNtB9_5table8iterator15SsTableIteratorENtB7_15StorageIterator3keyB9_
FNDA:202448,_RNvXs3_NtNtCs3ksH6Jg0luU_9kv_engine9iterators14merge_iteratorINtB5_13MergeIteratorNtNtNtB9_5table8iterator15SsTableIteratorENtB7_15StorageIterator4nextB9_
FNDA:1902,_RNvXs3_NtNtCs3ksH6Jg0luU_9kv_engine9iterators14merge_iteratorINtB5_13MergeIteratorNtNtNtB9_5table8iterator15SsTableIteratorENtB7_15StorageIterator5valueB9_
FNDA:747378,_RNvXs3_NtNtCs3ksH6Jg0luU_9kv_engine9iterators14merge_iteratorINtB5_13MergeIteratorNtNtNtB9_5table8iterator15SsTableIteratorENtB7_15StorageIterator8is_validB9_
FNDA:402956,_RNvXs3_NtNtCs3ksH6Jg0luU_9kv_engine9iterators14merge_iteratorINtB5_13MergeIteratorNtNtNtB9_5table8iterator15SsTableIteratorENtB7_15StorageIterator9raw_valueB9_
FNDA:46,_RNvXs3_NtNtCs3ksH6Jg0luU_9kv_engine9iterators14merge_iteratorINtB5_13MergeIteratorNtNtNtB9_5tests7harness12MockIteratorENtB7_15StorageIterator3keyB9_
FNDA:47,_RNvXs3_NtNtCs3ksH6Jg0luU_9kv_engine9iterators14merge_iteratorINtB5_13MergeIteratorNtNtNtB9_5tests7harness12MockIteratorENtB7_15StorageIterator4nextB9_
FNDA:46,_RNvXs3_NtNtCs3ksH6Jg0luU_9kv_engine9iterators14merge_iteratorINtB5_13MergeIteratorNtNtNtB9_5tests7harness12MockIteratorENtB7_15StorageIterator5valueB9_
FNDA:54,_RNvXs3_NtNtCs3ksH6Jg0luU_9kv_engine9iterators14merge_iteratorINtB5_13MergeIteratorNtNtNtB9_5tests7harness12MockIteratorENtB7_15StorageIterator8is_validB9_
FNDA:11,_RNvXs3_NtNtCs3ksH6Jg0luU_9kv_engine9iterators14merge_iteratorINtB5_13MergeIteratorNtNtNtB9_9mem_table33ouroboros_impl_mem_table_iterator16MemTableIteratorENtB7_15StorageIterator20num_active_iteratorsB9_
FNDA:503,_RNvXs3_NtNtCs3ksH6Jg0luU_9kv_engine9iterators14merge_iteratorINtB5_13MergeIteratorNtNtNtB9_9mem_table33ouroboros_impl_mem_table_iterator16MemTableIteratorENtB7_15StorageIterator3keyB9_
FNDA:85,_RNvXs3_NtNtCs3ksH6Jg0luU_9kv_engine9iterators14merge_iteratorINtB5_13MergeIteratorNtNtNtB9_9mem_table33ouroboros_impl_mem_table_iterator16MemTableIteratorENtB7_15StorageIterator4nextB9_
FNDA:97,_RNvXs3_NtNtCs3ksH6Jg0luU_9kv_engine9iterators14merge_iteratorINtB5_13MergeIteratorNtNtNtB9_9mem_table33ouroboros_impl_mem_table_iterator16MemTableIteratorENtB7_15StorageIterator5valueB9_
FNDA:1686,_RNvXs3_NtNtCs3ksH6Jg0luU_9kv_engine9iterators14merge_iteratorINtB5_13MergeIteratorNtNtNtB9_9mem_table33ouroboros_impl_mem_table_iterator16MemTableIteratorENtB7_15StorageIterator8is_validB9_
FNF:10
FNH:9
DA:14,0
DA:15,0
DA:16,0
DA:24,321808
DA:25,321808
DA:26,321808
DA:30,321808
DA:31,321808
DA:32,321808
DA:33,321808
DA:34,321808
DA:35,321808
DA:36,321808
DA:47,166
DA:48,166
DA:49,235
DA:50,235
DA:51,167
DA:52,167
DA:55,166
DA:56,166
DA:57,166
DA:58,166
DA:59,166
DA:60,166
DA:68,1524949
DA:69,1524949
DA:70,1524949
DA:72,220245
DA:73,220245
DA:74,220245
DA:76,2031467
DA:77,2031467
DA:78,2031467
DA:80,401693
DA:81,401693
DA:83,401707
DA:84,235312
DA:86,15
DA:87,14
DA:88,14
DA:89,3
DA:90,11
DA:93,1
DA:94,1
DA:95,1
DA:99,235297
DA:103,401692
DA:105,401692
DA:106,135
DA:107,67
DA:108,68
DA:109,135
DA:110,401557
DA:112,401557
DA:114,235230
DA:115,86007
DA:116,86007
DA:117,149223
DA:118,166327
DA:120,401557
DA:121,401693
DA:123,33
DA:124,33
DA:125,33
DA:127,402956
DA:128,402956
DA:129,402956
BRF:0
BRH:0
LF:68
LH:65
end_of_record
SF:/home/liu/proj/toy-kv-engine/kv-engine/src/iterators/two_merge_iterator.rs
FN:29,_RNvMNtNtCs3ksH6Jg0luU_9kv_engine9iterators18two_merge_iteratorINtB2_16TwoMergeIteratorIBZ_INtNtB4_14merge_iterator13MergeIteratorNtNtNtB6_9mem_table33ouroboros_impl_mem_table_iterator16MemTableIteratorEIB1r_NtNtNtB6_5table8iterator15SsTableIteratorEEIB1r_NtNtB4_15concat_iterator17SstConcatIteratorEE10set_from_aB6_
FN:18,_RNvMNtNtCs3ksH6Jg0luU_9kv_engine9iterators18two_merge_iteratorINtB2_16TwoMergeIteratorIBZ_INtNtB4_14merge_iterator13MergeIteratorNtNtNtB6_9mem_table33ouroboros_impl_mem_table_iterator16MemTableIteratorEIB1r_NtNtNtB6_5table8iterator15SsTableIteratorEEIB1r_NtNtB4_15concat_iterator17SstConcatIteratorEE6createB6_
FN:29,_RNvMNtNtCs3ksH6Jg0luU_9kv_engine9iterators18two_merge_iteratorINtB2_16TwoMergeIteratorINtNtB4_14merge_iterator13MergeIteratorNtNtNtB6_5table8iterator15SsTableIteratorENtNtB4_15concat_iterator17SstConcatIteratorE10set_from_aB6_
FN:18,_RNvMNtNtCs3ksH6Jg0luU_9kv_engine9iterators18two_merge_iteratorINtB2_16TwoMergeIteratorINtNtB4_14merge_iterator13MergeIteratorNtNtNtB6_5table8iterator15SsTableIteratorENtNtB4_15concat_iterator17SstConcatIteratorE6createB6_
FN:29,_RNvMNtNtCs3ksH6Jg0luU_9kv_engine9iterators18two_merge_iteratorINtB2_16TwoMergeIteratorINtNtB4_14merge_iterator13MergeIteratorNtNtNtB6_9mem_table33ouroboros_impl_mem_table_iterator16MemTableIteratorEIB1n_NtNtNtB6_5table8iterator15SsTableIteratorEE10set_from_aB6_
FN:18,_RNvMNtNtCs3ksH6Jg0luU_9kv_engine9iterators18two_merge_iteratorINtB2_16TwoMergeIteratorINtNtB4_14merge_iterator13MergeIteratorNtNtNtB6_9mem_table33ouroboros_impl_mem_table_iterator16MemTableIteratorEIB1n_NtNtNtB6_5table8iterator15SsTableIteratorEE6createB6_
FN:29,_RNvMNtNtCs3ksH6Jg0luU_9kv_engine9iterators18two_merge_iteratorINtB2_16TwoMergeIteratorNtNtB4_15concat_iterator17SstConcatIteratorB1m_E10set_from_aB6_
FN:18,_RNvMNtNtCs3ksH6Jg0luU_9kv_engine9iterators18two_merge_iteratorINtB2_16TwoMergeIteratorNtNtB4_15concat_iterator17SstConcatIteratorB1m_E6createB6_
FN:29,_RNvMNtNtCs3ksH6Jg0luU_9kv_engine9iterators18two_merge_iteratorINtB2_16TwoMergeIteratorNtNtNtB6_5tests7harness12MockIteratorB1m_E10set_from_aB6_
FN:18,_RNvMNtNtCs3ksH6Jg0luU_9kv_engine9iterators18two_merge_iteratorINtB2_16TwoMergeIteratorNtNtNtB6_5tests7harness12MockIteratorB1m_E6createB6_
FN:29,_RNvMNtNtCs3ksH6Jg0luU_9kv_engine9iterators18two_merge_iteratorINtB2_16TwoMergeIteratorNtNtNtNtB6_4mvcc3txn33ouroboros_impl_txn_local_iterator16TxnLocalIteratorINtNtB6_12lsm_iterator13FusedIteratorNtB2A_11LsmIteratorEE10set_from_aB6_
FN:18,_RNvMNtNtCs3ksH6Jg0luU_9kv_engine9iterators18two_merge_iteratorINtB2_16TwoMergeIteratorNtNtNtNtB6_4mvcc3txn33ouroboros_impl_txn_local_iterator16TxnLocalIteratorINtNtB6_12lsm_iterator13FusedIteratorNtB2A_11LsmIteratorEE6createB6_
FN:90,_RNvXs_NtNtCs3ksH6Jg0luU_9kv_engine9iterators18two_merge_iteratorINtB4_16TwoMergeIteratorIB11_INtNtB6_14merge_iterator13MergeIteratorNtNtNtB8_9mem_table33ouroboros_impl_mem_table_iterator16MemTableIteratorEIB1u_NtNtNtB8_5table8iterator15SsTableIteratorEEIB1u_NtNtB6_15concat_iterator17SstConcatIteratorEENtB6_15StorageIterator20num_active_iteratorsB8_
FN:50,_RNvXs_NtNtCs3ksH6Jg0luU_9kv_engine9iterators18two_merge_iteratorINtB4_16TwoMergeIteratorIB11_INtNtB6_14merge_iterator13MergeIteratorNtNtNtB8_9mem_table33ouroboros_impl_mem_table_iterator16MemTableIteratorEIB1u_NtNtNtB8_5table8iterator15SsTableIteratorEEIB1u_NtNtB6_15concat_iterator17SstConcatIteratorEENtB6_15StorageIterator3keyB8_
FN:74,_RNvXs_NtNtCs3ksH6Jg0luU_9kv_engine9iterators18two_merge_iteratorINtB4_16TwoMergeIteratorIB11_INtNtB6_14merge_iterator13MergeIteratorNtNtNtB8_9mem_table33ouroboros_impl_mem_table_iterator16MemTableIteratorEIB1u_NtNtNtB8_5table8iterator15SsTableIteratorEEIB1u_NtNtB6_15concat_iterator17SstConcatIteratorEENtB6_15StorageIterator4nextB8_
FN:58,_RNvXs_NtNtCs3ksH6Jg0luU_9kv_engine9iterators18two_merge_iteratorINtB4_16TwoMergeIteratorIB11_INtNtB6_14merge_iterator13MergeIteratorNtNtNtB8_9mem_table33ouroboros_impl_mem_table_iterator16MemTableIteratorEIB1u_NtNtNtB8_5table8iterator15SsTableIteratorEEIB1u_NtNtB6_15concat_iterator17SstConcatIteratorEENtB6_15StorageIterator5valueB8_
FN:66,_RNvXs_NtNtCs3ksH6Jg0luU_9kv_engine9iterators18two_merge_iteratorINtB4_16TwoMergeIteratorIB11_INtNtB6_14merge_iterator13MergeIteratorNtNtNtB8_9mem_table33ouroboros_impl_mem_table_iterator16MemTableIteratorEIB1u_NtNtNtB8_5table8iterator15SsTableIteratorEEIB1u_NtNtB6_15concat_iterator17SstConcatIteratorEENtB6_15StorageIterator8is_validB8_
FN:50,_RNvXs_NtNtCs3ksH6Jg0luU_9kv_engine9iterators18two_merge_iteratorINtB4_16TwoMergeIteratorINtNtB6_14merge_iterator13MergeIteratorNtNtNtB8_5table8iterator15SsTableIteratorENtNtB6_15concat_iterator17SstConcatIteratorENtB6_15StorageIterator3keyB8_
FN:74,_RNvXs_NtNtCs3ksH6Jg0luU_9kv_engine9iterators18two_merge_iteratorINtB4_16TwoMergeIteratorINtNtB6_14merge_iterator13MergeIteratorNtNtNtB8_5table8iterator15SsTableIteratorENtNtB6_15concat_iterator17SstConcatIteratorENtB6_15StorageIterator4nextB8_
FN:66,_RNvXs_NtNtCs3ksH6Jg0luU_9kv_engine9iterators18two_merge_iteratorINtB4_16TwoMergeIteratorINtNtB6_14merge_iterator13MergeIteratorNtNtNtB8_5table8iterator15SsTableIteratorENtNtB6_15concat_iterator17SstConcatIteratorENtB6_15StorageIterator8is_validB8_
FN:94,_RNvXs_NtNtCs3ksH6Jg0luU_9kv_engine9iterators18two_merge_iteratorINtB4_16TwoMergeIteratorINtNtB6_14merge_iterator13MergeIteratorNtNtNtB8_5table8iterator15SsTableIteratorENtNtB6_15concat_iterator17SstConcatIteratorENtB6_15StorageIterator9raw_valueB8_
FN:90,_RNvXs_NtNtCs3ksH6Jg0luU_9kv_engine9iterators18two_merge_iteratorINtB4_16TwoMergeIteratorINtNtB6_14merge_iterator13MergeIteratorNtNtNtB8_9mem_table33ouroboros_impl_mem_table_iterator16MemTableIteratorEIB1p_NtNtNtB8_5table8iterator15SsTableIteratorEENtB6_15StorageIterator20num_active_iteratorsB8_
FN:50,_RNvXs_NtNtCs3ksH6Jg0luU_9kv_engine9iterators18two_merge_iteratorINtB4_16TwoMergeIteratorINtNtB6_14merge_iterator13MergeIteratorNtNtNtB8_9mem_table33ouroboros_impl_mem_table_iterator16MemTableIteratorEIB1p_NtNtNtB8_5table8iterator15SsTableIteratorEENtB6_15StorageIterator3keyB8_
FN:74,_RNvXs_NtNtCs3ksH6Jg0luU_9kv_engine9iterators18two_merge_iteratorINtB4_16TwoMergeIteratorINtNtB6_14merge_iterator13MergeIteratorNtNtNtB8_9mem_table33ouroboros_impl_mem_table_iterator16MemTableIteratorEIB1p_NtNtNtB8_5table8iterator15SsTableIteratorEENtB6_15StorageIterator4nextB8_
FN:58,_RNvXs_NtNtCs3ksH6Jg0luU_9kv_engine9iterators18two_merge_iteratorINtB4_16TwoMergeIteratorINtNtB6_14merge_iterator13MergeIteratorNtNtNtB8_9mem_table33ouroboros_impl_mem_table_iterator16MemTableIteratorEIB1p_NtNtNtB8_5table8iterator15SsTableIteratorEENtB6_15StorageIterator5valueB8_
FN:66,_RNvXs_NtNtCs3ksH6Jg0luU_9kv_engine9iterators18two_merge_iteratorINtB4_16TwoMergeIteratorINtNtB6_14merge_iterator13MergeIteratorNtNtNtB8_9mem_table33ouroboros_impl_mem_table_iterator16MemTableIteratorEIB1p_NtNtNtB8_5table8iterator15SsTableIteratorEENtB6_15StorageIterator8is_validB8_
FN:50,_RNvXs_NtNtCs3ksH6Jg0luU_9kv_engine9iterators18two_merge_iteratorINtB4_16TwoMergeIteratorNtNtB6_15concat_iterator17SstConcatIteratorB1o_ENtB6_15StorageIterator3keyB8_
FN:74,_RNvXs_NtNtCs3ksH6Jg0luU_9kv_engine9iterators18two_merge_iteratorINtB4_16TwoMergeIteratorNtNtB6_15concat_iterator17SstConcatIteratorB1o_ENtB6_15StorageIterator4nextB8_
FN:66,_RNvXs_NtNtCs3ksH6Jg0luU_9kv_engine9iterators18two_merge_iteratorINtB4_16TwoMergeIteratorNtNtB6_15concat_iterator17SstConcatIteratorB1o_ENtB6_15StorageIterator8is_validB8_
FN:94,_RNvXs_NtNtCs3ksH6Jg0luU_9kv_engine9iterators18two_merge_iteratorINtB4_16TwoMergeIteratorNtNtB6_15concat_iterator17SstConcatIteratorB1o_ENtB6_15StorageIterator9raw_valueB8_
FN:50,_RNvXs_NtNtCs3ksH6Jg0luU_9kv_engine9iterators18two_merge_iteratorINtB4_16TwoMergeIteratorNtNtNtB8_5tests7harness12MockIteratorB1o_ENtB6_15StorageIterator3keyB8_
FN:74,_RNvXs_NtNtCs3ksH6Jg0luU_9kv_engine9iterators18two_merge_iteratorINtB4_16TwoMergeIteratorNtNtNtB8_5tests7harness12MockIteratorB1o_ENtB6_15StorageIterator4nextB8_
FN:58,_RNvXs_NtNtCs3ksH6Jg0luU_9kv_engine9iterators18two_merge_iteratorINtB4_16TwoMergeIteratorNtNtNtB8_5tests7harness12MockIteratorB1o_ENtB6_15StorageIterator5valueB8_
FN:66,_RNvXs_NtNtCs3ksH6Jg0luU_9kv_engine9iterators18two_merge_iteratorINtB4_16TwoMergeIteratorNtNtNtB8_5tests7harness12MockIteratorB1o_ENtB6_15StorageIterator8is_validB8_
FN:50,_RNvXs_NtNtCs3ksH6Jg0luU_9kv_engine9iterators18two_merge_iteratorINtB4_16TwoMergeIteratorNtNtNtNtB8_4mvcc3txn33ouroboros_impl_txn_local_iterator16TxnLocalIteratorINtNtB8_12lsm_iterator13FusedIteratorNtB2C_11LsmIteratorEENtB6_15StorageIterator3keyB8_
FN:74,_RNvXs_NtNtCs3ksH6Jg0luU_9kv_engine9iterators18two_merge_iteratorINtB4_16TwoMergeIteratorNtNtNtNtB8_4mvcc3txn33ouroboros_impl_txn_local_iterator16TxnLocalIteratorINtNtB8_12lsm_iterator13FusedIteratorNtB2C_11LsmIteratorEENtB6_15StorageIterator4nextB8_
FN:58,_RNvXs_NtNtCs3ksH6Jg0luU_9kv_engine9iterators18two_merge_iteratorINtB4_16TwoMergeIteratorNtNtNtNtB8_4mvcc3txn33ouroboros_impl_txn_local_iterator16TxnLocalIteratorINtNtB8_12lsm_iterator13FusedIteratorNtB2C_11LsmIteratorEENtB6_15StorageIterator5valueB8_
FN:66,_RNvXs_NtNtCs3ksH6Jg0luU_9kv_engine9iterators18two_merge_iteratorINtB4_16TwoMergeIteratorNtNtNtNtB8_4mvcc3txn33ouroboros_impl_txn_local_iterator16TxnLocalIteratorINtNtB8_12lsm_iterator13FusedIteratorNtB2C_11LsmIteratorEENtB6_15StorageIterator8is_validB8_
FNDA:200180,_RNvMNtNtCs3ksH6Jg0luU_9kv_engine9iterators18two_merge_iteratorINtB2_16TwoMergeIteratorIBZ_INtNtB4_14merge_iterator13MergeIteratorNtNtNtB6_9mem_table33ouroboros_impl_mem_table_iterator16MemTableIteratorEIB1r_NtNtNtB6_5table8iterator15SsTableIteratorEEIB1r_NtNtB4_15concat_iterator17SstConcatIteratorEE10set_from_aB6_
FNDA:42,_RNvMNtNtCs3ksH6Jg0luU_9kv_engine9iterators18two_merge_iteratorINtB2_16TwoMergeIteratorIBZ_INtNtB4_14merge_iterator13MergeIteratorNtNtNtB6_9mem_table33ouroboros_impl_mem_table_iterator16MemTableIteratorEIB1r_NtNtNtB6_5table8iterator15SsTableIteratorEEIB1r_NtNtB4_15concat_iterator17SstConcatIteratorEE6createB6_
FNDA:336238,_RNvMNtNtCs3ksH6Jg0luU_9kv_engine9iterators18two_merge_iteratorINtB2_16TwoMergeIteratorINtNtB4_14merge_iterator13MergeIteratorNtNtNtB6_5table8iterator15SsTableIteratorENtNtB4_15concat_iterator17SstConcatIteratorE10set_from_aB6_
FNDA:27,_RNvMNtNtCs3ksH6Jg0luU_9kv_engine9iterators18two_merge_iteratorINtB2_16TwoMergeIteratorINtNtB4_14merge_iterator13MergeIteratorNtNtNtB6_5table8iterator15SsTableIteratorENtNtB4_15concat_iterator17SstConcatIteratorE6createB6_
FNDA:1067,_RNvMNtNtCs3ksH6Jg0luU_9kv_engine9iterators18two_merge_iteratorINtB2_16TwoMergeIteratorINtNtB4_14merge_iterator13MergeIteratorNtNtNtB6_9mem_table33ouroboros_impl_mem_table_iterator16MemTableIteratorEIB1n_NtNtNtB6_5table8iterator15SsTableIteratorEE10set_from_aB6_
FNDA:42,_RNvMNtNtCs3ksH6Jg0luU_9kv_engine9iterators18two_merge_iteratorINtB2_16TwoMergeIteratorINtNtB4_14merge_iterator13MergeIteratorNtNtNtB6_9mem_table33ouroboros_impl_mem_table_iterator16MemTableIteratorEIB1n_NtNtNtB6_5table8iterator15SsTableIteratorEE6createB6_
FNDA:324523,_RNvMNtNtCs3ksH6Jg0luU_9kv_engine9iterators18two_merge_iteratorINtB2_16TwoMergeIteratorNtNtB4_15concat_iterator17SstConcatIteratorB1m_E10set_from_aB6_
FNDA:41,_RNvMNtNtCs3ksH6Jg0luU_9kv_engine9iterators18two_merge_iteratorINtB2_16TwoMergeIteratorNtNtB4_15concat_iterator17SstConcatIteratorB1m_E6createB6_
FNDA:24,_RNvMNtNtCs3ksH6Jg0luU_9kv_engine9iterators18two_merge_iteratorINtB2_16TwoMergeIteratorNtNtNtB6_5tests7harness12MockIteratorB1m_E10set_from_aB6_
FNDA:6,_RNvMNtNtCs3ksH6Jg0luU_9kv_engine9iterators18two_merge_iteratorINtB2_16TwoMergeIteratorNtNtNtB6_5tests7harness12MockIteratorB1m_E6createB6_
FNDA:0,_RNvMNtNtCs3ksH6Jg0luU_9kv_engine9iterators18two_merge_iteratorINtB2_16TwoMergeIteratorNtNtNtNtB6_4mvcc3txn33ouroboros_impl_txn_local_iterator16TxnLocalIteratorINtNtB6_12lsm_iterator13FusedIteratorNtB2A_11LsmIteratorEE10set_from_aB6_
FNDA:0,_RNvMNtNtCs3ksH6Jg0luU_9kv_engine9iterators18two_merge_iteratorINtB2_16TwoMergeIteratorNtNtNtNtB6_4mvcc3txn33ouroboros_impl_txn_local_iterator16TxnLocalIteratorINtNtB6_12lsm_iterator13FusedIteratorNtB2A_11LsmIteratorEE6createB6_
FNDA:11,_RNvXs_NtNtCs3ksH6Jg0luU_9kv_engine9iterators18two_merge_iteratorINtB4_16TwoMergeIteratorIB11_INtNtB6_14merge_iterator13MergeIteratorNtNtNtB8_9mem_table33ouroboros_impl_mem_table_iterator16MemTableIteratorEIB1u_NtNtNtB8_5table8iterator15SsTableIteratorEEIB1u_NtNtB6_15concat_iterator17SstConcatIteratorEENtB6_15StorageIterator20num_active_iteratorsB8_
FNDA:970852,_RNvXs_NtNtCs3ksH6Jg0luU_9kv_engine9iterators18two_merge_iteratorINtB4_16TwoMergeIteratorIB11_INtNtB6_14merge_iterator13MergeIteratorNtNtNtB8_9mem_table33ouroboros_impl_mem_table_iterator16MemTableIteratorEIB1u_NtNtNtB8_5table8iterator15SsTableIteratorEEIB1u_NtNtB6_15concat_iterator17SstConcatIteratorEENtB6_15StorageIterator3keyB8_
FNDA:200138,_RNvXs_NtNtCs3ksH6Jg0luU_9kv_engine9iterators18two_merge_iteratorINtB4_16TwoMergeIteratorIB11_INtNtB6_14merge_iterator13MergeIteratorNtNtNtB8_9mem_table33ouroboros_impl_mem_table_iterator16MemTableIteratorEIB1u_NtNtNtB8_5table8iterator15SsTableIteratorEEIB1u_NtNtB6_15concat_iterator17SstConcatIteratorEENtB6_15StorageIterator4nextB8_
FNDA:220169,_RNvXs_NtNtCs3ksH6Jg0luU_9kv_engine9iterators18two_merge_iteratorINtB4_16TwoMergeIteratorIB11_INtNtB6_14merge_iterator13MergeIteratorNtNtNtB8_9mem_table33ouroboros_impl_mem_table_iterator16MemTableIteratorEIB1u_NtNtNtB8_5table8iterator15SsTableIteratorEEIB1u_NtNtB6_15concat_iterator17SstConcatIteratorEENtB6_15StorageIterator5valueB8_
FNDA:1191093,_RNvXs_NtNtCs3ksH6Jg0luU_9kv_engine9iterators18two_merge_iteratorINtB4_16TwoMergeIteratorIB11_INtNtB6_14merge_iterator13MergeIteratorNtNtNtB8_9mem_table33ouroboros_impl_mem_table_iterator16MemTableIteratorEIB1u_NtNtNtB8_5table8iterator15SsTableIteratorEEIB1u_NtNtB6_15concat_iterator17SstConcatIteratorEENtB6_15StorageIterator8is_validB8_
FNDA:336211,_RNvXs_NtNtCs3ksH6Jg0luU_9kv_engine9iterators18two_merge_iteratorINtB4_16TwoMergeIteratorINtNtB6_14merge_iterator13MergeIteratorNtNtNtB8_5table8iterator15SsTableIteratorENtNtB6_15concat_iterator17SstConcatIteratorENtB6_15StorageIterator3keyB8_
FNDA:336211,_RNvXs_NtNtCs3ksH6Jg0luU_9kv_engine9iterators18two_merge_iteratorINtB4_16TwoMergeIteratorINtNtB6_14merge_iterator13MergeIteratorNtNtNtB8_5table8iterator15SsTableIteratorENtNtB6_15concat_iterator17SstConcatIteratorENtB6_15StorageIterator4nextB8_
FNDA:336238,_RNvXs_NtNtCs3ksH6Jg0luU_9kv_engine9iterators18two_merge_iteratorINtB4_16TwoMergeIteratorINtNtB6_14merge_iterator13MergeIteratorNtNtNtB8_5table8iterator15SsTableIteratorENtNtB6_15concat_iterator17SstConcatIteratorENtB6_15StorageIterator8is_validB8_
FNDA:672422,_RNvXs_NtNtCs3ksH6Jg0luU_9kv_engine9iterators18two_merge_iteratorINtB4_16TwoMergeIteratorINtNtB6_14merge_iterator13MergeIteratorNtNtNtB8_5table8iterator15SsTableIteratorENtNtB6_15concat_iterator17SstConcatIteratorENtB6_15StorageIterator9raw_valueB8_
FNDA:11,_RNvXs_NtNtCs3ksH6Jg0luU_9kv_engine9iterators18two_merge_iteratorINtB4_16TwoMergeIteratorINtNtB6_14merge_iterator13MergeIteratorNtNtNtB8_9mem_table33ouroboros_impl_mem_table_iterator16MemTableIteratorEIB1p_NtNtNtB8_5table8iterator15SsTableIteratorEENtB6_15StorageIterator20num_active_iteratorsB8_
FNDA:107050,_RNvXs_NtNtCs3ksH6Jg0luU_9kv_engine9iterators18two_merge_iteratorINtB4_16TwoMergeIteratorINtNtB6_14merge_iterator13MergeIteratorNtNtNtB8_9mem_table33ouroboros_impl_mem_table_iterator16MemTableIteratorEIB1p_NtNtNtB8_5table8iterator15SsTableIteratorEENtB6_15StorageIterator3keyB8_
FNDA:1025,_RNvXs_NtNtCs3ksH6Jg0luU_9kv_engine9iterators18two_merge_iteratorINtB4_16TwoMergeIteratorINtNtB6_14merge_iterator13MergeIteratorNtNtNtB8_9mem_table33ouroboros_impl_mem_table_iterator16MemTableIteratorEIB1p_NtNtNtB8_5table8iterator15SsTableIteratorEENtB6_15StorageIterator4nextB8_
FNDA:1969,_RNvXs_NtNtCs3ksH6Jg0luU_9kv_engine9iterators18two_merge_iteratorINtB4_16TwoMergeIteratorINtNtB6_14merge_iterator13MergeIteratorNtNtNtB8_9mem_table33ouroboros_impl_mem_table_iterator16MemTableIteratorEIB1p_NtNtNtB8_5table8iterator15SsTableIteratorEENtB6_15StorageIterator5valueB8_
FNDA:210068,_RNvXs_NtNtCs3ksH6Jg0luU_9kv_engine9iterators18two_merge_iteratorINtB4_16TwoMergeIteratorINtNtB6_14merge_iterator13MergeIteratorNtNtNtB8_9mem_table33ouroboros_impl_mem_table_iterator16MemTableIteratorEIB1p_NtNtNtB8_5table8iterator15SsTableIteratorEENtB6_15StorageIterator8is_validB8_
FNDA:324482,_RNvXs_NtNtCs3ksH6Jg0luU_9kv_engine9iterators18two_merge_iteratorINtB4_16TwoMergeIteratorNtNtB6_15concat_iterator17SstConcatIteratorB1o_ENtB6_15StorageIterator3keyB8_
FNDA:324482,_RNvXs_NtNtCs3ksH6Jg0luU_9kv_engine9iterators18two_merge_iteratorINtB4_16TwoMergeIteratorNtNtB6_15concat_iterator17SstConcatIteratorB1o_ENtB6_15StorageIterator4nextB8_
FNDA:324523,_RNvXs_NtNtCs3ksH6Jg0luU_9kv_engine9iterators18two_merge_iteratorINtB4_16TwoMergeIteratorNtNtB6_15concat_iterator17SstConcatIteratorB1o_ENtB6_15StorageIterator8is_validB8_
FNDA:648964,_RNvXs_NtNtCs3ksH6Jg0luU_9kv_engine9iterators18two_merge_iteratorINtB4_16TwoMergeIteratorNtNtB6_15concat_iterator17SstConcatIteratorB1o_ENtB6_15StorageIterator9raw_valueB8_
FNDA:18,_RNvXs_NtNtCs3ksH6Jg0luU_9kv_engine9iterators18two_merge_iteratorINtB4_16TwoMergeIteratorNtNtNtB8_5tests7harness12MockIteratorB1o_ENtB6_15StorageIterator3keyB8_
FNDA:18,_RNvXs_NtNtCs3ksH6Jg0luU_9kv_engine9iterators18two_merge_iteratorINtB4_16TwoMergeIteratorNtNtNtB8_5tests7harness12MockIteratorB1o_ENtB6_15StorageIterator4nextB8_
FNDA:18,_RNvXs_NtNtCs3ksH6Jg0luU_9kv_engine9iterators18two_merge_iteratorINtB4_16TwoMergeIteratorNtNtNtB8_5tests7harness12MockIteratorB1o_ENtB6_15StorageIterator5valueB8_
FNDA:24,_RNvXs_NtNtCs3ksH6Jg0luU_9kv_engine9iterators18two_merge_iteratorINtB4_16TwoMergeIteratorNtNtNtB8_5tests7harness12MockIteratorB1o_ENtB6_15StorageIterator8is_validB8_
FNDA:0,_RNvXs_NtNtCs3ksH6Jg0luU_9kv_engine9iterators18two_merge_iteratorINtB4_16TwoMergeIteratorNtNtNtNtB8_4mvcc3txn33ouroboros_impl_txn_local_iterator16TxnLocalIteratorINtNtB8_12lsm_iterator13FusedIteratorNtB2C_11LsmIteratorEENtB6_15StorageIterator3keyB8_
FNDA:0,_RNvXs_NtNtCs3ksH6Jg0luU_9kv_engine9iterators18two_merge_iteratorINtB4_16TwoMergeIteratorNtNtNtNtB8_4mvcc3txn33ouroboros_impl_txn_local_iterator16TxnLocalIteratorINtNtB8_12lsm_iterator13FusedIteratorNtB2C_11LsmIteratorEENtB6_15StorageIterator4nextB8_
FNDA:0,_RNvXs_NtNtCs3ksH6Jg0luU_9kv_engine9iterators18two_merge_iteratorINtB4_16TwoMergeIteratorNtNtNtNtB8_4mvcc3txn33ouroboros_impl_txn_local_iterator16TxnLocalIteratorINtNtB8_12lsm_iterator13FusedIteratorNtB2C_11LsmIteratorEENtB6_15StorageIterator5valueB8_
FNDA:0,_RNvXs_NtNtCs3ksH6Jg0luU_9kv_engine9iterators18two_merge_iteratorINtB4_16TwoMergeIteratorNtNtNtNtB8_4mvcc3txn33ouroboros_impl_txn_local_iterator16TxnLocalIteratorINtNtB8_12lsm_iterator13FusedIteratorNtB2C_11LsmIteratorEENtB6_15StorageIterator8is_validB8_
FNF:8
FNH:8
DA:18,158
DA:19,158
DA:20,158
DA:21,158
DA:22,158
DA:23,158
DA:24,158
DA:26,158
DA:27,158
DA:29,862032
DA:30,862032
DA:31,101115
DA:32,101115
DA:33,760917
DA:34,760917
DA:35,517290
DA:36,517290
DA:37,243627
DA:39,243627
DA:40,862032
DA:50,1738613
DA:51,1738613
DA:52,534398
DA:54,1204215
DA:56,1738613
DA:58,222156
DA:59,222156
DA:60,2079
DA:62,220077
DA:64,222156
DA:66,2061946
DA:67,2061946
DA:68,536481
DA:70,1525465
DA:72,2061946
DA:74,861874
DA:75,861874
DA:77,527083
DA:78,8
DA:79,527075
DA:80,527083
DA:82,334791
DA:85,861874
DA:87,861874
DA:88,861874
DA:90,22
DA:91,22
DA:92,22
DA:94,1321386
DA:95,1321386
DA:96,1051920
DA:98,269466
DA:100,1321386
BRF:0
BRH:0
LF:53
LH:53
end_of_record
SF:/home/liu/proj/toy-kv-engine/kv-engine/src/key.rs
FN:748,_RNvNtNtCs3ksH6Jg0luU_9kv_engine3key5testss_14test_key_debug
FN:740,_RNvNtNtCs3ksH6Jg0luU_9kv_engine3key5testss_16test_key_default
FN:757,_RNvNtNtCs3ksH6Jg0luU_9kv_engine3key5testss_19test_key_into_inner
FN:398,_RNvNtNtCs3ksH6Jg0luU_9kv_engine3key5testss_21test_encode_empty_key
FN:408,_RNvNtNtCs3ksH6Jg0luU_9kv_engine3key5testss_21test_encode_short_key
FN:789,_RNvNtNtCs3ksH6Jg0luU_9kv_engine3key5testss_23test_key_for_testing_ts
FN:504,_RNvNtNtCs3ksH6Jg0luU_9kv_engine3key5testss_24test_key_ts_and_user_key
FN:442,_RNvNtNtCs3ksH6Jg0luU_9kv_engine3key5testss_25test_encode_all_zeros_key
FN:429,_RNvNtNtCs3ksH6Jg0luU_9kv_engine3key5testss_25test_encode_two_group_key
FN:637,_RNvNtNtCs3ksH6Jg0luU_9kv_engine3key5testss_25test_extract_ts_too_short
FN:682,_RNvNtNtCs3ksH6Jg0luU_9kv_engine3key5testss_25test_key_bytes_from_bytes
FN:764,_RNvNtNtCs3ksH6Jg0luU_9kv_engine3key5testss_25test_key_slice_into_inner
FN:690,_RNvNtNtCs3ksH6Jg0luU_9kv_engine3key5testss_25test_key_slice_to_key_vec
FN:821,_RNvNtNtCs3ksH6Jg0luU_9kv_engine3key5testss_26test_decode_user_key_short
FN:418,_RNvNtNtCs3ksH6Jg0luU_9kv_engine3key5testss_26test_encode_full_group_key
FN:656,_RNvNtNtCs3ksH6Jg0luU_9kv_engine3key5testss_26test_key_vec_new_and_clear
FN:674,_RNvNtNtCs3ksH6Jg0luU_9kv_engine3key5testss_27test_key_vec_into_key_bytes
FN:666,_RNvNtNtCs3ksH6Jg0luU_9kv_engine3key5testss_27test_key_vec_set_from_slice
FN:485,_RNvNtNtCs3ksH6Jg0luU_9kv_engine3key5testss_28test_encoded_user_key_prefix
FN:375,_RNvNtNtCs3ksH6Jg0luU_9kv_engine3key5testss_29test_encode_decode_round_trip
FN:513,_RNvNtNtCs3ksH6Jg0luU_9kv_engine3key5testss_29test_key_ordering_newer_first
FN:477,_RNvNtNtCs3ksH6Jg0luU_9kv_engine3key5testss_30test_decode_user_key_too_short
FN:586,_RNvNtNtCs3ksH6Jg0luU_9kv_engine3key5testss_31test_decode_user_key_into_empty
FN:542,_RNvNtNtCs3ksH6Jg0luU_9kv_engine3key5testss_31test_encode_internal_key_to_buf
FN:643,_RNvNtNtCs3ksH6Jg0luU_9kv_engine3key5testss_31test_extract_ts_exactly_minimum
FN:811,_RNvNtNtCs3ksH6Jg0luU_9kv_engine3key5testss_31test_extract_ts_malformed_short
FN:705,_RNvNtNtCs3ksH6Jg0luU_9kv_engine3key5testss_31test_for_testing_from_vec_no_ts
FN:796,_RNvNtNtCs3ksH6Jg0luU_9kv_engine3key5testss_32test_key_vec_for_testing_key_ref
FN:568,_RNvNtNtCs3ksH6Jg0luU_9kv_engine3key5testss_32test_keyvec_set_from_user_key_ts
FN:711,_RNvNtNtCs3ksH6Jg0luU_9kv_engine3key5testss_33test_for_testing_from_bytes_no_ts
FN:699,_RNvNtNtCs3ksH6Jg0luU_9kv_engine3key5testss_33test_for_testing_from_slice_no_ts
FN:816,_RNvNtNtCs3ksH6Jg0luU_9kv_engine3key5testss_34test_encoded_user_key_prefix_short
FN:780,_RNvNtNtCs3ksH6Jg0luU_9kv_engine3key5testss_34test_key_encoded_user_key_fallback
FN:726,_RNvNtNtCs3ksH6Jg0luU_9kv_engine3key5testss_34test_shared_bytes_from_slice_empty
FN:468,_RNvNtNtCs3ksH6Jg0luU_9kv_engine3key5testss_35test_decode_user_key_cow_with_zeros
FN:717,_RNvNtNtCs3ksH6Jg0luU_9kv_engine3key5testss_35test_for_testing_from_slice_with_ts
FN:528,_RNvNtNtCs3ksH6Jg0luU_9kv_engine3key5testss_35test_key_ordering_full_group_prefix
FN:599,_RNvNtNtCs3ksH6Jg0luU_9kv_engine3key5testss_36test_decode_user_key_into_bad_marker
FN:772,_RNvNtNtCs3ksH6Jg0luU_9kv_engine3key5testss_36test_key_decode_user_key_into_method
FN:455,_RNvNtNtCs3ksH6Jg0luU_9kv_engine3key5testss_37test_decode_user_key_cow_always_owned
FN:521,_RNvNtNtCs3ksH6Jg0luU_9kv_engine3key5testss_37test_key_ordering_different_user_keys
FN:732,_RNvNtNtCs3ksH6Jg0luU_9kv_engine3key5testss_37test_shared_bytes_from_slice_nonempty
FN:558,_RNvNtNtCs3ksH6Jg0luU_9kv_engine3key5testss_38test_encode_internal_key_to_buf_append
FN:576,_RNvNtNtCs3ksH6Jg0luU_9kv_engine3key5testss_38test_keyvec_set_from_user_key_ts_reuse
FN:805,_RNvNtNtCs3ksH6Jg0luU_9kv_engine3key5testss_40test_decode_user_key_cow_malformed_short
FN:495,_RNvNtNtCs3ksH6Jg0luU_9kv_engine3key5testss_40test_encoded_user_key_prefix_multi_group
FN:608,_RNvNtNtCs3ksH6Jg0luU_9kv_engine3key5testss_42test_decode_user_key_into_non_zero_padding
FN:550,_RNvNtNtCs3ksH6Jg0luU_9kv_engine3key5testss_42test_encode_internal_key_to_buf_with_zeros
FN:592,_RNvNtNtCs3ksH6Jg0luU_9kv_engine3key5testss_47test_decode_user_key_into_not_multiple_of_group
FN:621,_RNvNtNtCs3ksH6Jg0luU_9kv_engine3key5testss_48test_decode_user_key_into_empty_terminator_group
FN:194,_RNCNvMNtCs3ksH6Jg0luU_9kv_engine3keyINtB4_3KeyINtNtCs2TrN21NlPz_5alloc3vec3VechEE15decode_user_key0B6_
FN:189,_RNCNvMNtCs3ksH6Jg0luU_9kv_engine3keyINtB4_3KeyINtNtCs2TrN21NlPz_5alloc3vec3VechEE16encoded_user_key0B6_
FN:194,_RNCNvMNtCs3ksH6Jg0luU_9kv_engine3keyINtB4_3KeyNtNtCs3nU4b9VY2Ln_5bytes5bytes5BytesE15decode_user_key0B6_
FN:189,_RNCNvMNtCs3ksH6Jg0luU_9kv_engine3keyINtB4_3KeyNtNtCs3nU4b9VY2Ln_5bytes5bytes5BytesE16encoded_user_key0B6_
FN:194,_RNCNvMNtCs3ksH6Jg0luU_9kv_engine3keyINtB4_3KeyRShE15decode_user_key0B6_
FN:189,_RNCNvMNtCs3ksH6Jg0luU_9kv_engine3keyINtB4_3KeyRShE16encoded_user_key0B6_
FN:129,_RNCNvNtCs3ksH6Jg0luU_9kv_engine3key20decode_user_key_into0B5_
FN:170,_RNvMNtCs3ksH6Jg0luU_9kv_engine3keyINtB2_3KeyINtNtCs2TrN21NlPz_5alloc3vec3VechEE10into_innerB4_
FN:193,_RNvMNtCs3ksH6Jg0luU_9kv_engine3keyINtB2_3KeyINtNtCs2TrN21NlPz_5alloc3vec3VechEE15decode_user_keyB4_
FN:188,_RNvMNtCs3ksH6Jg0luU_9kv_engine3keyINtB2_3KeyINtNtCs2TrN21NlPz_5alloc3vec3VechEE16encoded_user_keyB4_
FN:219,_RNvMNtCs3ksH6Jg0luU_9kv_engine3keyINtB2_3KeyINtNtCs2TrN21NlPz_5alloc3vec3VechEE19for_testing_key_refB4_
FN:203,_RNvMNtCs3ksH6Jg0luU_9kv_engine3keyINtB2_3KeyINtNtCs2TrN21NlPz_5alloc3vec3VechEE20decode_user_key_intoB4_
FN:183,_RNvMNtCs3ksH6Jg0luU_9kv_engine3keyINtB2_3KeyINtNtCs2TrN21NlPz_5alloc3vec3VechEE2tsB4_
FN:174,_RNvMNtCs3ksH6Jg0luU_9kv_engine3keyINtB2_3KeyINtNtCs2TrN21NlPz_5alloc3vec3VechEE3lenB4_
FN:212,_RNvMNtCs3ksH6Jg0luU_9kv_engine3keyINtB2_3KeyINtNtCs2TrN21NlPz_5alloc3vec3VechEE7raw_refB4_
FN:178,_RNvMNtCs3ksH6Jg0luU_9kv_engine3keyINtB2_3KeyINtNtCs2TrN21NlPz_5alloc3vec3VechEE8is_emptyB4_
FN:193,_RNvMNtCs3ksH6Jg0luU_9kv_engine3keyINtB2_3KeyNtNtCs3nU4b9VY2Ln_5bytes5bytes5BytesE15decode_user_keyB4_
FN:188,_RNvMNtCs3ksH6Jg0luU_9kv_engine3keyINtB2_3KeyNtNtCs3nU4b9VY2Ln_5bytes5bytes5BytesE16encoded_user_keyB4_
FN:219,_RNvMNtCs3ksH6Jg0luU_9kv_engine3keyINtB2_3KeyNtNtCs3nU4b9VY2Ln_5bytes5bytes5BytesE19for_testing_key_refB4_
FN:183,_RNvMNtCs3ksH6Jg0luU_9kv_engine3keyINtB2_3KeyNtNtCs3nU4b9VY2Ln_5bytes5bytes5BytesE2tsB4_
FN:174,_RNvMNtCs3ksH6Jg0luU_9kv_engine3keyINtB2_3KeyNtNtCs3nU4b9VY2Ln_5bytes5bytes5BytesE3lenB4_
FN:212,_RNvMNtCs3ksH6Jg0luU_9kv_engine3keyINtB2_3KeyNtNtCs3nU4b9VY2Ln_5bytes5bytes5BytesE7raw_refB4_
FN:170,_RNvMNtCs3ksH6Jg0luU_9kv_engine3keyINtB2_3KeyRShE10into_innerB4_
FN:228,_RNvMNtCs3ksH6Jg0luU_9kv_engine3keyINtB2_3KeyRShE14for_testing_tsB4_
FN:193,_RNvMNtCs3ksH6Jg0luU_9kv_engine3keyINtB2_3KeyRShE15decode_user_keyB4_
FN:188,_RNvMNtCs3ksH6Jg0luU_9kv_engine3keyINtB2_3KeyRShE16encoded_user_keyB4_
FN:198,_RNvMNtCs3ksH6Jg0luU_9kv_engine3keyINtB2_3KeyRShE19decode_user_key_cowB4_
FN:219,_RNvMNtCs3ksH6Jg0luU_9kv_engine3keyINtB2_3KeyRShE19for_testing_key_refB4_
FN:203,_RNvMNtCs3ksH6Jg0luU_9kv_engine3keyINtB2_3KeyRShE20decode_user_key_intoB4_
FN:183,_RNvMNtCs3ksH6Jg0luU_9kv_engine3keyINtB2_3KeyRShE2tsB4_
FN:174,_RNvMNtCs3ksH6Jg0luU_9kv_engine3keyINtB2_3KeyRShE3lenB4_
FN:212,_RNvMNtCs3ksH6Jg0luU_9kv_engine3keyINtB2_3KeyRShE7raw_refB4_
FN:178,_RNvMNtCs3ksH6Jg0luU_9kv_engine3keyINtB2_3KeyRShE8is_emptyB4_
FN:329,_RNvXs2_NtCs3ksH6Jg0luU_9kv_engine3keyINtB5_3KeyINtNtCs2TrN21NlPz_5alloc3vec3VechEENtNtCslfAf2Mv2Tp5_4core3fmt5Debug3fmtB7_
FN:329,_RNvXs2_NtCs3ksH6Jg0luU_9kv_engine3keyINtB5_3KeyNtNtCs3nU4b9VY2Ln_5bytes5bytes5BytesENtNtCslfAf2Mv2Tp5_4core3fmt5Debug3fmtB7_
FN:329,_RNvXs2_NtCs3ksH6Jg0luU_9kv_engine3keyINtB5_3KeyRShENtNtCslfAf2Mv2Tp5_4core3fmt5Debug3fmtB7_
FN:335,_RNvXs3_NtCs3ksH6Jg0luU_9kv_engine3keyINtB5_3KeyINtNtCs2TrN21NlPz_5alloc3vec3VechEENtNtCslfAf2Mv2Tp5_4core7default7Default7defaultB7_
FN:341,_RNvXs4_NtCs3ksH6Jg0luU_9kv_engine3keyINtB5_3KeyNtNtCs3nU4b9VY2Ln_5bytes5bytes5BytesENtNtCslfAf2Mv2Tp5_4core3cmp9PartialEq2eqB7_
FN:341,_RNvXs4_NtCs3ksH6Jg0luU_9kv_engine3keyINtB5_3KeyRShENtNtCslfAf2Mv2Tp5_4core3cmp9PartialEq2eqB7_
FN:349,_RNvXs6_NtCs3ksH6Jg0luU_9kv_engine3keyINtB5_3KeyINtNtCs2TrN21NlPz_5alloc3vec3VechEENtNtCslfAf2Mv2Tp5_4core5clone5Clone5cloneB7_
FN:349,_RNvXs6_NtCs3ksH6Jg0luU_9kv_engine3keyINtB5_3KeyNtNtCs3nU4b9VY2Ln_5bytes5bytes5BytesENtNtCslfAf2Mv2Tp5_4core5clone5Clone5cloneB7_
FN:357,_RNvXs8_NtCs3ksH6Jg0luU_9kv_engine3keyINtB5_3KeyNtNtCs3nU4b9VY2Ln_5bytes5bytes5BytesENtNtCslfAf2Mv2Tp5_4core3cmp10PartialOrd11partial_cmpB7_
FN:357,_RNvXs8_NtCs3ksH6Jg0luU_9kv_engine3keyINtB5_3KeyRShENtNtCslfAf2Mv2Tp5_4core3cmp10PartialOrd11partial_cmpB7_
FN:363,_RNvXs9_NtCs3ksH6Jg0luU_9kv_engine3keyINtB5_3KeyNtNtCs3nU4b9VY2Ln_5bytes5bytes5BytesENtNtCslfAf2Mv2Tp5_4core3cmp3Ord3cmpB7_
FN:363,_RNvXs9_NtCs3ksH6Jg0luU_9kv_engine3keyINtB5_3KeyRShENtNtCslfAf2Mv2Tp5_4core3cmp3Ord3cmpB7_
FN:294,_RNvMs0_NtCs3ksH6Jg0luU_9kv_engine3keyINtB5_3KeyNtNtCs3nU4b9VY2Ln_5bytes5bytes5BytesE10from_bytes
FN:289,_RNvMs0_NtCs3ksH6Jg0luU_9kv_engine3keyINtB5_3KeyNtNtCs3nU4b9VY2Ln_5bytes5bytes5BytesE12as_key_slice
FN:299,_RNvMs0_NtCs3ksH6Jg0luU_9kv_engine3keyINtB5_3KeyNtNtCs3nU4b9VY2Ln_5bytes5bytes5BytesE28for_testing_from_bytes_no_ts
FN:310,_RNvMs1_NtCs3ksH6Jg0luU_9kv_engine3keyINtB5_3KeyRShE10from_slice
FN:305,_RNvMs1_NtCs3ksH6Jg0luU_9kv_engine3keyINtB5_3KeyRShE10to_key_vec
FN:318,_RNvMs1_NtCs3ksH6Jg0luU_9kv_engine3keyINtB5_3KeyRShE28for_testing_from_slice_no_ts
FN:323,_RNvMs1_NtCs3ksH6Jg0luU_9kv_engine3keyINtB5_3KeyRShE30for_testing_from_slice_with_ts
FN:274,_RNvMs_NtCs3ksH6Jg0luU_9kv_engine3keyINtB4_3KeyINtNtCs2TrN21NlPz_5alloc3vec3VechEE12as_key_slice
FN:278,_RNvMs_NtCs3ksH6Jg0luU_9kv_engine3keyINtB4_3KeyINtNtCs2TrN21NlPz_5alloc3vec3VechEE14into_key_bytes
FN:268,_RNvMs_NtCs3ksH6Jg0luU_9kv_engine3keyINtB4_3KeyINtNtCs2TrN21NlPz_5alloc3vec3VechEE14set_from_slice
FN:244,_RNvMs_NtCs3ksH6Jg0luU_9kv_engine3keyINtB4_3KeyINtNtCs2TrN21NlPz_5alloc3vec3VechEE16from_user_key_ts
FN:249,_RNvMs_NtCs3ksH6Jg0luU_9kv_engine3keyINtB4_3KeyINtNtCs2TrN21NlPz_5alloc3vec3VechEE20set_from_user_key_ts
FN:283,_RNvMs_NtCs3ksH6Jg0luU_9kv_engine3keyINtB4_3KeyINtNtCs2TrN21NlPz_5alloc3vec3VechEE26for_testing_from_vec_no_ts
FN:234,_RNvMs_NtCs3ksH6Jg0luU_9kv_engine3keyINtB4_3KeyINtNtCs2TrN21NlPz_5alloc3vec3VechEE3new
FN:257,_RNvMs_NtCs3ksH6Jg0luU_9kv_engine3keyINtB4_3KeyINtNtCs2TrN21NlPz_5alloc3vec3VechEE5clear
FN:262,_RNvMs_NtCs3ksH6Jg0luU_9kv_engine3keyINtB4_3KeyINtNtCs2TrN21NlPz_5alloc3vec3VechEE6append
FN:239,_RNvMs_NtCs3ksH6Jg0luU_9kv_engine3keyINtB4_3KeyINtNtCs2TrN21NlPz_5alloc3vec3VechEE8from_vec
FN:99,_RNvNtCs3ksH6Jg0luU_9kv_engine3key10extract_ts
FN:146,_RNvNtCs3ksH6Jg0luU_9kv_engine3key15decode_user_key
FN:159,_RNvNtCs3ksH6Jg0luU_9kv_engine3key19decode_user_key_cow
FN:68,_RNvNtCs3ksH6Jg0luU_9kv_engine3key19encode_internal_key
FN:111,_RNvNtCs3ksH6Jg0luU_9kv_engine3key20decode_user_key_into
FN:89,_RNvNtCs3ksH6Jg0luU_9kv_engine3key23encoded_user_key_prefix
FN:15,_RNvNtCs3ksH6Jg0luU_9kv_engine3key23shared_bytes_from_slice
FN:81,_RNvNtCs3ksH6Jg0luU_9kv_engine3key26encode_internal_key_to_buf
FN:49,_RNvNtCs3ksH6Jg0luU_9kv_engine3key32encode_memcomparable_user_key_to
FNDA:1,_RNvNtNtCs3ksH6Jg0luU_9kv_engine3key5testss_14test_key_debug
FNDA:1,_RNvNtNtCs3ksH6Jg0luU_9kv_engine3key5testss_16test_key_default
FNDA:1,_RNvNtNtCs3ksH6Jg0luU_9kv_engine3key5testss_19test_key_into_inner
FNDA:1,_RNvNtNtCs3ksH6Jg0luU_9kv_engine3key5testss_21test_encode_empty_key
FNDA:1,_RNvNtNtCs3ksH6Jg0luU_9kv_engine3key5testss_21test_encode_short_key
FNDA:1,_RNvNtNtCs3ksH6Jg0luU_9kv_engine3key5testss_23test_key_for_testing_ts
FNDA:1,_RNvNtNtCs3ksH6Jg0luU_9kv_engine3key5testss_24test_key_ts_and_user_key
FNDA:1,_RNvNtNtCs3ksH6Jg0luU_9kv_engine3key5testss_25test_encode_all_zeros_key
FNDA:1,_RNvNtNtCs3ksH6Jg0luU_9kv_engine3key5testss_25test_encode_two_group_key
FNDA:1,_RNvNtNtCs3ksH6Jg0luU_9kv_engine3key5testss_25test_extract_ts_too_short
FNDA:1,_RNvNtNtCs3ksH6Jg0luU_9kv_engine3key5testss_25test_key_bytes_from_bytes
FNDA:1,_RNvNtNtCs3ksH6Jg0luU_9kv_engine3key5testss_25test_key_slice_into_inner
FNDA:1,_RNvNtNtCs3ksH6Jg0luU_9kv_engine3key5testss_25test_key_slice_to_key_vec
FNDA:1,_RNvNtNtCs3ksH6Jg0luU_9kv_engine3key5testss_26test_decode_user_key_short
FNDA:1,_RNvNtNtCs3ksH6Jg0luU_9kv_engine3key5testss_26test_encode_full_group_key
FNDA:1,_RNvNtNtCs3ksH6Jg0luU_9kv_engine3key5testss_26test_key_vec_new_and_clear
FNDA:1,_RNvNtNtCs3ksH6Jg0luU_9kv_engine3key5testss_27test_key_vec_into_key_bytes
FNDA:1,_RNvNtNtCs3ksH6Jg0luU_9kv_engine3key5testss_27test_key_vec_set_from_slice
FNDA:1,_RNvNtNtCs3ksH6Jg0luU_9kv_engine3key5testss_28test_encoded_user_key_prefix
FNDA:1,_RNvNtNtCs3ksH6Jg0luU_9kv_engine3key5testss_29test_encode_decode_round_trip
FNDA:1,_RNvNtNtCs3ksH6Jg0luU_9kv_engine3key5testss_29test_key_ordering_newer_first
FNDA:1,_RNvNtNtCs3ksH6Jg0luU_9kv_engine3key5testss_30test_decode_user_key_too_short
FNDA:1,_RNvNtNtCs3ksH6Jg0luU_9kv_engine3key5testss_31test_decode_user_key_into_empty
FNDA:1,_RNvNtNtCs3ksH6Jg0luU_9kv_engine3key5testss_31test_encode_internal_key_to_buf
FNDA:1,_RNvNtNtCs3ksH6Jg0luU_9kv_engine3key5testss_31test_extract_ts_exactly_minimum
FNDA:1,_RNvNtNtCs3ksH6Jg0luU_9kv_engine3key5testss_31test_extract_ts_malformed_short
FNDA:1,_RNvNtNtCs3ksH6Jg0luU_9kv_engine3key5testss_31test_for_testing_from_vec_no_ts
FNDA:1,_RNvNtNtCs3ksH6Jg0luU_9kv_engine3key5testss_32test_key_vec_for_testing_key_ref
FNDA:1,_RNvNtNtCs3ksH6Jg0luU_9kv_engine3key5testss_32test_keyvec_set_from_user_key_ts
FNDA:1,_RNvNtNtCs3ksH6Jg0luU_9kv_engine3key5testss_33test_for_testing_from_bytes_no_ts
FNDA:1,_RNvNtNtCs3ksH6Jg0luU_9kv_engine3key5testss_33test_for_testing_from_slice_no_ts
FNDA:1,_RNvNtNtCs3ksH6Jg0luU_9kv_engine3key5testss_34test_encoded_user_key_prefix_short
FNDA:1,_RNvNtNtCs3ksH6Jg0luU_9kv_engine3key5testss_34test_key_encoded_user_key_fallback
FNDA:1,_RNvNtNtCs3ksH6Jg0luU_9kv_engine3key5testss_34test_shared_bytes_from_slice_empty
FNDA:1,_RNvNtNtCs3ksH6Jg0luU_9kv_engine3key5testss_35test_decode_user_key_cow_with_zeros
FNDA:1,_RNvNtNtCs3ksH6Jg0luU_9kv_engine3key5testss_35test_for_testing_from_slice_with_ts
FNDA:1,_RNvNtNtCs3ksH6Jg0luU_9kv_engine3key5testss_35test_key_ordering_full_group_prefix
FNDA:1,_RNvNtNtCs3ksH6Jg0luU_9kv_engine3key5testss_36test_decode_user_key_into_bad_marker
FNDA:1,_RNvNtNtCs3ksH6Jg0luU_9kv_engine3key5testss_36test_key_decode_user_key_into_method
FNDA:1,_RNvNtNtCs3ksH6Jg0luU_9kv_engine3key5testss_37test_decode_user_key_cow_always_owned
FNDA:1,_RNvNtNtCs3ksH6Jg0luU_9kv_engine3key5testss_37test_key_ordering_different_user_keys
FNDA:1,_RNvNtNtCs3ksH6Jg0luU_9kv_engine3key5testss_37test_shared_bytes_from_slice_nonempty
FNDA:1,_RNvNtNtCs3ksH6Jg0luU_9kv_engine3key5testss_38test_encode_internal_key_to_buf_append
FNDA:1,_RNvNtNtCs3ksH6Jg0luU_9kv_engine3key5testss_38test_keyvec_set_from_user_key_ts_reuse
FNDA:1,_RNvNtNtCs3ksH6Jg0luU_9kv_engine3key5testss_40test_decode_user_key_cow_malformed_short
FNDA:1,_RNvNtNtCs3ksH6Jg0luU_9kv_engine3key5testss_40test_encoded_user_key_prefix_multi_group
FNDA:1,_RNvNtNtCs3ksH6Jg0luU_9kv_engine3key5testss_42test_decode_user_key_into_non_zero_padding
FNDA:1,_RNvNtNtCs3ksH6Jg0luU_9kv_engine3key5testss_42test_encode_internal_key_to_buf_with_zeros
FNDA:1,_RNvNtNtCs3ksH6Jg0luU_9kv_engine3key5testss_47test_decode_user_key_into_not_multiple_of_group
FNDA:1,_RNvNtNtCs3ksH6Jg0luU_9kv_engine3key5testss_48test_decode_user_key_into_empty_terminator_group
FNDA:0,_RNCNvMNtCs3ksH6Jg0luU_9kv_engine3keyINtB4_3KeyINtNtCs2TrN21NlPz_5alloc3vec3VechEE15decode_user_key0B6_
FNDA:1000,_RNCNvMNtCs3ksH6Jg0luU_9kv_engine3keyINtB4_3KeyINtNtCs2TrN21NlPz_5alloc3vec3VechEE16encoded_user_key0B6_
FNDA:0,_RNCNvMNtCs3ksH6Jg0luU_9kv_engine3keyINtB4_3KeyNtNtCs3nU4b9VY2Ln_5bytes5bytes5BytesE15decode_user_key0B6_
FNDA:6,_RNCNvMNtCs3ksH6Jg0luU_9kv_engine3keyINtB4_3KeyNtNtCs3nU4b9VY2Ln_5bytes5bytes5BytesE16encoded_user_key0B6_
FNDA:64,_RNCNvMNtCs3ksH6Jg0luU_9kv_engine3keyINtB4_3KeyRShE15decode_user_key0B6_
FNDA:1542,_RNCNvMNtCs3ksH6Jg0luU_9kv_engine3keyINtB4_3KeyRShE16encoded_user_key0B6_
FNDA:8297377,_RNCNvNtCs3ksH6Jg0luU_9kv_engine3key20decode_user_key_into0B5_
FNDA:1,_RNvMNtCs3ksH6Jg0luU_9kv_engine3keyINtB2_3KeyINtNtCs2TrN21NlPz_5alloc3vec3VechEE10into_innerB4_
FNDA:5,_RNvMNtCs3ksH6Jg0luU_9kv_engine3keyINtB2_3KeyINtNtCs2TrN21NlPz_5alloc3vec3VechEE15decode_user_keyB4_
FNDA:2004,_RNvMNtCs3ksH6Jg0luU_9kv_engine3keyINtB2_3KeyINtNtCs2TrN21NlPz_5alloc3vec3VechEE16encoded_user_keyB4_
FNDA:2003,_RNvMNtCs3ksH6Jg0luU_9kv_engine3keyINtB2_3KeyINtNtCs2TrN21NlPz_5alloc3vec3VechEE19for_testing_key_refB4_
FNDA:1,_RNvMNtCs3ksH6Jg0luU_9kv_engine3keyINtB2_3KeyINtNtCs2TrN21NlPz_5alloc3vec3VechEE20decode_user_key_intoB4_
FNDA:5,_RNvMNtCs3ksH6Jg0luU_9kv_engine3keyINtB2_3KeyINtNtCs2TrN21NlPz_5alloc3vec3VechEE2tsB4_
FNDA:1,_RNvMNtCs3ksH6Jg0luU_9kv_engine3keyINtB2_3KeyINtNtCs2TrN21NlPz_5alloc3vec3VechEE3lenB4_
FNDA:2117804,_RNvMNtCs3ksH6Jg0luU_9kv_engine3keyINtB2_3KeyINtNtCs2TrN21NlPz_5alloc3vec3VechEE7raw_refB4_
FNDA:3,_RNvMNtCs3ksH6Jg0luU_9kv_engine3keyINtB2_3KeyINtNtCs2TrN21NlPz_5alloc3vec3VechEE8is_emptyB4_
FNDA:2,_RNvMNtCs3ksH6Jg0luU_9kv_engine3keyINtB2_3KeyNtNtCs3nU4b9VY2Ln_5bytes5bytes5BytesE15decode_user_keyB4_
FNDA:1583117,_RNvMNtCs3ksH6Jg0luU_9kv_engine3keyINtB2_3KeyNtNtCs3nU4b9VY2Ln_5bytes5bytes5BytesE16encoded_user_keyB4_
FNDA:2,_RNvMNtCs3ksH6Jg0luU_9kv_engine3keyINtB2_3KeyNtNtCs3nU4b9VY2Ln_5bytes5bytes5BytesE19for_testing_key_refB4_
FNDA:2,_RNvMNtCs3ksH6Jg0luU_9kv_engine3keyINtB2_3KeyNtNtCs3nU4b9VY2Ln_5bytes5bytes5BytesE2tsB4_
FNDA:147380,_RNvMNtCs3ksH6Jg0luU_9kv_engine3keyINtB2_3KeyNtNtCs3nU4b9VY2Ln_5bytes5bytes5BytesE3lenB4_
FNDA:73844,_RNvMNtCs3ksH6Jg0luU_9kv_engine3keyINtB2_3KeyNtNtCs3nU4b9VY2Ln_5bytes5bytes5BytesE7raw_refB4_
FNDA:1,_RNvMNtCs3ksH6Jg0luU_9kv_engine3keyINtB2_3KeyRShE10into_innerB4_
FNDA:1,_RNvMNtCs3ksH6Jg0luU_9kv_engine3keyINtB2_3KeyRShE14for_testing_tsB4_
FNDA:287,_RNvMNtCs3ksH6Jg0luU_9kv_engine3keyINtB2_3KeyRShE15decode_user_keyB4_
FNDA:3662861,_RNvMNtCs3ksH6Jg0luU_9kv_engine3keyINtB2_3KeyRShE16encoded_user_keyB4_
FNDA:1096075,_RNvMNtCs3ksH6Jg0luU_9kv_engine3keyINtB2_3KeyRShE19decode_user_key_cowB4_
FNDA:2117,_RNvMNtCs3ksH6Jg0luU_9kv_engine3keyINtB2_3KeyRShE19for_testing_key_refB4_
FNDA:110059,_RNvMNtCs3ksH6Jg0luU_9kv_engine3keyINtB2_3KeyRShE20decode_user_key_intoB4_
FNDA:993311,_RNvMNtCs3ksH6Jg0luU_9kv_engine3keyINtB2_3KeyRShE2tsB4_
FNDA:2634104,_RNvMNtCs3ksH6Jg0luU_9kv_engine3keyINtB2_3KeyRShE3lenB4_
FNDA:2399562,_RNvMNtCs3ksH6Jg0luU_9kv_engine3keyINtB2_3KeyRShE7raw_refB4_
FNDA:5021479,_RNvMNtCs3ksH6Jg0luU_9kv_engine3keyINtB2_3KeyRShE8is_emptyB4_
FNDA:1,_RNvXs2_NtCs3ksH6Jg0luU_9kv_engine3keyINtB5_3KeyINtNtCs2TrN21NlPz_5alloc3vec3VechEENtNtCslfAf2Mv2Tp5_4core3fmt5Debug3fmtB7_
FNDA:0,_RNvXs2_NtCs3ksH6Jg0luU_9kv_engine3keyINtB5_3KeyNtNtCs3nU4b9VY2Ln_5bytes5bytes5BytesENtNtCslfAf2Mv2Tp5_4core3fmt5Debug3fmtB7_
FNDA:0,_RNvXs2_NtCs3ksH6Jg0luU_9kv_engine3keyINtB5_3KeyRShENtNtCslfAf2Mv2Tp5_4core3fmt5Debug3fmtB7_
FNDA:1,_RNvXs3_NtCs3ksH6Jg0luU_9kv_engine3keyINtB5_3KeyINtNtCs2TrN21NlPz_5alloc3vec3VechEENtNtCslfAf2Mv2Tp5_4core7default7Default7defaultB7_
FNDA:68,_RNvXs4_NtCs3ksH6Jg0luU_9kv_engine3keyINtB5_3KeyNtNtCs3nU4b9VY2Ln_5bytes5bytes5BytesENtNtCslfAf2Mv2Tp5_4core3cmp9PartialEq2eqB7_
FNDA:245118,_RNvXs4_NtCs3ksH6Jg0luU_9kv_engine3keyINtB5_3KeyRShENtNtCslfAf2Mv2Tp5_4core3cmp9PartialEq2eqB7_
FNDA:150782,_RNvXs6_NtCs3ksH6Jg0luU_9kv_engine3keyINtB5_3KeyINtNtCs2TrN21NlPz_5alloc3vec3VechEENtNtCslfAf2Mv2Tp5_4core5clone5Clone5cloneB7_
FNDA:942,_RNvXs6_NtCs3ksH6Jg0luU_9kv_engine3keyINtB5_3KeyNtNtCs3nU4b9VY2Ln_5bytes5bytes5BytesENtNtCslfAf2Mv2Tp5_4core5clone5Clone5cloneB7_
FNDA:619,_RNvXs8_NtCs3ksH6Jg0luU_9kv_engine3keyINtB5_3KeyNtNtCs3nU4b9VY2Ln_5bytes5bytes5BytesENtNtCslfAf2Mv2Tp5_4core3cmp10PartialOrd11partial_cmpB7_
FNDA:244703,_RNvXs8_NtCs3ksH6Jg0luU_9kv_engine3keyINtB5_3KeyRShENtNtCslfAf2Mv2Tp5_4core3cmp10PartialOrd11partial_cmpB7_
FNDA:26,_RNvXs9_NtCs3ksH6Jg0luU_9kv_engine3keyINtB5_3KeyNtNtCs3nU4b9VY2Ln_5bytes5bytes5BytesENtNtCslfAf2Mv2Tp5_4core3cmp3Ord3cmpB7_
FNDA:321808,_RNvXs9_NtCs3ksH6Jg0luU_9kv_engine3keyINtB5_3KeyRShENtNtCslfAf2Mv2Tp5_4core3cmp3Ord3cmpB7_
FNDA:289784,_RNvMs0_NtCs3ksH6Jg0luU_9kv_engine3keyINtB5_3KeyNtNtCs3nU4b9VY2Ln_5bytes5bytes5BytesE10from_bytes
FNDA:2079808,_RNvMs0_NtCs3ksH6Jg0luU_9kv_engine3keyINtB5_3KeyNtNtCs3nU4b9VY2Ln_5bytes5bytes5BytesE12as_key_slice
FNDA:1,_RNvMs0_NtCs3ksH6Jg0luU_9kv_engine3keyINtB5_3KeyNtNtCs3nU4b9VY2Ln_5bytes5bytes5BytesE28for_testing_from_bytes_no_ts
FNDA:452480,_RNvMs1_NtCs3ksH6Jg0luU_9kv_engine3keyINtB5_3KeyRShE10from_slice
FNDA:18,_RNvMs1_NtCs3ksH6Jg0luU_9kv_engine3keyINtB5_3KeyRShE10to_key_vec
FNDA:1350,_RNvMs1_NtCs3ksH6Jg0luU_9kv_engine3keyINtB5_3KeyRShE28for_testing_from_slice_no_ts
FNDA:1,_RNvMs1_NtCs3ksH6Jg0luU_9kv_engine3keyINtB5_3KeyRShE30for_testing_from_slice_with_ts
FNDA:8510105,_RNvMs_NtCs3ksH6Jg0luU_9kv_engine3keyINtB4_3KeyINtNtCs2TrN21NlPz_5alloc3vec3VechEE12as_key_slice
FNDA:322,_RNvMs_NtCs3ksH6Jg0luU_9kv_engine3keyINtB4_3KeyINtNtCs2TrN21NlPz_5alloc3vec3VechEE14into_key_bytes
FNDA:1,_RNvMs_NtCs3ksH6Jg0luU_9kv_engine3keyINtB4_3KeyINtNtCs2TrN21NlPz_5alloc3vec3VechEE14set_from_slice
FNDA:1967,_RNvMs_NtCs3ksH6Jg0luU_9kv_engine3keyINtB4_3KeyINtNtCs2TrN21NlPz_5alloc3vec3VechEE16from_user_key_ts
FNDA:2,_RNvMs_NtCs3ksH6Jg0luU_9kv_engine3keyINtB4_3KeyINtNtCs2TrN21NlPz_5alloc3vec3VechEE20set_from_user_key_ts
FNDA:1502,_RNvMs_NtCs3ksH6Jg0luU_9kv_engine3keyINtB4_3KeyINtNtCs2TrN21NlPz_5alloc3vec3VechEE26for_testing_from_vec_no_ts
FNDA:3,_RNvMs_NtCs3ksH6Jg0luU_9kv_engine3keyINtB4_3KeyINtNtCs2TrN21NlPz_5alloc3vec3VechEE3new
FNDA:1013077,_RNvMs_NtCs3ksH6Jg0luU_9kv_engine3keyINtB4_3KeyINtNtCs2TrN21NlPz_5alloc3vec3VechEE5clear
FNDA:1958399,_RNvMs_NtCs3ksH6Jg0luU_9kv_engine3keyINtB4_3KeyINtNtCs2TrN21NlPz_5alloc3vec3VechEE6append
FNDA:151086,_RNvMs_NtCs3ksH6Jg0luU_9kv_engine3keyINtB4_3KeyINtNtCs2TrN21NlPz_5alloc3vec3VechEE8from_vec
FNDA:1219611,_RNvNtCs3ksH6Jg0luU_9kv_engine3key10extract_ts
FNDA:1292602,_RNvNtCs3ksH6Jg0luU_9kv_engine3key15decode_user_key
FNDA:1291946,_RNvNtCs3ksH6Jg0luU_9kv_engine3key19decode_user_key_cow
FNDA:416563,_RNvNtCs3ksH6Jg0luU_9kv_engine3key19encode_internal_key
FNDA:1402153,_RNvNtCs3ksH6Jg0luU_9kv_engine3key20decode_user_key_into
FNDA:6963329,_RNvNtCs3ksH6Jg0luU_9kv_engine3key23encoded_user_key_prefix
FNDA:480672,_RNvNtCs3ksH6Jg0luU_9kv_engine3key23shared_bytes_from_slice
FNDA:5,_RNvNtCs3ksH6Jg0luU_9kv_engine3key26encode_internal_key_to_buf
FNDA:416568,_RNvNtCs3ksH6Jg0luU_9kv_engine3key32encode_memcomparable_user_key_to
FNF:96
FNH:96
DA:15,480672
DA:16,480672
DA:17,2
DA:18,480670
DA:19,480670
DA:20,480670
DA:22,480670
DA:23,480672
DA:49,416568
DA:50,416568
DA:51,416568
DA:52,395235
DA:53,395235
DA:54,395235
DA:55,416568
DA:61,416568
DA:62,416568
DA:63,416568
DA:64,416568
DA:65,416568
DA:68,416563
DA:70,416563
DA:71,416563
DA:72,416563
DA:73,416563
DA:74,416563
DA:75,416563
DA:77,416563
DA:78,416563
DA:81,5
DA:82,5
DA:83,5
DA:84,5
DA:85,5
DA:89,6963329
DA:91,6963329
DA:92,3100
DA:93,6960229
DA:94,6960229
DA:95,6963329
DA:99,1219611
DA:100,1219611
DA:101,335
DA:102,1219276
DA:103,1219276
DA:104,1219276
DA:106,1219276
DA:107,1219611
DA:111,1402153
DA:112,1402153
DA:114,1402153
DA:115,2
DA:116,1402151
DA:117,1402151
DA:118,2770525
DA:119,2770525
DA:120,2770525
DA:121,2770525
DA:122,2770525
DA:123,1
DA:124,2770524
DA:125,2770524
DA:127,1402150
DA:128,1402150
DA:129,8297377
DA:131,1
DA:132,1402149
DA:133,1402149
DA:134,1402149
DA:136,1402149
DA:137,1368374
DA:138,1368374
DA:139,1368374
DA:141,0
DA:142,1402153
DA:146,1292602
DA:147,1292602
DA:148,1292088
DA:149,1292088
DA:150,1292088
DA:152,0
DA:154,1292602
DA:159,1291946
DA:160,1291946
DA:161,1291946
DA:170,2
DA:171,2
DA:172,2
DA:174,2781485
DA:175,2781485
DA:176,2781485
DA:178,5021482
DA:179,5021482
DA:180,5021482
DA:183,993318
DA:184,993318
DA:185,993318
DA:188,5247982
DA:189,5247982
DA:190,5247982
DA:193,294
DA:194,294
DA:195,294
DA:198,1096075
DA:199,1096075
DA:200,1096075
DA:203,110060
DA:204,110060
DA:205,110060
DA:206,110060
DA:207,0
DA:208,0
DA:209,110060
DA:212,4591210
DA:213,4591210
DA:214,4591210
DA:219,4122
DA:220,4122
DA:221,4122
DA:223,0
DA:225,4122
DA:228,1
DA:229,1
DA:230,1
DA:234,3
DA:235,3
DA:236,3
DA:239,151086
DA:240,151086
DA:241,151086
DA:244,1967
DA:245,1967
DA:246,1967
DA:249,2
DA:250,2
DA:251,2
DA:252,2
DA:253,2
DA:254,2
DA:257,1013077
DA:258,1013077
DA:259,1013077
DA:262,1958399
DA:263,1958399
DA:264,1958399
DA:268,1
DA:269,1
DA:270,1
DA:271,1
DA:272,1
DA:274,8510105
DA:275,8510105
DA:276,8510105
DA:278,322
DA:279,322
DA:280,322
DA:283,1502
DA:284,1502
DA:285,1502
DA:289,2079808
DA:290,2079808
DA:291,2079808
DA:294,289784
DA:295,289784
DA:296,289784
DA:299,1
DA:300,1
DA:301,1
DA:305,18
DA:306,18
DA:307,18
DA:310,452480
DA:311,452480
DA:312,452480
DA:318,1350
DA:319,1350
DA:320,1350
DA:323,1
DA:324,1
DA:325,1
DA:329,1
DA:330,1
DA:331,1
DA:335,1
DA:336,1
DA:337,1
DA:341,245186
DA:342,245186
DA:343,245186
DA:349,151724
DA:350,151724
DA:351,151724
DA:357,245322
DA:358,245322
DA:359,245322
DA:363,321834
DA:364,321834
DA:365,321834
DA:375,1
DA:376,1
DA:377,1
DA:378,1
DA:379,1
DA:380,1
DA:381,1
DA:382,1
DA:383,1
DA:384,1
DA:385,1
DA:386,1
DA:388,10
DA:389,10
DA:390,10
DA:391,10
DA:393,1
DA:398,1
DA:399,1
DA:401,1
DA:402,1
DA:404,1
DA:405,1
DA:408,1
DA:410,1
DA:411,1
DA:412,1
DA:413,1
DA:414,1
DA:415,1
DA:418,1
DA:420,1
DA:421,1
DA:422,1
DA:423,1
DA:424,1
DA:425,1
DA:426,1
DA:429,1
DA:432,1
DA:433,1
DA:434,1
DA:435,1
DA:436,1
DA:437,1
DA:438,1
DA:439,1
DA:442,1
DA:443,1
DA:444,1
DA:445,1
DA:446,1
DA:447,1
DA:448,1
DA:449,1
DA:450,1
DA:455,1
DA:457,1
DA:458,1
DA:459,1
DA:461,1
DA:462,1
DA:463,0
DA:465,1
DA:468,1
DA:469,1
DA:470,1
DA:471,1
DA:472,1
DA:477,1
DA:479,1
DA:480,1
DA:485,1
DA:486,1
DA:487,1
DA:489,1
DA:490,1
DA:491,1
DA:492,1
DA:495,1
DA:496,1
DA:497,1
DA:498,1
DA:499,1
DA:504,1
DA:505,1
DA:506,1
DA:507,1
DA:509,1
DA:510,1
DA:513,1
DA:515,1
DA:516,1
DA:517,1
DA:518,1
DA:521,1
DA:522,1
DA:523,1
DA:524,1
DA:525,1
DA:528,1
DA:531,1
DA:532,1
DA:533,1
DA:534,1
DA:537,1
DA:542,1
DA:543,1
DA:544,1
DA:545,1
DA:546,1
DA:547,1
DA:550,1
DA:551,1
DA:552,1
DA:553,1
DA:554,1
DA:555,1
DA:558,1
DA:559,1
DA:560,1
DA:561,1
DA:562,1
DA:563,1
DA:568,1
DA:569,1
DA:570,1
DA:571,1
DA:572,1
DA:573,1
DA:576,1
DA:577,1
DA:578,1
DA:579,1
DA:580,1
DA:581,1
DA:586,1
DA:587,1
DA:588,1
DA:589,1
DA:592,1
DA:594,1
DA:595,1
DA:596,1
DA:599,1
DA:601,1
DA:602,1
DA:603,1
DA:604,1
DA:605,1
DA:608,1
DA:610,1
DA:611,1
DA:613,1
DA:614,1
DA:615,1
DA:616,1
DA:617,1
DA:618,1
DA:621,1
DA:624,1
DA:625,1
DA:627,1
DA:628,1
DA:629,1
DA:630,1
DA:631,1
DA:632,1
DA:637,1
DA:639,1
DA:640,1
DA:643,1
DA:646,1
DA:647,1
DA:648,1
DA:649,1
DA:650,1
DA:651,1
DA:656,1
DA:657,1
DA:658,1
DA:659,1
DA:660,1
DA:661,1
DA:662,1
DA:663,1
DA:666,1
DA:667,1
DA:668,1
DA:669,1
DA:670,1
DA:671,1
DA:674,1
DA:675,1
DA:676,1
DA:677,1
DA:678,1
DA:679,1
DA:682,1
DA:683,1
DA:684,1
DA:685,1
DA:686,1
DA:687,1
DA:690,1
DA:691,1
DA:692,1
DA:693,1
DA:694,1
DA:695,1
DA:696,1
DA:699,1
DA:700,1
DA:701,1
DA:702,1
DA:705,1
DA:706,1
DA:707,1
DA:708,1
DA:711,1
DA:712,1
DA:713,1
DA:714,1
DA:717,1
DA:718,1
DA:719,1
DA:720,1
DA:721,1
DA:726,1
DA:727,1
DA:728,1
DA:729,1
DA:732,1
DA:733,1
DA:734,1
DA:735,1
DA:740,1
DA:741,1
DA:742,1
DA:743,1
DA:748,1
DA:749,1
DA:750,1
DA:751,1
DA:752,1
DA:757,1
DA:758,1
DA:759,1
DA:760,1
DA:761,1
DA:764,1
DA:765,1
DA:766,1
DA:767,1
DA:768,1
DA:769,1
DA:772,1
DA:773,1
DA:774,1
DA:775,1
DA:776,1
DA:777,1
DA:780,1
DA:783,1
DA:784,1
DA:785,1
DA:786,1
DA:789,1
DA:790,1
DA:791,1
DA:792,1
DA:793,1
DA:796,1
DA:797,1
DA:800,1
DA:801,1
DA:802,1
DA:805,1
DA:807,1
DA:808,1
DA:811,1
DA:812,1
DA:813,1
DA:816,1
DA:817,1
DA:818,1
DA:821,1
DA:822,1
DA:823,1
BRF:0
BRH:0
LF:490
LH:484
end_of_record
SF:/home/liu/proj/toy-kv-engine/kv-engine/src/lsm_iterator.rs
FN:263,_RNvMs2_NtCs3ksH6Jg0luU_9kv_engine12lsm_iteratorNtB5_12ScanIterator10into_inner
FN:118,_RNvMNtCs3ksH6Jg0luU_9kv_engine12lsm_iteratorNtB2_11LsmIterator11check_bound
FN:73,_RNvMNtCs3ksH6Jg0luU_9kv_engine12lsm_iteratorNtB2_11LsmIterator15skip_tombstones
FN:65,_RNvMNtCs3ksH6Jg0luU_9kv_engine12lsm_iteratorNtB2_11LsmIterator18is_tombstone_value
FN:37,_RNvMNtCs3ksH6Jg0luU_9kv_engine12lsm_iteratorNtB2_11LsmIterator3new
FN:256,_RNvMs2_NtCs3ksH6Jg0luU_9kv_engine12lsm_iteratorNtB5_12ScanIterator3new
FN:290,_RNvXs3_NtCs3ksH6Jg0luU_9kv_engine12lsm_iteratorNtB5_12ScanIteratorNtNtB7_9iterators15StorageIterator20num_active_iterators
FN:278,_RNvXs3_NtCs3ksH6Jg0luU_9kv_engine12lsm_iteratorNtB5_12ScanIteratorNtNtB7_9iterators15StorageIterator3key
FN:286,_RNvXs3_NtCs3ksH6Jg0luU_9kv_engine12lsm_iteratorNtB5_12ScanIteratorNtNtB7_9iterators15StorageIterator4next
FN:274,_RNvXs3_NtCs3ksH6Jg0luU_9kv_engine12lsm_iteratorNtB5_12ScanIteratorNtNtB7_9iterators15StorageIterator5value
FN:282,_RNvXs3_NtCs3ksH6Jg0luU_9kv_engine12lsm_iteratorNtB5_12ScanIteratorNtNtB7_9iterators15StorageIterator8is_valid
FN:176,_RNvXs_NtCs3ksH6Jg0luU_9kv_engine12lsm_iteratorNtB4_11LsmIteratorNtNtB6_9iterators15StorageIterator20num_active_iterators
FN:134,_RNvXs_NtCs3ksH6Jg0luU_9kv_engine12lsm_iteratorNtB4_11LsmIteratorNtNtB6_9iterators15StorageIterator3key
FN:146,_RNvXs_NtCs3ksH6Jg0luU_9kv_engine12lsm_iteratorNtB4_11LsmIteratorNtNtB6_9iterators15StorageIterator4next
FN:142,_RNvXs_NtCs3ksH6Jg0luU_9kv_engine12lsm_iteratorNtB4_11LsmIteratorNtNtB6_9iterators15StorageIterator5value
FN:130,_RNvXs_NtCs3ksH6Jg0luU_9kv_engine12lsm_iteratorNtB4_11LsmIteratorNtNtB6_9iterators15StorageIterator8is_valid
FN:90,_RNCNvMNtCs3ksH6Jg0luU_9kv_engine12lsm_iteratorNtB4_11LsmIterator15skip_tombstones0B6_
FN:191,_RNvMs0_NtCs3ksH6Jg0luU_9kv_engine12lsm_iteratorINtB5_13FusedIteratorNtB5_11LsmIteratorE3newB7_
FN:191,_RNvMs0_NtCs3ksH6Jg0luU_9kv_engine12lsm_iteratorINtB5_13FusedIteratorNtNtNtB7_5tests7harness12MockIteratorE3newB7_
FN:238,_RNvXs1_NtCs3ksH6Jg0luU_9kv_engine12lsm_iteratorINtB5_13FusedIteratorNtB5_11LsmIteratorENtNtB7_9iterators15StorageIterator20num_active_iteratorsB7_
FN:209,_RNvXs1_NtCs3ksH6Jg0luU_9kv_engine12lsm_iteratorINtB5_13FusedIteratorNtB5_11LsmIteratorENtNtB7_9iterators15StorageIterator3keyB7_
FN:223,_RNvXs1_NtCs3ksH6Jg0luU_9kv_engine12lsm_iteratorINtB5_13FusedIteratorNtB5_11LsmIteratorENtNtB7_9iterators15StorageIterator4nextB7_
FN:216,_RNvXs1_NtCs3ksH6Jg0luU_9kv_engine12lsm_iteratorINtB5_13FusedIteratorNtB5_11LsmIteratorENtNtB7_9iterators15StorageIterator5valueB7_
FN:205,_RNvXs1_NtCs3ksH6Jg0luU_9kv_engine12lsm_iteratorINtB5_13FusedIteratorNtB5_11LsmIteratorENtNtB7_9iterators15StorageIterator8is_validB7_
FN:223,_RNvXs1_NtCs3ksH6Jg0luU_9kv_engine12lsm_iteratorINtB5_13FusedIteratorNtNtNtB7_5tests7harness12MockIteratorENtNtB7_9iterators15StorageIterator4nextB7_
FN:205,_RNvXs1_NtCs3ksH6Jg0luU_9kv_engine12lsm_iteratorINtB5_13FusedIteratorNtNtNtB7_5tests7harness12MockIteratorENtNtB7_9iterators15StorageIterator8is_validB7_
FNDA:0,_RNvMs2_NtCs3ksH6Jg0luU_9kv_engine12lsm_iteratorNtB5_12ScanIterator10into_inner
FNDA:440362,_RNvMNtCs3ksH6Jg0luU_9kv_engine12lsm_iteratorNtB2_11LsmIterator11check_bound
FNDA:110128,_RNvMNtCs3ksH6Jg0luU_9kv_engine12lsm_iteratorNtB2_11LsmIterator15skip_tombstones
FNDA:110109,_RNvMNtCs3ksH6Jg0luU_9kv_engine12lsm_iteratorNtB2_11LsmIterator18is_tombstone_value
FNDA:42,_RNvMNtCs3ksH6Jg0luU_9kv_engine12lsm_iteratorNtB2_11LsmIterator3new
FNDA:40,_RNvMs2_NtCs3ksH6Jg0luU_9kv_engine12lsm_iteratorNtB5_12ScanIterator3new
FNDA:11,_RNvXs3_NtCs3ksH6Jg0luU_9kv_engine12lsm_iteratorNtB5_12ScanIteratorNtNtB7_9iterators15StorageIterator20num_active_iterators
FNDA:110082,_RNvXs3_NtCs3ksH6Jg0luU_9kv_engine12lsm_iteratorNtB5_12ScanIteratorNtNtB7_9iterators15StorageIterator3key
FNDA:110088,_RNvXs3_NtCs3ksH6Jg0luU_9kv_engine12lsm_iteratorNtB5_12ScanIteratorNtNtB7_9iterators15StorageIterator4next
FNDA:110060,_RNvXs3_NtCs3ksH6Jg0luU_9kv_engine12lsm_iteratorNtB5_12ScanIteratorNtNtB7_9iterators15StorageIterator5value
FNDA:110118,_RNvXs3_NtCs3ksH6Jg0luU_9kv_engine12lsm_iteratorNtB5_12ScanIteratorNtNtB7_9iterators15StorageIterator8is_valid
FNDA:11,_RNvXs_NtCs3ksH6Jg0luU_9kv_engine12lsm_iteratorNtB4_11LsmIteratorNtNtB6_9iterators15StorageIterator20num_active_iterators
FNDA:110086,_RNvXs_NtCs3ksH6Jg0luU_9kv_engine12lsm_iteratorNtB4_11LsmIteratorNtNtB6_9iterators15StorageIterator3key
FNDA:110086,_RNvXs_NtCs3ksH6Jg0luU_9kv_engine12lsm_iteratorNtB4_11LsmIteratorNtNtB6_9iterators15StorageIterator4next
FNDA:110060,_RNvXs_NtCs3ksH6Jg0luU_9kv_engine12lsm_iteratorNtB4_11LsmIteratorNtNtB6_9iterators15StorageIterator5value
FNDA:440362,_RNvXs_NtCs3ksH6Jg0luU_9kv_engine12lsm_iteratorNtB4_11LsmIteratorNtNtB6_9iterators15StorageIterator8is_valid
FNDA:110114,_RNCNvMNtCs3ksH6Jg0luU_9kv_engine12lsm_iteratorNtB4_11LsmIterator15skip_tombstones0B6_
FNDA:42,_RNvMs0_NtCs3ksH6Jg0luU_9kv_engine12lsm_iteratorINtB5_13FusedIteratorNtB5_11LsmIteratorE3newB7_
FNDA:2,_RNvMs0_NtCs3ksH6Jg0luU_9kv_engine12lsm_iteratorINtB5_13FusedIteratorNtNtNtB7_5tests7harness12MockIteratorE3newB7_
FNDA:11,_RNvXs1_NtCs3ksH6Jg0luU_9kv_engine12lsm_iteratorINtB5_13FusedIteratorNtB5_11LsmIteratorENtNtB7_9iterators15StorageIterator20num_active_iteratorsB7_
FNDA:110086,_RNvXs1_NtCs3ksH6Jg0luU_9kv_engine12lsm_iteratorINtB5_13FusedIteratorNtB5_11LsmIteratorENtNtB7_9iterators15StorageIterator3keyB7_
FNDA:110092,_RNvXs1_NtCs3ksH6Jg0luU_9kv_engine12lsm_iteratorINtB5_13FusedIteratorNtB5_11LsmIteratorENtNtB7_9iterators15StorageIterator4nextB7_
FNDA:110060,_RNvXs1_NtCs3ksH6Jg0luU_9kv_engine12lsm_iteratorINtB5_13FusedIteratorNtB5_11LsmIteratorENtNtB7_9iterators15StorageIterator5valueB7_
FNDA:330270,_RNvXs1_NtCs3ksH6Jg0luU_9kv_engine12lsm_iteratorINtB5_13FusedIteratorNtB5_11LsmIteratorENtNtB7_9iterators15StorageIterator8is_validB7_
FNDA:6,_RNvXs1_NtCs3ksH6Jg0luU_9kv_engine12lsm_iteratorINtB5_13FusedIteratorNtNtNtB7_5tests7harness12MockIteratorENtNtB7_9iterators15StorageIterator4nextB7_
FNDA:4,_RNvXs1_NtCs3ksH6Jg0luU_9kv_engine12lsm_iteratorINtB5_13FusedIteratorNtNtNtB7_5tests7harness12MockIteratorENtNtB7_9iterators15StorageIterator8is_validB7_
FNF:23
FNH:22
DA:37,42
DA:38,42
DA:39,42
DA:40,42
DA:41,42
DA:42,42
DA:44,42
DA:46,42
DA:47,38
DA:48,38
DA:49,38
DA:50,38
DA:52,4
DA:55,42
DA:56,42
DA:57,42
DA:58,42
DA:59,42
DA:60,42
DA:61,42
DA:62,42
DA:65,110109
DA:66,110109
DA:67,110109
DA:73,110128
DA:74,110128
DA:75,110143
DA:78,110112
DA:79,110112
DA:80,110112
DA:81,110112
DA:83,110112
DA:84,110117
DA:85,110116
DA:90,110114
DA:92,5
DA:95,110112
DA:97,3
DA:98,110109
DA:99,0
DA:100,110109
DA:101,110097
DA:102,12
DA:104,12
DA:105,35
DA:106,32
DA:108,23
DA:111,0
DA:114,31
DA:115,110128
DA:118,440362
DA:119,440362
DA:120,440314
DA:121,20
DA:122,28
DA:124,440362
DA:130,440362
DA:131,440362
DA:132,440362
DA:134,110086
DA:135,110086
DA:136,110086
DA:138,0
DA:140,110086
DA:142,110060
DA:143,110060
DA:144,110060
DA:146,110086
DA:147,110086
DA:151,310196
DA:152,310173
DA:154,200110
DA:157,110086
DA:159,110086
DA:160,110059
DA:161,110059
DA:162,110059
DA:163,110059
DA:164,110059
DA:166,0
DA:168,0
DA:169,0
DA:173,110086
DA:174,110086
DA:176,11
DA:177,11
DA:178,11
DA:191,44
DA:192,44
DA:193,44
DA:194,44
DA:195,44
DA:196,44
DA:205,330274
DA:206,330274
DA:207,330274
DA:209,110086
DA:210,110086
DA:211,0
DA:212,110086
DA:213,110086
DA:214,110086
DA:216,110060
DA:217,110060
DA:218,0
DA:219,110060
DA:220,110060
DA:221,110060
DA:223,110098
DA:224,110098
DA:225,2
DA:226,110096
DA:228,110096
DA:229,110087
DA:231,1
DA:232,1
DA:233,110095
DA:235,110095
DA:236,110098
DA:238,11
DA:239,11
DA:240,11
DA:256,40
DA:257,40
DA:258,40
DA:259,40
DA:260,40
DA:261,40
DA:263,0
DA:264,0
DA:265,0
DA:274,110060
DA:275,110060
DA:276,110060
DA:278,110082
DA:279,110082
DA:280,110082
DA:282,110118
DA:283,110118
DA:284,110118
DA:286,110088
DA:287,110088
DA:288,110088
DA:290,11
DA:291,11
DA:292,11
BRF:0
BRH:0
LF:147
LH:136
end_of_record
SF:/home/liu/proj/toy-kv-engine/kv-engine/src/lsm_storage.rs
FN:224,_RNvXs0_NtCs3ksH6Jg0luU_9kv_engine11lsm_storageNtB5_8KvEngineNtNtNtCslfAf2Mv2Tp5_4core3ops4drop4Drop4drop
FN:302,_RNvMs1_NtCs3ksH6Jg0luU_9kv_engine11lsm_storageNtB5_8KvEngine21add_compaction_filter
FN:318,_RNvMs1_NtCs3ksH6Jg0luU_9kv_engine11lsm_storageNtB5_8KvEngine4sync
FN:721,_RNvMs2_NtCs3ksH6Jg0luU_9kv_engine11lsm_storageNtB5_15LsmStorageInner21add_compaction_filter
FN:1321,_RNvMs2_NtCs3ksH6Jg0luU_9kv_engine11lsm_storageNtB5_15LsmStorageInner25compare_and_set_with_kind
FN:298,_RINvMs1_NtCs3ksH6Jg0luU_9kv_engine11lsm_storageNtB6_8KvEngine11write_batchRShEB8_
FN:271,_RINvMs1_NtCs3ksH6Jg0luU_9kv_engine11lsm_storageNtB6_8KvEngine4openRNtNtCs5uWf4xGOoVW_8tempfile3dir7TempDirEB8_
FN:271,_RINvMs1_NtCs3ksH6Jg0luU_9kv_engine11lsm_storageNtB6_8KvEngine4openRNtNtCskaANe6KdTWL_3std4path4PathEB8_
FN:1439,_RINvMs2_NtCs3ksH6Jg0luU_9kv_engine11lsm_storageNtB6_15LsmStorageInner11write_batchRShEB8_
FN:1596,_RINvMs2_NtCs3ksH6Jg0luU_9kv_engine11lsm_storageNtB6_15LsmStorageInner18path_of_sst_staticRNtNtCskaANe6KdTWL_3std4path4PathEB8_
FN:1596,_RINvMs2_NtCs3ksH6Jg0luU_9kv_engine11lsm_storageNtB6_15LsmStorageInner18path_of_sst_staticRNtNtCskaANe6KdTWL_3std4path7PathBufEB8_
FN:1604,_RINvMs2_NtCs3ksH6Jg0luU_9kv_engine11lsm_storageNtB6_15LsmStorageInner18path_of_wal_staticRNtNtCs5uWf4xGOoVW_8tempfile3dir7TempDirEB8_
FN:1604,_RINvMs2_NtCs3ksH6Jg0luU_9kv_engine11lsm_storageNtB6_15LsmStorageInner18path_of_wal_staticRNtNtCskaANe6KdTWL_3std4path4PathEB8_
FN:1604,_RINvMs2_NtCs3ksH6Jg0luU_9kv_engine11lsm_storageNtB6_15LsmStorageInner18path_of_wal_staticRNtNtCskaANe6KdTWL_3std4path7PathBufEB8_
FN:428,_RINvMs2_NtCs3ksH6Jg0luU_9kv_engine11lsm_storageNtB6_15LsmStorageInner4openRNtNtCs5uWf4xGOoVW_8tempfile3dir7TempDirEB8_
FN:428,_RINvMs2_NtCs3ksH6Jg0luU_9kv_engine11lsm_storageNtB6_15LsmStorageInner4openRNtNtCskaANe6KdTWL_3std4path4PathEB8_
FN:1455,_RNCINvMs2_NtCs3ksH6Jg0luU_9kv_engine11lsm_storageNtB8_15LsmStorageInner11write_batchRShE0Ba_
FN:1509,_RNCINvMs2_NtCs3ksH6Jg0luU_9kv_engine11lsm_storageNtB8_15LsmStorageInner11write_batchRShEs0_0Ba_
FN:1468,_RNCINvMs2_NtCs3ksH6Jg0luU_9kv_engine11lsm_storageNtB8_15LsmStorageInner11write_batchRShEs_0Ba_
FN:68,_RNCNvMNtCs3ksH6Jg0luU_9kv_engine11lsm_storageNtB4_15LsmStorageState6create0B6_
FN:379,_RNCNvMs1_NtCs3ksH6Jg0luU_9kv_engine11lsm_storageNtB7_8KvEngine10trigger_gc0B9_
FN:410,_RNCNvMs1_NtCs3ksH6Jg0luU_9kv_engine11lsm_storageNtB7_8KvEngine11cache_stats0B9_
FN:234,_RNCNvMs1_NtCs3ksH6Jg0luU_9kv_engine11lsm_storageNtB7_8KvEngine5close0B9_
FN:238,_RNCNvMs1_NtCs3ksH6Jg0luU_9kv_engine11lsm_storageNtB7_8KvEngine5closes_0B9_
FN:898,_RNCNvMs2_NtCs3ksH6Jg0luU_9kv_engine11lsm_storageNtB7_15LsmStorageInner10scan_inner0B9_
FN:905,_RNCNvMs2_NtCs3ksH6Jg0luU_9kv_engine11lsm_storageNtB7_15LsmStorageInner10scan_inners0_0B9_
FN:899,_RNCNvMs2_NtCs3ksH6Jg0luU_9kv_engine11lsm_storageNtB7_15LsmStorageInner10scan_inners_0B9_
FN:1211,_RNCNvMs2_NtCs3ksH6Jg0luU_9kv_engine11lsm_storageNtB7_15LsmStorageInner14lookup_sst_raw0B9_
FN:1240,_RNCNvMs2_NtCs3ksH6Jg0luU_9kv_engine11lsm_storageNtB7_15LsmStorageInner14lookup_sst_raws0_0B9_
FN:1271,_RNCNvMs2_NtCs3ksH6Jg0luU_9kv_engine11lsm_storageNtB7_15LsmStorageInner14lookup_sst_raws1_0B9_
FN:1278,_RNCNvMs2_NtCs3ksH6Jg0luU_9kv_engine11lsm_storageNtB7_15LsmStorageInner14lookup_sst_raws2_0B9_
FN:1227,_RNCNvMs2_NtCs3ksH6Jg0luU_9kv_engine11lsm_storageNtB7_15LsmStorageInner14lookup_sst_raws_0B9_
FN:1087,_RNCNvMs2_NtCs3ksH6Jg0luU_9kv_engine11lsm_storageNtB7_15LsmStorageInner19get_with_kind_inner0B9_
FN:1088,_RNCNvMs2_NtCs3ksH6Jg0luU_9kv_engine11lsm_storageNtB7_15LsmStorageInner19get_with_kind_inners_0B9_
FN:1662,_RNCNvMs2_NtCs3ksH6Jg0luU_9kv_engine11lsm_storageNtB7_15LsmStorageInner23maybe_snapshot_manifest0B9_
FN:785,_RNCNvMs2_NtCs3ksH6Jg0luU_9kv_engine11lsm_storageNtB7_15LsmStorageInner24resolve_vlog_value_bytes0B9_
FN:795,_RNCNvMs2_NtCs3ksH6Jg0luU_9kv_engine11lsm_storageNtB7_15LsmStorageInner24resolve_vlog_value_bytess_0B9_
FN:1734,_RNCNvMs2_NtCs3ksH6Jg0luU_9kv_engine11lsm_storageNtB7_15LsmStorageInner29force_flush_next_imm_memtable0B9_
FN:1428,_RNCNvMs2_NtCs3ksH6Jg0luU_9kv_engine11lsm_storageNtB7_15LsmStorageInner31compare_and_set_batch_with_kind0B9_
FN:733,_RNCNvMs2_NtCs3ksH6Jg0luU_9kv_engine11lsm_storageNtB7_15LsmStorageInner3get0B9_
FN:734,_RNCNvMs2_NtCs3ksH6Jg0luU_9kv_engine11lsm_storageNtB7_15LsmStorageInner3gets_0B9_
FN:1546,_RNCNvMs2_NtCs3ksH6Jg0luU_9kv_engine11lsm_storageNtB7_15LsmStorageInner3put0B9_
FN:1862,_RNCNvMs2_NtCs3ksH6Jg0luU_9kv_engine11lsm_storageNtB7_15LsmStorageInner4scan0B9_
FN:1863,_RNCNvMs2_NtCs3ksH6Jg0luU_9kv_engine11lsm_storageNtB7_15LsmStorageInner4scans_0B9_
FN:1573,_RNCNvMs2_NtCs3ksH6Jg0luU_9kv_engine11lsm_storageNtB7_15LsmStorageInner6delete0B9_
FN:63,_RNvMNtCs3ksH6Jg0luU_9kv_engine11lsm_storageNtB2_15LsmStorageState6create
FN:361,_RNvMs1_NtCs3ksH6Jg0luU_9kv_engine11lsm_storageNtB5_8KvEngine10trigger_gc
FN:397,_RNvMs1_NtCs3ksH6Jg0luU_9kv_engine11lsm_storageNtB5_8KvEngine10vlog_stats
FN:405,_RNvMs1_NtCs3ksH6Jg0luU_9kv_engine11lsm_storageNtB5_8KvEngine11cache_stats
FN:346,_RNvMs1_NtCs3ksH6Jg0luU_9kv_engine11lsm_storageNtB5_8KvEngine11drain_flush
FN:327,_RNvMs1_NtCs3ksH6Jg0luU_9kv_engine11lsm_storageNtB5_8KvEngine11force_flush
FN:355,_RNvMs1_NtCs3ksH6Jg0luU_9kv_engine11lsm_storageNtB5_8KvEngine21force_full_compaction
FN:306,_RNvMs1_NtCs3ksH6Jg0luU_9kv_engine11lsm_storageNtB5_8KvEngine3get
FN:310,_RNvMs1_NtCs3ksH6Jg0luU_9kv_engine11lsm_storageNtB5_8KvEngine3put
FN:322,_RNvMs1_NtCs3ksH6Jg0luU_9kv_engine11lsm_storageNtB5_8KvEngine4scan
FN:231,_RNvMs1_NtCs3ksH6Jg0luU_9kv_engine11lsm_storageNtB5_8KvEngine5close
FN:314,_RNvMs1_NtCs3ksH6Jg0luU_9kv_engine11lsm_storageNtB5_8KvEngine6delete
FN:294,_RNvMs1_NtCs3ksH6Jg0luU_9kv_engine11lsm_storageNtB5_8KvEngine7new_txn
FN:875,_RNvMs2_NtCs3ksH6Jg0luU_9kv_engine11lsm_storageNtB5_15LsmStorageInner10scan_inner
FN:846,_RNvMs2_NtCs3ksH6Jg0luU_9kv_engine11lsm_storageNtB5_15LsmStorageInner11get_with_ts
FN:421,_RNvMs2_NtCs3ksH6Jg0luU_9kv_engine11lsm_storageNtB5_15LsmStorageInner11next_sst_id
FN:1600,_RNvMs2_NtCs3ksH6Jg0luU_9kv_engine11lsm_storageNtB5_15LsmStorageInner11path_of_sst
FN:1608,_RNvMs2_NtCs3ksH6Jg0luU_9kv_engine11lsm_storageNtB5_15LsmStorageInner11path_of_wal
FN:1060,_RNvMs2_NtCs3ksH6Jg0luU_9kv_engine11lsm_storageNtB5_15LsmStorageInner12record_write
FN:865,_RNvMs2_NtCs3ksH6Jg0luU_9kv_engine11lsm_storageNtB5_15LsmStorageInner12scan_with_ts
FN:1299,_RNvMs2_NtCs3ksH6Jg0luU_9kv_engine11lsm_storageNtB5_15LsmStorageInner12values_match
FN:840,_RNvMs2_NtCs3ksH6Jg0luU_9kv_engine11lsm_storageNtB5_15LsmStorageInner13get_with_kind
FN:763,_RNvMs2_NtCs3ksH6Jg0luU_9kv_engine11lsm_storageNtB5_15LsmStorageInner13resolve_value
FN:1181,_RNvMs2_NtCs3ksH6Jg0luU_9kv_engine11lsm_storageNtB5_15LsmStorageInner14lookup_sst_raw
FN:1109,_RNvMs2_NtCs3ksH6Jg0luU_9kv_engine11lsm_storageNtB5_15LsmStorageInner15lookup_memtable
FN:1045,_RNvMs2_NtCs3ksH6Jg0luU_9kv_engine11lsm_storageNtB5_15LsmStorageInner16mvcc_write_batch
FN:819,_RNvMs2_NtCs3ksH6Jg0luU_9kv_engine11lsm_storageNtB5_15LsmStorageInner16parse_value_kind
FN:815,_RNvMs2_NtCs3ksH6Jg0luU_9kv_engine11lsm_storageNtB5_15LsmStorageInner18is_tombstone_value
FN:1081,_RNvMs2_NtCs3ksH6Jg0luU_9kv_engine11lsm_storageNtB5_15LsmStorageInner19get_with_kind_inner
FN:1517,_RNvMs2_NtCs3ksH6Jg0luU_9kv_engine11lsm_storageNtB5_15LsmStorageInner19try_freeze_memtable
FN:1686,_RNvMs2_NtCs3ksH6Jg0luU_9kv_engine11lsm_storageNtB5_15LsmStorageInner21force_freeze_memtable
FN:1066,_RNvMs2_NtCs3ksH6Jg0luU_9kv_engine11lsm_storageNtB5_15LsmStorageInner22mvcc_write_batch_inner
FN:1622,_RNvMs2_NtCs3ksH6Jg0luU_9kv_engine11lsm_storageNtB5_15LsmStorageInner23maybe_snapshot_manifest
FN:779,_RNvMs2_NtCs3ksH6Jg0luU_9kv_engine11lsm_storageNtB5_15LsmStorageInner24resolve_vlog_value_bytes
FN:1713,_RNvMs2_NtCs3ksH6Jg0luU_9kv_engine11lsm_storageNtB5_15LsmStorageInner29force_flush_next_imm_memtable
FN:1670,_RNvMs2_NtCs3ksH6Jg0luU_9kv_engine11lsm_storageNtB5_15LsmStorageInner30force_freeze_with_new_memtable
FN:1362,_RNvMs2_NtCs3ksH6Jg0luU_9kv_engine11lsm_storageNtB5_15LsmStorageInner31compare_and_set_batch_with_kind
FN:727,_RNvMs2_NtCs3ksH6Jg0luU_9kv_engine11lsm_storageNtB5_15LsmStorageInner3get
FN:1540,_RNvMs2_NtCs3ksH6Jg0luU_9kv_engine11lsm_storageNtB5_15LsmStorageInner3put
FN:1855,_RNvMs2_NtCs3ksH6Jg0luU_9kv_engine11lsm_storageNtB5_15LsmStorageInner4scan
FN:717,_RNvMs2_NtCs3ksH6Jg0luU_9kv_engine11lsm_storageNtB5_15LsmStorageInner4sync
FN:1571,_RNvMs2_NtCs3ksH6Jg0luU_9kv_engine11lsm_storageNtB5_15LsmStorageInner6delete
FN:1849,_RNvMs2_NtCs3ksH6Jg0luU_9kv_engine11lsm_storageNtB5_15LsmStorageInner7new_txn
FN:1869,_RNvMs2_NtCs3ksH6Jg0luU_9kv_engine11lsm_storageNtB5_15LsmStorageInner8into_vec
FN:1613,_RNvMs2_NtCs3ksH6Jg0luU_9kv_engine11lsm_storageNtB5_15LsmStorageInner8sync_dir
FN:115,_RNvMs_NtCs3ksH6Jg0luU_9kv_engine11lsm_storageNtB4_17LsmStorageOptions16default_for_test
FN:145,_RNvMs_NtCs3ksH6Jg0luU_9kv_engine11lsm_storageNtB4_17LsmStorageOptions27default_for_compaction_test
FN:130,_RNvMs_NtCs3ksH6Jg0luU_9kv_engine11lsm_storageNtB4_17LsmStorageOptions27default_for_scan_flush_test
FNDA:130,_RNvXs0_NtCs3ksH6Jg0luU_9kv_engine11lsm_storageNtB5_8KvEngineNtNtNtCslfAf2Mv2Tp5_4core3ops4drop4Drop4drop
FNDA:0,_RNvMs1_NtCs3ksH6Jg0luU_9kv_engine11lsm_storageNtB5_8KvEngine21add_compaction_filter
FNDA:0,_RNvMs1_NtCs3ksH6Jg0luU_9kv_engine11lsm_storageNtB5_8KvEngine4sync
FNDA:0,_RNvMs2_NtCs3ksH6Jg0luU_9kv_engine11lsm_storageNtB5_15LsmStorageInner21add_compaction_filter
FNDA:0,_RNvMs2_NtCs3ksH6Jg0luU_9kv_engine11lsm_storageNtB5_15LsmStorageInner25compare_and_set_with_kind
FNDA:8,_RINvMs1_NtCs3ksH6Jg0luU_9kv_engine11lsm_storageNtB6_8KvEngine11write_batchRShEB8_
FNDA:70,_RINvMs1_NtCs3ksH6Jg0luU_9kv_engine11lsm_storageNtB6_8KvEngine4openRNtNtCs5uWf4xGOoVW_8tempfile3dir7TempDirEB8_
FNDA:60,_RINvMs1_NtCs3ksH6Jg0luU_9kv_engine11lsm_storageNtB6_8KvEngine4openRNtNtCskaANe6KdTWL_3std4path4PathEB8_
FNDA:8,_RINvMs2_NtCs3ksH6Jg0luU_9kv_engine11lsm_storageNtB6_15LsmStorageInner11write_batchRShEB8_
FNDA:79,_RINvMs2_NtCs3ksH6Jg0luU_9kv_engine11lsm_storageNtB6_15LsmStorageInner18path_of_sst_staticRNtNtCskaANe6KdTWL_3std4path4PathEB8_
FNDA:446,_RINvMs2_NtCs3ksH6Jg0luU_9kv_engine11lsm_storageNtB6_15LsmStorageInner18path_of_sst_staticRNtNtCskaANe6KdTWL_3std4path7PathBufEB8_
FNDA:6,_RINvMs2_NtCs3ksH6Jg0luU_9kv_engine11lsm_storageNtB6_15LsmStorageInner18path_of_wal_staticRNtNtCs5uWf4xGOoVW_8tempfile3dir7TempDirEB8_
FNDA:80,_RINvMs2_NtCs3ksH6Jg0luU_9kv_engine11lsm_storageNtB6_15LsmStorageInner18path_of_wal_staticRNtNtCskaANe6KdTWL_3std4path4PathEB8_
FNDA:83,_RINvMs2_NtCs3ksH6Jg0luU_9kv_engine11lsm_storageNtB6_15LsmStorageInner18path_of_wal_staticRNtNtCskaANe6KdTWL_3std4path7PathBufEB8_
FNDA:89,_RINvMs2_NtCs3ksH6Jg0luU_9kv_engine11lsm_storageNtB6_15LsmStorageInner4openRNtNtCs5uWf4xGOoVW_8tempfile3dir7TempDirEB8_
FNDA:65,_RINvMs2_NtCs3ksH6Jg0luU_9kv_engine11lsm_storageNtB6_15LsmStorageInner4openRNtNtCskaANe6KdTWL_3std4path4PathEB8_
FNDA:8,_RNCINvMs2_NtCs3ksH6Jg0luU_9kv_engine11lsm_storageNtB8_15LsmStorageInner11write_batchRShE0Ba_
FNDA:0,_RNCINvMs2_NtCs3ksH6Jg0luU_9kv_engine11lsm_storageNtB8_15LsmStorageInner11write_batchRShEs0_0Ba_
FNDA:18,_RNCINvMs2_NtCs3ksH6Jg0luU_9kv_engine11lsm_storageNtB8_15LsmStorageInner11write_batchRShEs_0Ba_
FNDA:64,_RNCNvMNtCs3ksH6Jg0luU_9kv_engine11lsm_storageNtB4_15LsmStorageState6create0B6_
FNDA:6,_RNCNvMs1_NtCs3ksH6Jg0luU_9kv_engine11lsm_storageNtB7_8KvEngine10trigger_gc0B9_
FNDA:1,_RNCNvMs1_NtCs3ksH6Jg0luU_9kv_engine11lsm_storageNtB7_8KvEngine11cache_stats0B9_
FNDA:0,_RNCNvMs1_NtCs3ksH6Jg0luU_9kv_engine11lsm_storageNtB7_8KvEngine5close0B9_
FNDA:0,_RNCNvMs1_NtCs3ksH6Jg0luU_9kv_engine11lsm_storageNtB7_8KvEngine5closes_0B9_
FNDA:11,_RNCNvMs2_NtCs3ksH6Jg0luU_9kv_engine11lsm_storageNtB7_15LsmStorageInner10scan_inner0B9_
FNDA:17,_RNCNvMs2_NtCs3ksH6Jg0luU_9kv_engine11lsm_storageNtB7_15LsmStorageInner10scan_inners0_0B9_
FNDA:10,_RNCNvMs2_NtCs3ksH6Jg0luU_9kv_engine11lsm_storageNtB7_15LsmStorageInner10scan_inners_0B9_
FNDA:0,_RNCNvMs2_NtCs3ksH6Jg0luU_9kv_engine11lsm_storageNtB7_15LsmStorageInner14lookup_sst_raw0B9_
FNDA:1239462,_RNCNvMs2_NtCs3ksH6Jg0luU_9kv_engine11lsm_storageNtB7_15LsmStorageInner14lookup_sst_raws0_0B9_
FNDA:20,_RNCNvMs2_NtCs3ksH6Jg0luU_9kv_engine11lsm_storageNtB7_15LsmStorageInner14lookup_sst_raws1_0B9_
FNDA:0,_RNCNvMs2_NtCs3ksH6Jg0luU_9kv_engine11lsm_storageNtB7_15LsmStorageInner14lookup_sst_raws2_0B9_
FNDA:195754,_RNCNvMs2_NtCs3ksH6Jg0luU_9kv_engine11lsm_storageNtB7_15LsmStorageInner14lookup_sst_raws_0B9_
FNDA:124,_RNCNvMs2_NtCs3ksH6Jg0luU_9kv_engine11lsm_storageNtB7_15LsmStorageInner19get_with_kind_inner0B9_
FNDA:124,_RNCNvMs2_NtCs3ksH6Jg0luU_9kv_engine11lsm_storageNtB7_15LsmStorageInner19get_with_kind_inners_0B9_
FNDA:1,_RNCNvMs2_NtCs3ksH6Jg0luU_9kv_engine11lsm_storageNtB7_15LsmStorageInner23maybe_snapshot_manifest0B9_
FNDA:0,_RNCNvMs2_NtCs3ksH6Jg0luU_9kv_engine11lsm_storageNtB7_15LsmStorageInner24resolve_vlog_value_bytes0B9_
FNDA:0,_RNCNvMs2_NtCs3ksH6Jg0luU_9kv_engine11lsm_storageNtB7_15LsmStorageInner24resolve_vlog_value_bytess_0B9_
FNDA:0,_RNCNvMs2_NtCs3ksH6Jg0luU_9kv_engine11lsm_storageNtB7_15LsmStorageInner29force_flush_next_imm_memtable0B9_
FNDA:25,_RNCNvMs2_NtCs3ksH6Jg0luU_9kv_engine11lsm_storageNtB7_15LsmStorageInner31compare_and_set_batch_with_kind0B9_
FNDA:195727,_RNCNvMs2_NtCs3ksH6Jg0luU_9kv_engine11lsm_storageNtB7_15LsmStorageInner3get0B9_
FNDA:195727,_RNCNvMs2_NtCs3ksH6Jg0luU_9kv_engine11lsm_storageNtB7_15LsmStorageInner3gets_0B9_
FNDA:217295,_RNCNvMs2_NtCs3ksH6Jg0luU_9kv_engine11lsm_storageNtB7_15LsmStorageInner3put0B9_
FNDA:40,_RNCNvMs2_NtCs3ksH6Jg0luU_9kv_engine11lsm_storageNtB7_15LsmStorageInner4scan0B9_
FNDA:40,_RNCNvMs2_NtCs3ksH6Jg0luU_9kv_engine11lsm_storageNtB7_15LsmStorageInner4scans_0B9_
FNDA:1156,_RNCNvMs2_NtCs3ksH6Jg0luU_9kv_engine11lsm_storageNtB7_15LsmStorageInner6delete0B9_
FNDA:154,_RNvMNtCs3ksH6Jg0luU_9kv_engine11lsm_storageNtB2_15LsmStorageState6create
FNDA:5,_RNvMs1_NtCs3ksH6Jg0luU_9kv_engine11lsm_storageNtB5_8KvEngine10trigger_gc
FNDA:15,_RNvMs1_NtCs3ksH6Jg0luU_9kv_engine11lsm_storageNtB5_8KvEngine10vlog_stats
FNDA:2,_RNvMs1_NtCs3ksH6Jg0luU_9kv_engine11lsm_storageNtB5_8KvEngine11cache_stats
FNDA:4,_RNvMs1_NtCs3ksH6Jg0luU_9kv_engine11lsm_storageNtB5_8KvEngine11drain_flush
FNDA:15,_RNvMs1_NtCs3ksH6Jg0luU_9kv_engine11lsm_storageNtB5_8KvEngine11force_flush
FNDA:3,_RNvMs1_NtCs3ksH6Jg0luU_9kv_engine11lsm_storageNtB5_8KvEngine21force_full_compaction
FNDA:195690,_RNvMs1_NtCs3ksH6Jg0luU_9kv_engine11lsm_storageNtB5_8KvEngine3get
FNDA:206232,_RNvMs1_NtCs3ksH6Jg0luU_9kv_engine11lsm_storageNtB5_8KvEngine3put
FNDA:25,_RNvMs1_NtCs3ksH6Jg0luU_9kv_engine11lsm_storageNtB5_8KvEngine4scan
FNDA:11,_RNvMs1_NtCs3ksH6Jg0luU_9kv_engine11lsm_storageNtB5_8KvEngine5close
FNDA:139,_RNvMs1_NtCs3ksH6Jg0luU_9kv_engine11lsm_storageNtB5_8KvEngine6delete
FNDA:38,_RNvMs1_NtCs3ksH6Jg0luU_9kv_engine11lsm_storageNtB5_8KvEngine7new_txn
FNDA:42,_RNvMs2_NtCs3ksH6Jg0luU_9kv_engine11lsm_storageNtB5_15LsmStorageInner10scan_inner
FNDA:17,_RNvMs2_NtCs3ksH6Jg0luU_9kv_engine11lsm_storageNtB5_15LsmStorageInner11get_with_ts
FNDA:435,_RNvMs2_NtCs3ksH6Jg0luU_9kv_engine11lsm_storageNtB5_15LsmStorageInner11next_sst_id
FNDA:446,_RNvMs2_NtCs3ksH6Jg0luU_9kv_engine11lsm_storageNtB5_15LsmStorageInner11path_of_sst
FNDA:83,_RNvMs2_NtCs3ksH6Jg0luU_9kv_engine11lsm_storageNtB5_15LsmStorageInner11path_of_wal
FNDA:13,_RNvMs2_NtCs3ksH6Jg0luU_9kv_engine11lsm_storageNtB5_15LsmStorageInner12record_write
FNDA:2,_RNvMs2_NtCs3ksH6Jg0luU_9kv_engine11lsm_storageNtB5_15LsmStorageInner12scan_with_ts
FNDA:45,_RNvMs2_NtCs3ksH6Jg0luU_9kv_engine11lsm_storageNtB5_15LsmStorageInner12values_match
FNDA:89,_RNvMs2_NtCs3ksH6Jg0luU_9kv_engine11lsm_storageNtB5_15LsmStorageInner13get_with_kind
FNDA:115732,_RNvMs2_NtCs3ksH6Jg0luU_9kv_engine11lsm_storageNtB5_15LsmStorageInner13resolve_value
FNDA:195754,_RNvMs2_NtCs3ksH6Jg0luU_9kv_engine11lsm_storageNtB5_15LsmStorageInner14lookup_sst_raw
FNDA:195868,_RNvMs2_NtCs3ksH6Jg0luU_9kv_engine11lsm_storageNtB5_15LsmStorageInner15lookup_memtable
FNDA:2,_RNvMs2_NtCs3ksH6Jg0luU_9kv_engine11lsm_storageNtB5_15LsmStorageInner16mvcc_write_batch
FNDA:115756,_RNvMs2_NtCs3ksH6Jg0luU_9kv_engine11lsm_storageNtB5_15LsmStorageInner16parse_value_kind
FNDA:110,_RNvMs2_NtCs3ksH6Jg0luU_9kv_engine11lsm_storageNtB5_15LsmStorageInner18is_tombstone_value
FNDA:124,_RNvMs2_NtCs3ksH6Jg0luU_9kv_engine11lsm_storageNtB5_15LsmStorageInner19get_with_kind_inner
FNDA:218478,_RNvMs2_NtCs3ksH6Jg0luU_9kv_engine11lsm_storageNtB5_15LsmStorageInner19try_freeze_memtable
FNDA:314,_RNvMs2_NtCs3ksH6Jg0luU_9kv_engine11lsm_storageNtB5_15LsmStorageInner21force_freeze_memtable
FNDA:17,_RNvMs2_NtCs3ksH6Jg0luU_9kv_engine11lsm_storageNtB5_15LsmStorageInner22mvcc_write_batch_inner
FNDA:589,_RNvMs2_NtCs3ksH6Jg0luU_9kv_engine11lsm_storageNtB5_15LsmStorageInner23maybe_snapshot_manifest
FNDA:93,_RNvMs2_NtCs3ksH6Jg0luU_9kv_engine11lsm_storageNtB5_15LsmStorageInner24resolve_vlog_value_bytes
FNDA:211,_RNvMs2_NtCs3ksH6Jg0luU_9kv_engine11lsm_storageNtB5_15LsmStorageInner29force_flush_next_imm_memtable
FNDA:322,_RNvMs2_NtCs3ksH6Jg0luU_9kv_engine11lsm_storageNtB5_15LsmStorageInner30force_freeze_with_new_memtable
FNDA:9,_RNvMs2_NtCs3ksH6Jg0luU_9kv_engine11lsm_storageNtB5_15LsmStorageInner31compare_and_set_batch_with_kind
FNDA:195727,_RNvMs2_NtCs3ksH6Jg0luU_9kv_engine11lsm_storageNtB5_15LsmStorageInner3get
FNDA:217296,_RNvMs2_NtCs3ksH6Jg0luU_9kv_engine11lsm_storageNtB5_15LsmStorageInner3put
FNDA:40,_RNvMs2_NtCs3ksH6Jg0luU_9kv_engine11lsm_storageNtB5_15LsmStorageInner4scan
FNDA:3,_RNvMs2_NtCs3ksH6Jg0luU_9kv_engine11lsm_storageNtB5_15LsmStorageInner4sync
FNDA:1156,_RNvMs2_NtCs3ksH6Jg0luU_9kv_engine11lsm_storageNtB5_15LsmStorageInner6delete
FNDA:39,_RNvMs2_NtCs3ksH6Jg0luU_9kv_engine11lsm_storageNtB5_15LsmStorageInner7new_txn
FNDA:42,_RNvMs2_NtCs3ksH6Jg0luU_9kv_engine11lsm_storageNtB5_15LsmStorageInner8into_vec
FNDA:737,_RNvMs2_NtCs3ksH6Jg0luU_9kv_engine11lsm_storageNtB5_15LsmStorageInner8sync_dir
FNDA:76,_RNvMs_NtCs3ksH6Jg0luU_9kv_engine11lsm_storageNtB4_17LsmStorageOptions16default_for_test
FNDA:11,_RNvMs_NtCs3ksH6Jg0luU_9kv_engine11lsm_storageNtB4_17LsmStorageOptions27default_for_compaction_test
FNDA:2,_RNvMs_NtCs3ksH6Jg0luU_9kv_engine11lsm_storageNtB4_17LsmStorageOptions27default_for_scan_flush_test
FNF:88
FNH:76
DA:63,154
DA:64,154
DA:65,16
DA:66,21
DA:67,21
DA:68,64
DA:69,21
DA:70,4
DA:71,129
DA:74,154
DA:75,45
DA:77,109
DA:79,154
DA:80,154
DA:81,154
DA:82,154
DA:84,154
DA:115,76
DA:116,76
DA:117,76
DA:118,76
DA:119,76
DA:120,76
DA:121,76
DA:122,76
DA:123,76
DA:124,76
DA:125,76
DA:126,76
DA:127,76
DA:128,76
DA:130,2
DA:131,2
DA:132,2
DA:133,2
DA:134,2
DA:135,2
DA:136,2
DA:137,2
DA:138,2
DA:139,2
DA:140,2
DA:141,2
DA:142,2
DA:143,2
DA:145,11
DA:146,11
DA:147,11
DA:148,11
DA:149,11
DA:150,11
DA:151,11
DA:152,11
DA:153,11
DA:154,11
DA:155,11
DA:156,11
DA:157,11
DA:158,11
DA:224,130
DA:225,130
DA:226,130
DA:227,130
DA:231,11
DA:232,11
DA:233,11
DA:234,11
DA:235,0
DA:236,11
DA:237,11
DA:238,6
DA:239,5
DA:241,11
DA:242,11
DA:243,0
DA:244,0
DA:245,11
DA:246,3
DA:247,3
DA:249,3
DA:250,8
DA:253,8
DA:254,8
DA:255,5
DA:257,3
DA:259,8
DA:262,79
DA:263,71
DA:266,8
DA:267,11
DA:271,130
DA:272,130
DA:275,130
DA:276,130
DA:277,130
DA:278,130
DA:279,130
DA:281,130
DA:282,130
DA:283,130
DA:284,130
DA:285,130
DA:286,130
DA:287,130
DA:288,130
DA:294,38
DA:295,38
DA:296,38
DA:298,8
DA:299,8
DA:300,8
DA:302,0
DA:303,0
DA:304,0
DA:306,195690
DA:307,195690
DA:308,195690
DA:310,206232
DA:311,206232
DA:312,206232
DA:314,139
DA:315,139
DA:316,139
DA:318,0
DA:319,0
DA:320,0
DA:322,25
DA:323,25
DA:324,25
DA:327,15
DA:328,15
DA:329,11
DA:330,11
DA:331,4
DA:332,15
DA:333,15
DA:334,0
DA:336,15
DA:337,15
DA:346,4
DA:347,4
DA:348,7
DA:349,3
DA:352,4
DA:353,4
DA:355,3
DA:356,3
DA:357,3
DA:361,5
DA:362,5
DA:363,1
DA:365,4
DA:366,4
DA:367,4
DA:368,4
DA:370,4
DA:371,4
DA:374,4
DA:375,4
DA:377,4
DA:378,4
DA:379,6
DA:380,6
DA:381,6
DA:382,4
DA:383,4
DA:384,4
DA:385,4
DA:386,0
DA:391,4
DA:393,4
DA:394,5
DA:397,15
DA:398,15
DA:399,1
DA:401,14
DA:402,15
DA:405,2
DA:406,2
DA:407,2
DA:408,2
DA:409,2
DA:410,2
DA:412,2
DA:413,2
DA:414,2
DA:415,2
DA:416,2
DA:417,2
DA:421,435
DA:422,435
DA:423,435
DA:424,435
DA:428,154
DA:429,154
DA:430,154
DA:431,154
DA:432,154
DA:433,154
DA:434,154
DA:435,154
DA:436,154
DA:437,154
DA:438,154
DA:440,154
DA:441,16
DA:442,16
DA:444,4
DA:445,4
DA:447,5
DA:448,5
DA:449,5
DA:450,129
DA:453,154
DA:454,154
DA:455,0
DA:456,154
DA:459,154
DA:460,154
DA:461,154
DA:462,45
DA:463,45
DA:464,39
DA:465,6
DA:466,45
DA:468,109
DA:471,154
DA:472,154
DA:473,154
DA:475,154
DA:476,154
DA:477,135
DA:478,9
DA:479,9
DA:480,9
DA:481,1
DA:483,8
DA:485,126
DA:486,38
DA:487,88
DA:488,135
DA:489,135
DA:490,135
DA:491,135
DA:492,135
DA:494,135
DA:496,19
DA:501,19
DA:502,13
DA:503,4
DA:504,1
DA:508,1
DA:514,17
DA:515,17
DA:523,14
DA:525,234
DA:526,234
DA:527,143
DA:528,143
DA:529,143
DA:530,143
DA:531,66
DA:532,66
DA:533,44
DA:534,44
DA:535,22
DA:536,22
DA:537,22
DA:538,22
DA:539,66
DA:540,66
DA:542,0
DA:543,0
DA:544,0
DA:545,0
DA:546,0
DA:547,0
DA:548,0
DA:549,0
DA:550,0
DA:551,11
DA:552,11
DA:553,11
DA:554,11
DA:555,0
DA:556,0
DA:557,11
DA:558,11
DA:559,11
DA:560,11
DA:561,11
DA:563,0
DA:564,0
DA:565,0
DA:566,0
DA:567,0
DA:568,0
DA:569,0
DA:570,0
DA:571,0
DA:572,0
DA:573,0
DA:574,0
DA:575,0
DA:577,0
DA:578,0
DA:579,0
DA:580,0
DA:581,0
DA:582,0
DA:583,11
DA:584,11
DA:585,11
DA:587,3
DA:588,3
DA:589,3
DA:590,3
DA:591,3
DA:595,3
DA:596,3
DA:600,3
DA:602,3
DA:603,3
DA:604,2
DA:605,2
DA:609,3
DA:610,3
DA:611,0
DA:612,0
DA:613,0
DA:617,14
DA:619,14
DA:621,67
DA:622,67
DA:623,67
DA:624,1
DA:626,66
DA:628,67
DA:629,64
DA:630,64
DA:631,67
DA:632,64
DA:633,64
DA:635,4
DA:636,4
DA:637,1
DA:639,3
DA:642,10
DA:643,5
DA:645,5
DA:648,14
DA:649,14
DA:652,14
DA:653,14
DA:654,14
DA:655,14
DA:656,14
DA:657,79
DA:659,79
DA:660,79
DA:661,79
DA:662,79
DA:663,79
DA:664,0
DA:665,79
DA:666,79
DA:667,8
DA:668,71
DA:669,79
DA:672,14
DA:676,149
DA:677,45
DA:678,13
DA:679,13
DA:680,13
DA:687,45
DA:688,45
DA:689,1
DA:690,1
DA:691,45
DA:692,0
DA:693,45
DA:694,104
DA:696,149
DA:697,149
DA:698,149
DA:699,149
DA:700,149
DA:701,149
DA:702,149
DA:703,149
DA:704,149
DA:705,149
DA:706,149
DA:707,149
DA:708,149
DA:709,149
DA:710,149
DA:711,149
DA:712,149
DA:714,149
DA:715,154
DA:717,3
DA:718,3
DA:719,3
DA:721,0
DA:722,0
DA:723,0
DA:724,0
DA:727,195727
DA:728,195727
DA:729,195727
DA:733,195727
DA:734,195727
DA:737,195727
DA:738,195727
DA:739,195727
DA:741,0
DA:745,101
DA:746,195727
DA:748,101
DA:749,195626
DA:751,115618
DA:752,195626
DA:754,115618
DA:755,80008
DA:757,80008
DA:758,195727
DA:763,115732
DA:764,115732
DA:765,115732
DA:766,115732
DA:767,115732
DA:768,115732
DA:769,115732
DA:770,93
DA:771,93
DA:772,115639
DA:774,115732
DA:779,93
DA:780,93
DA:781,0
DA:782,93
DA:783,93
DA:785,93
DA:786,0
DA:788,0
DA:789,0
DA:791,0
DA:792,93
DA:793,93
DA:794,93
DA:795,93
DA:796,93
DA:797,93
DA:799,0
DA:802,0
DA:804,0
DA:806,0
DA:810,93
DA:815,110
DA:816,110
DA:817,110
DA:819,115756
DA:820,115756
DA:821,0
DA:822,115756
DA:823,115756
DA:824,222
DA:825,20
DA:827,115514
DA:829,0
DA:832,115514
DA:836,115756
DA:840,89
DA:841,89
DA:842,89
DA:843,89
DA:846,17
DA:847,17
DA:848,17
DA:849,17
DA:850,13
DA:851,17
DA:853,13
DA:854,4
DA:855,0
DA:856,4
DA:858,0
DA:859,4
DA:861,4
DA:862,17
DA:865,2
DA:866,2
DA:867,2
DA:868,2
DA:869,2
DA:870,2
DA:871,2
DA:872,2
DA:875,42
DA:876,42
DA:877,42
DA:878,42
DA:879,42
DA:880,42
DA:881,42
DA:882,42
DA:886,42
DA:887,42
DA:888,7
DA:889,4
DA:890,31
DA:892,42
DA:893,4
DA:894,6
DA:895,32
DA:898,42
DA:899,42
DA:902,0
DA:905,42
DA:906,17
DA:907,17
DA:909,0
DA:911,17
DA:914,42
DA:915,42
DA:916,42
DA:917,42
DA:918,42
DA:919,42
DA:920,42
DA:921,13
DA:922,13
DA:923,13
DA:924,42
DA:927,42
DA:928,80
DA:929,80
DA:930,80
DA:931,51
DA:932,29
DA:933,29
DA:934,4
DA:935,4
DA:936,4
DA:938,2
DA:939,2
DA:940,2
DA:941,2
DA:942,2
DA:943,0
DA:944,2
DA:945,2
DA:946,2
DA:947,2
DA:948,2
DA:950,0
DA:952,0
DA:953,2
DA:955,23
DA:957,29
DA:958,5
DA:959,24
DA:960,29
DA:962,42
DA:963,42
DA:966,42
DA:967,54
DA:968,54
DA:969,54
DA:970,54
DA:971,54
DA:972,54
DA:973,54
DA:974,6
DA:975,0
DA:976,0
DA:977,0
DA:978,0
DA:979,0
DA:980,0
DA:981,0
DA:983,0
DA:984,0
DA:985,0
DA:986,0
DA:987,0
DA:988,0
DA:989,0
DA:990,0
DA:991,0
DA:992,0
DA:993,0
DA:994,0
DA:996,0
DA:998,0
DA:999,0
DA:1001,6
DA:1002,6
DA:1003,6
DA:1004,0
DA:1007,48
DA:1008,7
DA:1009,7
DA:1010,7
DA:1011,7
DA:1012,7
DA:1013,0
DA:1015,4
DA:1016,4
DA:1017,4
DA:1018,4
DA:1019,4
DA:1020,0
DA:1021,4
DA:1022,0
DA:1023,0
DA:1024,0
DA:1025,0
DA:1027,0
DA:1029,4
DA:1030,4
DA:1032,37
DA:1035,54
DA:1037,42
DA:1038,42
DA:1039,42
DA:1041,42
DA:1042,42
DA:1045,2
DA:1046,2
DA:1047,2
DA:1048,2
DA:1049,2
DA:1050,2
DA:1051,2
DA:1053,2
DA:1054,2
DA:1060,13
DA:1061,13
DA:1062,13
DA:1063,13
DA:1064,13
DA:1066,17
DA:1067,17
DA:1068,17
DA:1069,17
DA:1070,17
DA:1071,17
DA:1072,17
DA:1073,17
DA:1075,17
DA:1076,17
DA:1081,124
DA:1082,124
DA:1083,124
DA:1084,124
DA:1085,124
DA:1086,124
DA:1087,124
DA:1088,124
DA:1090,124
DA:1091,124
DA:1092,124
DA:1094,0
DA:1096,124
DA:1097,0
DA:1098,124
DA:1099,124
DA:1100,124
DA:1101,0
DA:1103,0
DA:1104,124
DA:1109,195868
DA:1110,195868
DA:1111,195868
DA:1112,195868
DA:1113,195868
DA:1114,195868
DA:1115,195868
DA:1116,195868
DA:1117,195868
DA:1119,195868
DA:1120,195868
DA:1121,195868
DA:1122,241
DA:1123,1
DA:1124,240
DA:1125,240
DA:1126,6
DA:1127,3
DA:1128,3
DA:1131,195627
DA:1132,93
DA:1133,5
DA:1134,88
DA:1135,88
DA:1136,195534
DA:1137,195534
DA:1138,33
DA:1139,17
DA:1140,4
DA:1141,13
DA:1142,13
DA:1143,16
DA:1148,0
DA:1149,0
DA:1150,0
DA:1151,0
DA:1152,0
DA:1153,0
DA:1154,0
DA:1155,0
DA:1158,0
DA:1159,0
DA:1160,0
DA:1161,0
DA:1162,0
DA:1163,0
DA:1164,0
DA:1165,0
DA:1166,0
DA:1167,0
DA:1168,0
DA:1169,0
DA:1170,0
DA:1175,195754
DA:1176,195868
DA:1181,195754
DA:1182,195754
DA:1183,195754
DA:1184,195754
DA:1185,195754
DA:1186,195754
DA:1187,195754
DA:1191,195754
DA:1194,195754
DA:1195,195754
DA:1196,104753
DA:1197,104753
DA:1198,0
DA:1202,104753
DA:1203,3261
DA:1205,3261
DA:1206,101492
DA:1207,4248
DA:1208,101492
DA:1210,4248
DA:1211,4248
DA:1212,4248
DA:1213,4248
DA:1214,97244
DA:1217,0
DA:1218,0
DA:1219,0
DA:1221,0
DA:1222,0
DA:1227,195754
DA:1228,195754
DA:1229,195754
DA:1230,195754
DA:1231,675144
DA:1232,675144
DA:1238,675144
DA:1239,675144
DA:1240,1239462
DA:1241,1239462
DA:1242,1239462
DA:1243,1239462
DA:1244,1239462
DA:1245,1239462
DA:1246,1239462
DA:1247,1239462
DA:1248,1239462
DA:1249,675144
DA:1250,343653
DA:1251,343653
DA:1252,343653
DA:1253,343653
DA:1254,343653
DA:1255,232079
DA:1256,111574
DA:1262,111574
DA:1263,80
DA:1265,60
DA:1266,111514
DA:1267,111514
DA:1268,111514
DA:1270,111514
DA:1271,111514
DA:1272,111514
DA:1273,111514
DA:1274,0
DA:1277,0
DA:1278,0
DA:1279,0
DA:1280,0
DA:1281,0
DA:1282,0
DA:1283,0
DA:1284,0
DA:1286,0
DA:1287,0
DA:1290,195754
DA:1291,115742
DA:1292,80012
DA:1294,80012
DA:1295,195754
DA:1299,45
DA:1300,45
DA:1301,45
DA:1302,45
DA:1303,45
DA:1304,45
DA:1305,45
DA:1306,0
DA:1307,0
DA:1308,0
DA:1310,45
DA:1311,45
DA:1312,0
DA:1314,0
DA:1316,45
DA:1321,0
DA:1322,0
DA:1323,0
DA:1324,0
DA:1325,0
DA:1326,0
DA:1327,0
DA:1328,0
DA:1329,0
DA:1331,0
DA:1332,0
DA:1333,0
DA:1335,0
DA:1336,0
DA:1337,0
DA:1339,0
DA:1340,0
DA:1341,0
DA:1343,0
DA:1345,0
DA:1346,0
DA:1362,9
DA:1363,9
DA:1364,9
DA:1365,9
DA:1366,9
DA:1369,9
DA:1371,9
DA:1372,35
DA:1373,35
DA:1374,35
DA:1375,35
DA:1376,35
DA:1377,35
DA:1378,35
DA:1387,9
DA:1388,9
DA:1389,9
DA:1391,9
DA:1392,9
DA:1394,35
DA:1395,35
DA:1396,0
DA:1397,35
DA:1402,35
DA:1403,35
DA:1404,35
DA:1405,10
DA:1406,10
DA:1407,25
DA:1408,0
DA:1409,0
DA:1410,0
DA:1412,0
DA:1414,0
DA:1415,0
DA:1417,35
DA:1418,25
DA:1419,25
DA:1420,25
DA:1421,25
DA:1422,25
DA:1423,25
DA:1426,9
DA:1427,7
DA:1428,25
DA:1429,7
DA:1430,2
DA:1432,9
DA:1433,9
DA:1439,8
DA:1441,8
DA:1442,23
DA:1443,23
DA:1444,3
DA:1445,20
DA:1447,23
DA:1451,8
DA:1452,8
DA:1455,8
DA:1456,8
DA:1457,4
DA:1459,4
DA:1461,8
DA:1462,8
DA:1463,8
DA:1464,8
DA:1466,8
DA:1467,8
DA:1468,18
DA:1469,15
DA:1470,3
DA:1471,18
DA:1472,8
DA:1473,8
DA:1474,4
DA:1475,4
DA:1476,4
DA:1477,8
DA:1478,8
DA:1479,7
DA:1480,1
DA:1482,8
DA:1484,4
DA:1485,0
DA:1487,4
DA:1491,0
DA:1492,0
DA:1493,0
DA:1494,0
DA:1495,0
DA:1496,0
DA:1497,0
DA:1498,0
DA:1499,0
DA:1500,0
DA:1501,0
DA:1502,0
DA:1503,0
DA:1504,0
DA:1505,0
DA:1508,0
DA:1509,0
DA:1510,0
DA:1514,8
DA:1515,8
DA:1517,218478
DA:1518,218478
DA:1519,218478
DA:1520,60
DA:1521,60
DA:1524,60
DA:1525,60
DA:1526,60
DA:1527,60
DA:1528,0
DA:1529,218418
DA:1531,218478
DA:1532,218478
DA:1540,217296
DA:1541,217296
DA:1542,217296
DA:1546,217295
DA:1547,217295
DA:1548,13
DA:1550,217282
DA:1552,217295
DA:1553,217295
DA:1554,217295
DA:1555,217295
DA:1556,217295
DA:1557,13
DA:1558,13
DA:1560,217282
DA:1563,0
DA:1567,217295
DA:1568,217296
DA:1571,1156
DA:1573,1156
DA:1574,1156
DA:1575,0
DA:1577,1156
DA:1579,1156
DA:1580,1156
DA:1581,1156
DA:1582,1156
DA:1583,1156
DA:1584,0
DA:1585,0
DA:1587,1156
DA:1590,0
DA:1593,1156
DA:1594,1156
DA:1596,525
DA:1597,525
DA:1598,525
DA:1600,446
DA:1601,446
DA:1602,446
DA:1604,169
DA:1605,169
DA:1606,169
DA:1608,83
DA:1609,83
DA:1610,83
DA:1613,737
DA:1614,737
DA:1615,737
DA:1616,737
DA:1617,737
DA:1622,589
DA:1623,589
DA:1624,589
DA:1625,579
DA:1626,10
DA:1627,10
DA:1628,10
DA:1629,0
DA:1631,10
DA:1632,8
DA:1633,2
DA:1636,2
DA:1637,2
DA:1639,2
DA:1640,2
DA:1642,0
DA:1644,2
DA:1646,2
DA:1647,2
DA:1648,2
DA:1649,2
DA:1650,2
DA:1651,2
DA:1652,2
DA:1653,2
DA:1655,0
DA:1657,2
DA:1658,2
DA:1659,2
DA:1660,2
DA:1661,2
DA:1662,2
DA:1665,2
DA:1667,2
DA:1668,589
DA:1670,322
DA:1674,322
DA:1675,322
DA:1676,322
DA:1678,322
DA:1679,322
DA:1681,322
DA:1682,322
DA:1686,314
DA:1687,314
DA:1688,314
DA:1689,314
DA:1690,74
DA:1691,2
DA:1693,72
DA:1695,240
DA:1696,57
DA:1698,183
DA:1700,314
DA:1702,314
DA:1704,314
DA:1705,314
DA:1706,314
DA:1707,314
DA:1709,314
DA:1710,314
DA:1713,211
DA:1714,211
DA:1717,209
DA:1718,211
DA:1719,211
DA:1720,209
DA:1721,2
DA:1725,209
DA:1728,209
DA:1729,64
DA:1730,64
DA:1731,64
DA:1732,64
DA:1733,64
DA:1734,64
DA:1735,64
DA:1736,64
DA:1737,64
DA:1738,64
DA:1739,64
DA:1740,0
DA:1741,64
DA:1742,64
DA:1743,64
DA:1744,64
DA:1745,64
DA:1747,64
DA:1748,64
DA:1749,64
DA:1750,64
DA:1751,64
DA:1752,0
DA:1753,64
DA:1755,64
DA:1756,64
DA:1757,64
DA:1759,64
DA:1760,54
DA:1761,0
DA:1762,0
DA:1763,0
DA:1764,0
DA:1765,0
DA:1766,64
DA:1770,64
DA:1771,64
DA:1772,64
DA:1773,64
DA:1775,145
DA:1776,145
DA:1777,145
DA:1778,145
DA:1779,145
DA:1780,145
DA:1781,145
DA:1782,0
DA:1783,145
DA:1784,145
DA:1788,209
DA:1790,209
DA:1791,209
DA:1792,187
DA:1793,187
DA:1794,22
DA:1795,22
DA:1796,22
DA:1797,22
DA:1798,209
DA:1799,209
DA:1802,209
DA:1804,209
DA:1805,145
DA:1807,64
DA:1809,209
DA:1810,209
DA:1811,209
DA:1812,209
DA:1815,209
DA:1824,209
DA:1826,209
DA:1827,9
DA:1828,9
DA:1832,2
DA:1833,1
DA:1834,1
DA:1835,1
DA:1836,1
DA:1837,1
DA:1838,1
DA:1839,7
DA:1840,200
DA:1842,209
DA:1843,211
DA:1849,39
DA:1850,39
DA:1851,39
DA:1852,39
DA:1855,40
DA:1862,40
DA:1863,40
DA:1864,40
DA:1866,40
DA:1867,40
DA:1869,42
DA:1870,42
DA:1871,4
DA:1872,6
DA:1873,32
DA:1875,42
BRF:0
BRH:0
LF:1214
LH:973
end_of_record
SF:/home/liu/proj/toy-kv-engine/kv-engine/src/manifest.rs
FN:228,_RNvMNtCs3ksH6Jg0luU_9kv_engine8manifestNtB2_8Manifest10add_record
FN:237,_RNvMNtCs3ksH6Jg0luU_9kv_engine8manifestNtB2_8Manifest11add_records
FN:220,_RNvMNtCs3ksH6Jg0luU_9kv_engine8manifestNtB2_8Manifest13snapshot_path
FN:245,_RNvMNtCs3ksH6Jg0luU_9kv_engine8manifestNtB2_8Manifest20add_record_when_init
FN:252,_RNvMNtCs3ksH6Jg0luU_9kv_engine8manifestNtB2_8Manifest21add_records_when_init
FN:173,_RNvMNtCs3ksH6Jg0luU_9kv_engine8manifestNtB2_8Manifest8snapshot
FN:212,_RNvMNtCs3ksH6Jg0luU_9kv_engine8manifestNtB2_8Manifest9file_size
FN:65,_RINvMNtCs3ksH6Jg0luU_9kv_engine8manifestNtB3_8Manifest6createNtNtCskaANe6KdTWL_3std4path7PathBufEB5_
FN:65,_RINvMNtCs3ksH6Jg0luU_9kv_engine8manifestNtB3_8Manifest6createRNtNtCskaANe6KdTWL_3std4path7PathBufEB5_
FN:82,_RINvMNtCs3ksH6Jg0luU_9kv_engine8manifestNtB3_8Manifest7recoverNtNtCskaANe6KdTWL_3std4path7PathBufEB5_
FN:82,_RINvMNtCs3ksH6Jg0luU_9kv_engine8manifestNtB3_8Manifest7recoverRNtNtCskaANe6KdTWL_3std4path7PathBufEB5_
FNDA:592,_RNvMNtCs3ksH6Jg0luU_9kv_engine8manifestNtB2_8Manifest10add_record
FNDA:4,_RNvMNtCs3ksH6Jg0luU_9kv_engine8manifestNtB2_8Manifest11add_records
FNDA:22,_RNvMNtCs3ksH6Jg0luU_9kv_engine8manifestNtB2_8Manifest13snapshot_path
FNDA:609,_RNvMNtCs3ksH6Jg0luU_9kv_engine8manifestNtB2_8Manifest20add_record_when_init
FNDA:748,_RNvMNtCs3ksH6Jg0luU_9kv_engine8manifestNtB2_8Manifest21add_records_when_init
FNDA:2,_RNvMNtCs3ksH6Jg0luU_9kv_engine8manifestNtB2_8Manifest8snapshot
FNDA:10,_RNvMNtCs3ksH6Jg0luU_9kv_engine8manifestNtB2_8Manifest9file_size
FNDA:135,_RINvMNtCs3ksH6Jg0luU_9kv_engine8manifestNtB3_8Manifest6createNtNtCskaANe6KdTWL_3std4path7PathBufEB5_
FNDA:3,_RINvMNtCs3ksH6Jg0luU_9kv_engine8manifestNtB3_8Manifest6createRNtNtCskaANe6KdTWL_3std4path7PathBufEB5_
FNDA:19,_RINvMNtCs3ksH6Jg0luU_9kv_engine8manifestNtB3_8Manifest7recoverNtNtCskaANe6KdTWL_3std4path7PathBufEB5_
FNDA:1,_RINvMNtCs3ksH6Jg0luU_9kv_engine8manifestNtB3_8Manifest7recoverRNtNtCskaANe6KdTWL_3std4path7PathBufEB5_
FNF:9
FNH:9
DA:65,138
DA:66,138
DA:67,138
DA:69,138
DA:70,138
DA:71,138
DA:72,138
DA:73,138
DA:82,20
DA:83,20
DA:84,20
DA:86,20
DA:87,20
DA:92,20
DA:93,3
DA:94,17
DA:97,1
DA:99,1
DA:100,1
DA:101,1
DA:102,1
DA:103,1
DA:105,16
DA:108,20
DA:109,4
DA:110,4
DA:111,4
DA:112,16
DA:117,20
DA:118,20
DA:119,20
DA:120,20
DA:121,20
DA:122,20
DA:123,20
DA:125,0
DA:126,0
DA:127,0
DA:128,0
DA:129,0
DA:130,0
DA:133,20
DA:134,20
DA:136,20
DA:137,16
DA:138,16
DA:139,236
DA:140,236
DA:142,4
DA:144,20
DA:145,20
DA:146,20
DA:147,20
DA:148,20
DA:149,20
DA:150,20
DA:151,20
DA:173,2
DA:174,2
DA:175,2
DA:178,2
DA:180,2
DA:181,2
DA:182,2
DA:183,2
DA:184,2
DA:185,2
DA:190,2
DA:192,2
DA:193,2
DA:194,2
DA:195,2
DA:196,2
DA:199,2
DA:202,2
DA:203,2
DA:204,2
DA:205,2
DA:208,2
DA:209,2
DA:212,10
DA:213,10
DA:214,10
DA:216,10
DA:217,10
DA:220,22
DA:221,22
DA:222,22
DA:223,22
DA:224,22
DA:225,22
DA:228,592
DA:229,592
DA:230,592
DA:231,592
DA:232,592
DA:233,592
DA:234,592
DA:237,4
DA:238,4
DA:239,4
DA:240,4
DA:241,4
DA:242,4
DA:243,4
DA:245,609
DA:246,609
DA:247,609
DA:252,748
DA:253,748
DA:254,0
DA:255,748
DA:256,748
DA:257,885
DA:258,885
DA:260,748
DA:261,748
DA:263,748
DA:264,748
BRF:0
BRH:0
LF:119
LH:112
end_of_record
SF:/home/liu/proj/toy-kv-engine/kv-engine/src/mem_table.rs
FN:365,_RNCNvMNtCs3ksH6Jg0luU_9kv_engine9mem_tableNtB4_8MemTable9put_batch0B6_
FN:373,_RNCNvMNtCs3ksH6Jg0luU_9kv_engine9mem_tableNtB4_8MemTable9put_batchs_0B6_
FN:147,_RNvMNtCs3ksH6Jg0luU_9kv_engine9mem_tableNtB2_8MemTable12vlog_enabled
FN:459,_RNvMNtCs3ksH6Jg0luU_9kv_engine9mem_tableNtB2_8MemTable13range_overlap
FN:362,_RNvMNtCs3ksH6Jg0luU_9kv_engine9mem_tableNtB2_8MemTable9put_batch
FN:75,_RINvMNtCs3ksH6Jg0luU_9kv_engine9mem_tableNtB3_8MemTable15create_with_walNtNtCskaANe6KdTWL_3std4path7PathBufEB5_
FN:93,_RINvMNtCs3ksH6Jg0luU_9kv_engine9mem_tableNtB3_8MemTable16recover_from_walNtNtCskaANe6KdTWL_3std4path7PathBufEB5_
FN:84,_RINvMNtCs3ksH6Jg0luU_9kv_engine9mem_tableNtB3_8MemTable20create_with_wal_vlogNtNtCskaANe6KdTWL_3std4path7PathBufEB5_
FN:105,_RINvMNtCs3ksH6Jg0luU_9kv_engine9mem_tableNtB3_8MemTable21recover_from_wal_vlogNtNtCskaANe6KdTWL_3std4path7PathBufEB5_
FN:519,_RNCNCNvXs_NtCs3ksH6Jg0luU_9kv_engine9mem_tableNtNtB8_33ouroboros_impl_mem_table_iterator16MemTableIteratorNtNtBa_9iterators15StorageIterator4next00Ba_
FN:520,_RNCNCNvXs_NtCs3ksH6Jg0luU_9kv_engine9mem_tableNtNtB8_33ouroboros_impl_mem_table_iterator16MemTableIteratorNtNtBa_9iterators15StorageIterator4next0s_0Ba_
FN:168,_RNCNvMNtCs3ksH6Jg0luU_9kv_engine9mem_tableNtB4_8MemTable13get_with_hash0B6_
FN:328,_RNCNvMNtCs3ksH6Jg0luU_9kv_engine9mem_tableNtB4_8MemTable13put_raw_batch0B6_
FN:331,_RNCNvMNtCs3ksH6Jg0luU_9kv_engine9mem_tableNtB4_8MemTable13put_raw_batchs_0B6_
FN:121,_RNCNvMNtCs3ksH6Jg0luU_9kv_engine9mem_tableNtB4_8MemTable13rebuild_bloom0B6_
FN:401,_RNCNvMNtCs3ksH6Jg0luU_9kv_engine9mem_tableNtB4_8MemTable14scan_with_vlog0B6_
FN:192,_RNCNvMNtCs3ksH6Jg0luU_9kv_engine9mem_tableNtB4_8MemTable17get_raw_with_hash0B6_
FN:564,_RNCNvMs0_NtCs3ksH6Jg0luU_9kv_engine9mem_tableNtNtB7_33ouroboros_impl_mem_table_iterator16MemTableIterator18resolve_item_value0B9_
FN:517,_RNCNvXs_NtCs3ksH6Jg0luU_9kv_engine9mem_tableNtNtB6_33ouroboros_impl_mem_table_iterator16MemTableIteratorNtNtB8_9iterators15StorageIterator4next0B8_
FN:523,_RNCNvXs_NtCs3ksH6Jg0luU_9kv_engine9mem_tableNtNtB6_33ouroboros_impl_mem_table_iterator16MemTableIteratorNtNtB8_9iterators15StorageIterator4nexts_0B8_
FN:63,_RNvMNtCs3ksH6Jg0luU_9kv_engine9mem_tableNtB2_8MemTable11create_vlog
FN:201,_RNvMNtCs3ksH6Jg0luU_9kv_engine9mem_tableNtB2_8MemTable13get_versioned
FN:164,_RNvMNtCs3ksH6Jg0luU_9kv_engine9mem_tableNtB2_8MemTable13get_with_hash
FN:319,_RNvMNtCs3ksH6Jg0luU_9kv_engine9mem_tableNtB2_8MemTable13put_raw_batch
FN:308,_RNvMNtCs3ksH6Jg0luU_9kv_engine9mem_tableNtB2_8MemTable13put_tombstone
FN:117,_RNvMNtCs3ksH6Jg0luU_9kv_engine9mem_tableNtB2_8MemTable13rebuild_bloom
FN:392,_RNvMNtCs3ksH6Jg0luU_9kv_engine9mem_tableNtB2_8MemTable14scan_with_vlog
FN:447,_RNvMNtCs3ksH6Jg0luU_9kv_engine9mem_tableNtB2_8MemTable16approximate_size
FN:188,_RNvMNtCs3ksH6Jg0luU_9kv_engine9mem_tableNtB2_8MemTable17get_raw_with_hash
FN:241,_RNvMNtCs3ksH6Jg0luU_9kv_engine9mem_tableNtB2_8MemTable17get_versioned_raw
FN:275,_RNvMNtCs3ksH6Jg0luU_9kv_engine9mem_tableNtB2_8MemTable21collect_vlog_file_ids
FN:134,_RNvMNtCs3ksH6Jg0luU_9kv_engine9mem_tableNtB2_8MemTable21for_testing_get_slice
FN:130,_RNvMNtCs3ksH6Jg0luU_9kv_engine9mem_tableNtB2_8MemTable21for_testing_put_slice
FN:138,_RNvMNtCs3ksH6Jg0luU_9kv_engine9mem_tableNtB2_8MemTable22for_testing_scan_slice
FN:443,_RNvMNtCs3ksH6Jg0luU_9kv_engine9mem_tableNtB2_8MemTable2id
FN:155,_RNvMNtCs3ksH6Jg0luU_9kv_engine9mem_tableNtB2_8MemTable3get
FN:296,_RNvMNtCs3ksH6Jg0luU_9kv_engine9mem_tableNtB2_8MemTable3put
FN:387,_RNvMNtCs3ksH6Jg0luU_9kv_engine9mem_tableNtB2_8MemTable4scan
FN:418,_RNvMNtCs3ksH6Jg0luU_9kv_engine9mem_tableNtB2_8MemTable5flush
FN:51,_RNvMNtCs3ksH6Jg0luU_9kv_engine9mem_tableNtB2_8MemTable6create
FN:180,_RNvMNtCs3ksH6Jg0luU_9kv_engine9mem_tableNtB2_8MemTable7get_raw
FN:314,_RNvMNtCs3ksH6Jg0luU_9kv_engine9mem_tableNtB2_8MemTable7put_raw
FN:454,_RNvMNtCs3ksH6Jg0luU_9kv_engine9mem_tableNtB2_8MemTable8is_empty
FN:378,_RNvMNtCs3ksH6Jg0luU_9kv_engine9mem_tableNtB2_8MemTable8sync_wal
FN:41,_RNvNtCs3ksH6Jg0luU_9kv_engine9mem_table9map_bound
FN:535,_RNvMs0_NtCs3ksH6Jg0luU_9kv_engine9mem_tableNtNtB5_33ouroboros_impl_mem_table_iterator16MemTableIterator18resolve_item_value
FN:508,_RNvXs_NtCs3ksH6Jg0luU_9kv_engine9mem_tableNtNtB4_33ouroboros_impl_mem_table_iterator16MemTableIteratorNtNtB6_9iterators15StorageIterator3key
FN:516,_RNvXs_NtCs3ksH6Jg0luU_9kv_engine9mem_tableNtNtB4_33ouroboros_impl_mem_table_iterator16MemTableIteratorNtNtB6_9iterators15StorageIterator4next
FN:504,_RNvXs_NtCs3ksH6Jg0luU_9kv_engine9mem_tableNtNtB4_33ouroboros_impl_mem_table_iterator16MemTableIteratorNtNtB6_9iterators15StorageIterator5value
FN:512,_RNvXs_NtCs3ksH6Jg0luU_9kv_engine9mem_tableNtNtB4_33ouroboros_impl_mem_table_iterator16MemTableIteratorNtNtB6_9iterators15StorageIterator8is_valid
FNDA:0,_RNCNvMNtCs3ksH6Jg0luU_9kv_engine9mem_tableNtB4_8MemTable9put_batch0B6_
FNDA:0,_RNCNvMNtCs3ksH6Jg0luU_9kv_engine9mem_tableNtB4_8MemTable9put_batchs_0B6_
FNDA:0,_RNvMNtCs3ksH6Jg0luU_9kv_engine9mem_tableNtB2_8MemTable12vlog_enabled
FNDA:0,_RNvMNtCs3ksH6Jg0luU_9kv_engine9mem_tableNtB2_8MemTable13range_overlap
FNDA:0,_RNvMNtCs3ksH6Jg0luU_9kv_engine9mem_tableNtB2_8MemTable9put_batch
FNDA:83,_RINvMNtCs3ksH6Jg0luU_9kv_engine9mem_tableNtB3_8MemTable15create_with_walNtNtCskaANe6KdTWL_3std4path7PathBufEB5_
FNDA:66,_RINvMNtCs3ksH6Jg0luU_9kv_engine9mem_tableNtB3_8MemTable16recover_from_walNtNtCskaANe6KdTWL_3std4path7PathBufEB5_
FNDA:4,_RINvMNtCs3ksH6Jg0luU_9kv_engine9mem_tableNtB3_8MemTable20create_with_wal_vlogNtNtCskaANe6KdTWL_3std4path7PathBufEB5_
FNDA:1,_RINvMNtCs3ksH6Jg0luU_9kv_engine9mem_tableNtB3_8MemTable21recover_from_wal_vlogNtNtCskaANe6KdTWL_3std4path7PathBufEB5_
FNDA:96,_RNCNCNvXs_NtCs3ksH6Jg0luU_9kv_engine9mem_tableNtNtB8_33ouroboros_impl_mem_table_iterator16MemTableIteratorNtNtBa_9iterators15StorageIterator4next00Ba_
FNDA:56,_RNCNCNvXs_NtCs3ksH6Jg0luU_9kv_engine9mem_tableNtNtB8_33ouroboros_impl_mem_table_iterator16MemTableIteratorNtNtBa_9iterators15StorageIterator4next0s_0Ba_
FNDA:6,_RNCNvMNtCs3ksH6Jg0luU_9kv_engine9mem_tableNtB4_8MemTable13get_with_hash0B6_
FNDA:204,_RNCNvMNtCs3ksH6Jg0luU_9kv_engine9mem_tableNtB4_8MemTable13put_raw_batch0B6_
FNDA:204,_RNCNvMNtCs3ksH6Jg0luU_9kv_engine9mem_tableNtB4_8MemTable13put_raw_batchs_0B6_
FNDA:0,_RNCNvMNtCs3ksH6Jg0luU_9kv_engine9mem_tableNtB4_8MemTable13rebuild_bloom0B6_
FNDA:61,_RNCNvMNtCs3ksH6Jg0luU_9kv_engine9mem_tableNtB4_8MemTable14scan_with_vlog0B6_
FNDA:10,_RNCNvMNtCs3ksH6Jg0luU_9kv_engine9mem_tableNtB4_8MemTable17get_raw_with_hash0B6_
FNDA:0,_RNCNvMs0_NtCs3ksH6Jg0luU_9kv_engine9mem_tableNtNtB7_33ouroboros_impl_mem_table_iterator16MemTableIterator18resolve_item_value0B9_
FNDA:152,_RNCNvXs_NtCs3ksH6Jg0luU_9kv_engine9mem_tableNtNtB6_33ouroboros_impl_mem_table_iterator16MemTableIteratorNtNtB8_9iterators15StorageIterator4next0B8_
FNDA:152,_RNCNvXs_NtCs3ksH6Jg0luU_9kv_engine9mem_tableNtNtB6_33ouroboros_impl_mem_table_iterator16MemTableIteratorNtNtB8_9iterators15StorageIterator4nexts_0B8_
FNDA:155,_RNvMNtCs3ksH6Jg0luU_9kv_engine9mem_tableNtB2_8MemTable11create_vlog
FNDA:195661,_RNvMNtCs3ksH6Jg0luU_9kv_engine9mem_tableNtB2_8MemTable13get_versioned
FNDA:6,_RNvMNtCs3ksH6Jg0luU_9kv_engine9mem_tableNtB2_8MemTable13get_with_hash
FNDA:218507,_RNvMNtCs3ksH6Jg0luU_9kv_engine9mem_tableNtB2_8MemTable13put_raw_batch
FNDA:1156,_RNvMNtCs3ksH6Jg0luU_9kv_engine9mem_tableNtB2_8MemTable13put_tombstone
FNDA:67,_RNvMNtCs3ksH6Jg0luU_9kv_engine9mem_tableNtB2_8MemTable13rebuild_bloom
FNDA:61,_RNvMNtCs3ksH6Jg0luU_9kv_engine9mem_tableNtB2_8MemTable14scan_with_vlog
FNDA:218541,_RNvMNtCs3ksH6Jg0luU_9kv_engine9mem_tableNtB2_8MemTable16approximate_size
FNDA:35,_RNvMNtCs3ksH6Jg0luU_9kv_engine9mem_tableNtB2_8MemTable17get_raw_with_hash
FNDA:247,_RNvMNtCs3ksH6Jg0luU_9kv_engine9mem_tableNtB2_8MemTable17get_versioned_raw
FNDA:46,_RNvMNtCs3ksH6Jg0luU_9kv_engine9mem_tableNtB2_8MemTable21collect_vlog_file_ids
FNDA:6,_RNvMNtCs3ksH6Jg0luU_9kv_engine9mem_tableNtB2_8MemTable21for_testing_get_slice
FNDA:12,_RNvMNtCs3ksH6Jg0luU_9kv_engine9mem_tableNtB2_8MemTable21for_testing_put_slice
FNDA:6,_RNvMNtCs3ksH6Jg0luU_9kv_engine9mem_tableNtB2_8MemTable22for_testing_scan_slice
FNDA:552,_RNvMNtCs3ksH6Jg0luU_9kv_engine9mem_tableNtB2_8MemTable2id
FNDA:6,_RNvMNtCs3ksH6Jg0luU_9kv_engine9mem_tableNtB2_8MemTable3get
FNDA:217317,_RNvMNtCs3ksH6Jg0luU_9kv_engine9mem_tableNtB2_8MemTable3put
FNDA:6,_RNvMNtCs3ksH6Jg0luU_9kv_engine9mem_tableNtB2_8MemTable4scan
FNDA:209,_RNvMNtCs3ksH6Jg0luU_9kv_engine9mem_tableNtB2_8MemTable5flush
FNDA:466,_RNvMNtCs3ksH6Jg0luU_9kv_engine9mem_tableNtB2_8MemTable6create
FNDA:35,_RNvMNtCs3ksH6Jg0luU_9kv_engine9mem_tableNtB2_8MemTable7get_raw
FNDA:218473,_RNvMNtCs3ksH6Jg0luU_9kv_engine9mem_tableNtB2_8MemTable7put_raw
FNDA:196040,_RNvMNtCs3ksH6Jg0luU_9kv_engine9mem_tableNtB2_8MemTable8is_empty
FNDA:3,_RNvMNtCs3ksH6Jg0luU_9kv_engine9mem_tableNtB2_8MemTable8sync_wal
FNDA:122,_RNvNtCs3ksH6Jg0luU_9kv_engine9mem_table9map_bound
FNDA:152,_RNvMs0_NtCs3ksH6Jg0luU_9kv_engine9mem_tableNtNtB5_33ouroboros_impl_mem_table_iterator16MemTableIterator18resolve_item_value
FNDA:625,_RNvXs_NtCs3ksH6Jg0luU_9kv_engine9mem_tableNtNtB4_33ouroboros_impl_mem_table_iterator16MemTableIteratorNtNtB6_9iterators15StorageIterator3key
FNDA:152,_RNvXs_NtCs3ksH6Jg0luU_9kv_engine9mem_tableNtNtB4_33ouroboros_impl_mem_table_iterator16MemTableIteratorNtNtB6_9iterators15StorageIterator4next
FNDA:103,_RNvXs_NtCs3ksH6Jg0luU_9kv_engine9mem_tableNtNtB4_33ouroboros_impl_mem_table_iterator16MemTableIteratorNtNtB6_9iterators15StorageIterator5value
FNDA:889,_RNvXs_NtCs3ksH6Jg0luU_9kv_engine9mem_tableNtNtB4_33ouroboros_impl_mem_table_iterator16MemTableIteratorNtNtB6_9iterators15StorageIterator8is_valid
FNF:50
FNH:43
DA:41,122
DA:42,122
DA:43,25
DA:44,20
DA:45,77
DA:47,122
DA:51,466
DA:52,466
DA:53,466
DA:54,466
DA:55,466
DA:56,466
DA:57,466
DA:58,466
DA:59,466
DA:60,466
DA:63,155
DA:64,155
DA:65,155
DA:66,155
DA:67,155
DA:68,155
DA:69,155
DA:70,155
DA:71,155
DA:72,155
DA:75,83
DA:76,83
DA:77,83
DA:78,83
DA:80,83
DA:81,83
DA:84,4
DA:85,4
DA:86,4
DA:87,4
DA:89,4
DA:90,4
DA:93,66
DA:94,66
DA:95,66
DA:96,66
DA:98,66
DA:100,66
DA:101,66
DA:105,1
DA:106,1
DA:107,1
DA:108,1
DA:110,1
DA:112,1
DA:113,1
DA:117,67
DA:118,191
DA:119,191
DA:120,191
DA:121,191
DA:123,0
DA:125,191
DA:126,191
DA:128,67
DA:130,12
DA:131,12
DA:132,12
DA:134,6
DA:135,6
DA:136,6
DA:138,6
DA:139,6
DA:140,6
DA:141,6
DA:142,6
DA:143,6
DA:144,6
DA:147,0
DA:148,0
DA:149,0
DA:155,6
DA:156,6
DA:158,6
DA:159,6
DA:164,6
DA:165,6
DA:166,0
DA:167,6
DA:168,6
DA:169,6
DA:170,6
DA:171,6
DA:173,0
DA:175,6
DA:176,6
DA:180,35
DA:181,35
DA:183,35
DA:184,35
DA:188,35
DA:189,35
DA:190,25
DA:191,10
DA:192,10
DA:193,35
DA:201,195661
DA:202,195661
DA:203,195518
DA:204,143
DA:205,143
DA:206,143
DA:207,32
DA:208,111
DA:209,111
DA:210,111
DA:211,111
DA:212,111
DA:213,111
DA:214,112
DA:215,112
DA:217,112
DA:218,112
DA:220,0
DA:221,112
DA:223,0
DA:226,112
DA:227,112
DA:228,1
DA:229,111
DA:230,111
DA:231,111
DA:232,102
DA:234,9
DA:237,0
DA:238,195661
DA:241,247
DA:242,247
DA:243,176
DA:244,71
DA:245,71
DA:246,71
DA:247,24
DA:248,47
DA:249,47
DA:250,47
DA:251,47
DA:252,47
DA:253,47
DA:254,47
DA:255,41
DA:256,41
DA:257,4
DA:258,0
DA:259,4
DA:261,37
DA:263,4
DA:264,4
DA:265,0
DA:266,4
DA:267,4
DA:269,43
DA:270,247
DA:275,46
DA:276,46
DA:277,46
DA:278,0
DA:279,46
DA:280,46
DA:281,2
DA:282,2
DA:283,2
DA:284,0
DA:285,0
DA:286,0
DA:287,2
DA:289,46
DA:290,46
DA:296,217317
DA:297,217317
DA:298,217317
DA:299,217317
DA:301,217317
DA:302,217317
DA:308,1156
DA:309,1156
DA:310,1156
DA:314,218473
DA:315,218473
DA:316,218473
DA:319,218507
DA:320,218507
DA:321,0
DA:322,218507
DA:323,218507
DA:326,204
DA:327,204
DA:328,204
DA:329,204
DA:330,204
DA:331,204
DA:332,204
DA:333,204
DA:334,218303
DA:336,218538
DA:337,218538
DA:338,218538
DA:339,218538
DA:340,218538
DA:341,218538
DA:342,218538
DA:343,218538
DA:344,218538
DA:345,218538
DA:346,218538
DA:347,218538
DA:348,218538
DA:349,218538
DA:350,218538
DA:351,218538
DA:352,218538
DA:353,218538
DA:354,218538
DA:355,218538
DA:356,218538
DA:358,218507
DA:359,218507
DA:362,0
DA:363,0
DA:364,0
DA:365,0
DA:366,0
DA:367,0
DA:368,0
DA:369,0
DA:370,0
DA:371,0
DA:372,0
DA:373,0
DA:375,0
DA:376,0
DA:378,3
DA:379,3
DA:380,3
DA:381,0
DA:383,3
DA:384,3
DA:387,6
DA:388,6
DA:389,6
DA:392,61
DA:393,61
DA:394,61
DA:395,61
DA:396,61
DA:397,61
DA:398,61
DA:399,61
DA:400,61
DA:401,61
DA:402,61
DA:403,61
DA:404,61
DA:405,61
DA:407,61
DA:408,61
DA:410,61
DA:411,61
DA:418,209
DA:419,216089
DA:420,216089
DA:421,216089
DA:422,216089
DA:423,216089
DA:424,216089
DA:425,216079
DA:428,90
DA:431,215999
DA:432,215999
DA:434,0
DA:436,215999
DA:440,209
DA:441,209
DA:443,552
DA:444,552
DA:445,552
DA:447,218541
DA:448,218541
DA:449,218541
DA:450,218541
DA:454,196040
DA:455,196040
DA:456,196040
DA:459,0
DA:460,0
DA:461,0
DA:462,0
DA:464,0
DA:465,0
DA:466,0
DA:467,0
DA:468,0
DA:469,0
DA:470,0
DA:471,0
DA:473,0
DA:504,103
DA:505,103
DA:506,103
DA:508,625
DA:509,625
DA:510,625
DA:512,889
DA:513,889
DA:514,889
DA:516,152
DA:517,152
DA:518,152
DA:519,152
DA:520,152
DA:521,152
DA:523,152
DA:524,152
DA:525,152
DA:526,152
DA:528,152
DA:529,152
DA:535,152
DA:536,152
DA:537,152
DA:538,152
DA:539,152
DA:540,152
DA:541,152
DA:542,56
DA:543,96
DA:546,96
DA:547,9
DA:548,87
DA:550,87
DA:551,87
DA:552,0
DA:555,0
DA:556,0
DA:558,0
DA:559,0
DA:563,0
DA:564,0
DA:566,0
DA:568,0
DA:569,0
DA:570,0
DA:572,152
BRF:0
BRH:0
LF:361
LH:301
end_of_record
SF:/home/liu/proj/toy-kv-engine/kv-engine/src/mvcc.rs
FN:102,_RNvMNtCs3ksH6Jg0luU_9kv_engine4mvccNtB2_12LsmMvccInner11write_batch
FN:183,_RNvMNtCs3ksH6Jg0luU_9kv_engine4mvccNtB2_12LsmMvccInner14new_read_guard
FN:85,_RNvMNtCs3ksH6Jg0luU_9kv_engine4mvccNtB2_12LsmMvccInner15write_tombstone
FN:45,_RNvMNtCs3ksH6Jg0luU_9kv_engine4mvccNtB2_12LsmMvccInner16latest_commit_ts
FN:49,_RNvMNtCs3ksH6Jg0luU_9kv_engine4mvccNtB2_12LsmMvccInner16update_commit_ts
FN:189,_RNvMNtCs3ksH6Jg0luU_9kv_engine4mvccNtB2_12LsmMvccInner20record_committed_txn
FN:36,_RNvMNtCs3ksH6Jg0luU_9kv_engine4mvccNtB2_12LsmMvccInner3new
FN:61,_RNvMNtCs3ksH6Jg0luU_9kv_engine4mvccNtB2_12LsmMvccInner5write
FN:153,_RNvMNtCs3ksH6Jg0luU_9kv_engine4mvccNtB2_12LsmMvccInner7new_txn
FN:149,_RNvMNtCs3ksH6Jg0luU_9kv_engine4mvccNtB2_12LsmMvccInner7read_ts
FN:54,_RNvMNtCs3ksH6Jg0luU_9kv_engine4mvccNtB2_12LsmMvccInner9watermark
FN:229,_RNvMs_NtCs3ksH6Jg0luU_9kv_engine4mvccNtB4_9ReadGuard10new_latest
FN:239,_RNvMs_NtCs3ksH6Jg0luU_9kv_engine4mvccNtB4_9ReadGuard7read_ts
FN:245,_RNvXs0_NtCs3ksH6Jg0luU_9kv_engine4mvccNtB5_9ReadGuardNtNtNtCslfAf2Mv2Tp5_4core3ops4drop4Drop4drop
FN:114,_RNCNvMNtCs3ksH6Jg0luU_9kv_engine4mvccNtB4_12LsmMvccInner11write_batch0B6_
FN:136,_RNCNvMNtCs3ksH6Jg0luU_9kv_engine4mvccNtB4_12LsmMvccInner11write_batchs0_0B6_
FN:122,_RNCNvMNtCs3ksH6Jg0luU_9kv_engine4mvccNtB4_12LsmMvccInner11write_batchs_0B6_
FN:488,_RNvNtNtCs3ksH6Jg0luU_9kv_engine4mvcc5tests17serializable_opts
FN:257,_RNvNtNtCs3ksH6Jg0luU_9kv_engine4mvcc5testss_19test_mvcc_inner_new
FN:265,_RNvNtNtCs3ksH6Jg0luU_9kv_engine4mvcc5testss_21test_mvcc_inner_write
FN:409,_RNvNtNtCs3ksH6Jg0luU_9kv_engine4mvcc5testss_21test_txn_delete_local
FN:391,_RNvNtNtCs3ksH6Jg0luU_9kv_engine4mvcc5testss_22test_txn_put_get_local
FN:424,_RNvNtNtCs3ksH6Jg0luU_9kv_engine4mvcc5testss_23test_txn_commit_visible
FN:585,_RNvNtNtCs3ksH6Jg0luU_9kv_engine4mvcc5testss_26test_occ_read_only_commits
FN:453,_RNvNtNtCs3ksH6Jg0luU_9kv_engine4mvcc5testss_27test_txn_snapshot_isolation
FN:495,_RNvNtNtCs3ksH6Jg0luU_9kv_engine4mvcc5testss_28test_occ_read_write_conflict
FN:354,_RNvNtNtCs3ksH6Jg0luU_9kv_engine4mvcc5testss_28test_read_guard_duplicate_ts
FN:439,_RNvNtNtCs3ksH6Jg0luU_9kv_engine4mvcc5testss_28test_txn_double_commit_fails
FN:572,_RNvNtNtCs3ksH6Jg0luU_9kv_engine4mvcc5testss_30test_occ_mutation_after_commit
FN:539,_RNvNtNtCs3ksH6Jg0luU_9kv_engine4mvcc5testss_31test_occ_negative_read_recorded
FN:289,_RNvNtNtCs3ksH6Jg0luU_9kv_engine4mvcc5testss_32test_mvcc_inner_update_commit_ts
FN:598,_RNvNtNtCs3ksH6Jg0luU_9kv_engine4mvcc5testss_32test_occ_two_txns_write_same_key
FN:314,_RNvNtNtCs3ksH6Jg0luU_9kv_engine4mvcc5testss_32test_read_guard_drop_unregisters
FN:330,_RNvNtNtCs3ksH6Jg0luU_9kv_engine4mvcc5testss_32test_read_guard_multiple_readers
FN:525,_RNvNtNtCs3ksH6Jg0luU_9kv_engine4mvcc5testss_35test_occ_no_conflict_before_read_ts
FN:512,_RNvNtNtCs3ksH6Jg0luU_9kv_engine4mvcc5testss_35test_occ_no_conflict_different_keys
FN:472,_RNvNtNtCs3ksH6Jg0luU_9kv_engine4mvcc5testss_35test_txn_local_writes_shadow_engine
FN:299,_RNvNtNtCs3ksH6Jg0luU_9kv_engine4mvcc5testss_38test_read_guard_registers_in_watermark
FN:555,_RNvNtNtCs3ksH6Jg0luU_9kv_engine4mvcc5testss_39test_occ_scan_rejected_for_serializable
FN:615,_RNvNtNtCs3ksH6Jg0luU_9kv_engine4mvcc5testss_40test_occ_read_then_conflicting_txn_write
FN:374,_RNvNtNtCs3ksH6Jg0luU_9kv_engine4mvcc5testss_42test_read_guard_watermark_pins_after_write
FNDA:27,_RNvMNtCs3ksH6Jg0luU_9kv_engine4mvccNtB2_12LsmMvccInner11write_batch
FNDA:195934,_RNvMNtCs3ksH6Jg0luU_9kv_engine4mvccNtB2_12LsmMvccInner14new_read_guard
FNDA:1156,_RNvMNtCs3ksH6Jg0luU_9kv_engine4mvccNtB2_12LsmMvccInner15write_tombstone
FNDA:6,_RNvMNtCs3ksH6Jg0luU_9kv_engine4mvccNtB2_12LsmMvccInner16latest_commit_ts
FNDA:1,_RNvMNtCs3ksH6Jg0luU_9kv_engine4mvccNtB2_12LsmMvccInner16update_commit_ts
FNDA:34,_RNvMNtCs3ksH6Jg0luU_9kv_engine4mvccNtB2_12LsmMvccInner20record_committed_txn
FNDA:157,_RNvMNtCs3ksH6Jg0luU_9kv_engine4mvccNtB2_12LsmMvccInner3new
FNDA:217305,_RNvMNtCs3ksH6Jg0luU_9kv_engine4mvccNtB2_12LsmMvccInner5write
FNDA:39,_RNvMNtCs3ksH6Jg0luU_9kv_engine4mvccNtB2_12LsmMvccInner7new_txn
FNDA:2,_RNvMNtCs3ksH6Jg0luU_9kv_engine4mvccNtB2_12LsmMvccInner7read_ts
FNDA:70,_RNvMNtCs3ksH6Jg0luU_9kv_engine4mvccNtB2_12LsmMvccInner9watermark
FNDA:195938,_RNvMs_NtCs3ksH6Jg0luU_9kv_engine4mvccNtB4_9ReadGuard10new_latest
FNDA:195935,_RNvMs_NtCs3ksH6Jg0luU_9kv_engine4mvccNtB4_9ReadGuard7read_ts
FNDA:195938,_RNvXs0_NtCs3ksH6Jg0luU_9kv_engine4mvccNtB5_9ReadGuardNtNtNtCslfAf2Mv2Tp5_4core3ops4drop4Drop4drop
FNDA:40,_RNCNvMNtCs3ksH6Jg0luU_9kv_engine4mvccNtB4_12LsmMvccInner11write_batch0B6_
FNDA:40,_RNCNvMNtCs3ksH6Jg0luU_9kv_engine4mvccNtB4_12LsmMvccInner11write_batchs0_0B6_
FNDA:40,_RNCNvMNtCs3ksH6Jg0luU_9kv_engine4mvccNtB4_12LsmMvccInner11write_batchs_0B6_
FNDA:9,_RNvNtNtCs3ksH6Jg0luU_9kv_engine4mvcc5tests17serializable_opts
FNDA:1,_RNvNtNtCs3ksH6Jg0luU_9kv_engine4mvcc5testss_19test_mvcc_inner_new
FNDA:1,_RNvNtNtCs3ksH6Jg0luU_9kv_engine4mvcc5testss_21test_mvcc_inner_write
FNDA:1,_RNvNtNtCs3ksH6Jg0luU_9kv_engine4mvcc5testss_21test_txn_delete_local
FNDA:1,_RNvNtNtCs3ksH6Jg0luU_9kv_engine4mvcc5testss_22test_txn_put_get_local
FNDA:1,_RNvNtNtCs3ksH6Jg0luU_9kv_engine4mvcc5testss_23test_txn_commit_visible
FNDA:1,_RNvNtNtCs3ksH6Jg0luU_9kv_engine4mvcc5testss_26test_occ_read_only_commits
FNDA:1,_RNvNtNtCs3ksH6Jg0luU_9kv_engine4mvcc5testss_27test_txn_snapshot_isolation
FNDA:1,_RNvNtNtCs3ksH6Jg0luU_9kv_engine4mvcc5testss_28test_occ_read_write_conflict
FNDA:1,_RNvNtNtCs3ksH6Jg0luU_9kv_engine4mvcc5testss_28test_read_guard_duplicate_ts
FNDA:1,_RNvNtNtCs3ksH6Jg0luU_9kv_engine4mvcc5testss_28test_txn_double_commit_fails
FNDA:1,_RNvNtNtCs3ksH6Jg0luU_9kv_engine4mvcc5testss_30test_occ_mutation_after_commit
FNDA:1,_RNvNtNtCs3ksH6Jg0luU_9kv_engine4mvcc5testss_31test_occ_negative_read_recorded
FNDA:1,_RNvNtNtCs3ksH6Jg0luU_9kv_engine4mvcc5testss_32test_mvcc_inner_update_commit_ts
FNDA:1,_RNvNtNtCs3ksH6Jg0luU_9kv_engine4mvcc5testss_32test_occ_two_txns_write_same_key
FNDA:1,_RNvNtNtCs3ksH6Jg0luU_9kv_engine4mvcc5testss_32test_read_guard_drop_unregisters
FNDA:1,_RNvNtNtCs3ksH6Jg0luU_9kv_engine4mvcc5testss_32test_read_guard_multiple_readers
FNDA:1,_RNvNtNtCs3ksH6Jg0luU_9kv_engine4mvcc5testss_35test_occ_no_conflict_before_read_ts
FNDA:1,_RNvNtNtCs3ksH6Jg0luU_9kv_engine4mvcc5testss_35test_occ_no_conflict_different_keys
FNDA:1,_RNvNtNtCs3ksH6Jg0luU_9kv_engine4mvcc5testss_35test_txn_local_writes_shadow_engine
FNDA:1,_RNvNtNtCs3ksH6Jg0luU_9kv_engine4mvcc5testss_38test_read_guard_registers_in_watermark
FNDA:1,_RNvNtNtCs3ksH6Jg0luU_9kv_engine4mvcc5testss_39test_occ_scan_rejected_for_serializable
FNDA:1,_RNvNtNtCs3ksH6Jg0luU_9kv_engine4mvcc5testss_40test_occ_read_then_conflicting_txn_write
FNDA:1,_RNvNtNtCs3ksH6Jg0luU_9kv_engine4mvcc5testss_42test_read_guard_watermark_pins_after_write
FNF:41
FNH:41
DA:36,157
DA:37,157
DA:38,157
DA:39,157
DA:40,157
DA:41,157
DA:42,157
DA:43,157
DA:45,6
DA:46,6
DA:47,6
DA:49,1
DA:50,1
DA:51,1
DA:54,70
DA:55,70
DA:56,70
DA:57,70
DA:61,217305
DA:62,217305
DA:63,217305
DA:64,217305
DA:65,217305
DA:66,217305
DA:67,217305
DA:68,217305
DA:71,217305
DA:75,217305
DA:76,217305
DA:77,217305
DA:78,217305
DA:80,217305
DA:81,217305
DA:85,1156
DA:86,1156
DA:87,1156
DA:88,1156
DA:89,1156
DA:90,1156
DA:91,1156
DA:92,1156
DA:93,1156
DA:94,1156
DA:96,1156
DA:97,1156
DA:102,27
DA:103,27
DA:104,27
DA:105,27
DA:106,27
DA:107,27
DA:108,0
DA:109,27
DA:110,27
DA:111,27
DA:112,27
DA:113,27
DA:114,40
DA:115,40
DA:116,40
DA:117,27
DA:120,27
DA:121,27
DA:122,40
DA:123,40
DA:124,4
DA:126,36
DA:127,36
DA:128,36
DA:129,36
DA:131,40
DA:132,27
DA:133,27
DA:134,27
DA:135,27
DA:136,40
DA:137,40
DA:138,40
DA:139,40
DA:140,27
DA:141,27
DA:142,27
DA:144,27
DA:145,27
DA:149,2
DA:150,2
DA:151,2
DA:153,39
DA:154,39
DA:155,39
DA:156,39
DA:157,39
DA:158,39
DA:159,39
DA:160,39
DA:161,32
DA:162,32
DA:163,32
DA:164,32
DA:166,7
DA:169,39
DA:170,39
DA:171,39
DA:172,39
DA:173,39
DA:174,39
DA:175,39
DA:176,39
DA:177,39
DA:178,39
DA:179,39
DA:183,195934
DA:184,195934
DA:185,195934
DA:189,34
DA:190,34
DA:191,34
DA:192,34
DA:193,34
DA:194,34
DA:195,34
DA:196,34
DA:197,34
DA:198,34
DA:199,34
DA:200,0
DA:201,0
DA:202,34
DA:203,34
DA:204,34
DA:205,34
DA:206,34
DA:207,34
DA:208,34
DA:209,34
DA:210,34
DA:229,195938
DA:230,195938
DA:231,195938
DA:232,195938
DA:233,195938
DA:234,195938
DA:236,195938
DA:237,195938
DA:239,195935
DA:240,195935
DA:241,195935
DA:245,195938
DA:246,195938
DA:247,195938
DA:248,195938
DA:257,1
DA:258,1
DA:259,1
DA:260,1
DA:261,1
DA:262,1
DA:265,1
DA:266,1
DA:267,1
DA:268,1
DA:269,1
DA:270,1
DA:271,1
DA:275,1
DA:276,1
DA:279,1
DA:280,1
DA:281,1
DA:283,0
DA:285,1
DA:286,1
DA:289,1
DA:290,1
DA:291,1
DA:292,1
DA:293,1
DA:294,1
DA:299,1
DA:300,1
DA:301,1
DA:302,1
DA:305,1
DA:306,1
DA:309,1
DA:310,1
DA:311,1
DA:314,1
DA:315,1
DA:316,1
DA:319,1
DA:320,1
DA:321,1
DA:323,1
DA:326,1
DA:327,1
DA:330,1
DA:331,1
DA:333,1
DA:334,1
DA:335,1
DA:337,1
DA:338,1
DA:339,1
DA:342,1
DA:344,1
DA:346,1
DA:348,1
DA:350,1
DA:351,1
DA:354,1
DA:355,1
DA:356,1
DA:357,1
DA:360,1
DA:361,1
DA:362,1
DA:364,1
DA:366,1
DA:368,1
DA:370,1
DA:371,1
DA:374,1
DA:375,1
DA:376,1
DA:377,1
DA:380,1
DA:381,1
DA:382,1
DA:383,1
DA:386,1
DA:387,1
DA:388,1
DA:391,1
DA:392,1
DA:393,1
DA:394,1
DA:395,1
DA:397,1
DA:398,1
DA:399,1
DA:400,1
DA:401,1
DA:402,1
DA:405,1
DA:406,1
DA:409,1
DA:410,1
DA:411,1
DA:412,1
DA:413,1
DA:415,1
DA:416,1
DA:417,1
DA:418,1
DA:419,1
DA:420,1
DA:421,1
DA:424,1
DA:425,1
DA:426,1
DA:427,1
DA:428,1
DA:430,1
DA:431,1
DA:432,1
DA:433,1
DA:435,1
DA:436,1
DA:439,1
DA:440,1
DA:441,1
DA:442,1
DA:443,1
DA:445,1
DA:446,1
DA:447,1
DA:448,1
DA:449,1
DA:450,1
DA:453,1
DA:454,1
DA:455,1
DA:456,1
DA:457,1
DA:459,1
DA:461,1
DA:463,1
DA:464,1
DA:466,1
DA:468,1
DA:469,1
DA:472,1
DA:473,1
DA:474,1
DA:475,1
DA:476,1
DA:478,1
DA:479,1
DA:480,1
DA:481,1
DA:483,1
DA:484,1
DA:488,9
DA:489,9
DA:490,9
DA:491,9
DA:492,9
DA:495,1
DA:497,1
DA:498,1
DA:499,1
DA:500,1
DA:502,1
DA:504,1
DA:506,1
DA:508,1
DA:509,1
DA:512,1
DA:514,1
DA:515,1
DA:516,1
DA:517,1
DA:518,1
DA:519,1
DA:520,1
DA:521,1
DA:522,1
DA:525,1
DA:527,1
DA:528,1
DA:529,1
DA:531,1
DA:532,1
DA:533,1
DA:535,1
DA:536,1
DA:539,1
DA:541,1
DA:542,1
DA:543,1
DA:545,1
DA:547,1
DA:549,1
DA:551,1
DA:552,1
DA:555,1
DA:558,1
DA:559,1
DA:560,1
DA:561,1
DA:562,1
DA:563,1
DA:564,1
DA:565,1
DA:566,1
DA:567,1
DA:569,1
DA:572,1
DA:574,1
DA:575,1
DA:576,1
DA:577,1
DA:578,1
DA:579,1
DA:580,1
DA:581,1
DA:582,1
DA:585,1
DA:587,1
DA:588,1
DA:589,1
DA:590,1
DA:591,1
DA:593,1
DA:594,1
DA:595,1
DA:598,1
DA:600,1
DA:601,1
DA:602,1
DA:603,1
DA:604,1
DA:605,1
DA:606,1
DA:607,1
DA:608,1
DA:609,1
DA:611,1
DA:612,1
DA:615,1
DA:618,1
DA:619,1
DA:620,1
DA:621,1
DA:622,1
DA:623,1
DA:624,1
DA:625,1
DA:626,1
DA:627,1
DA:628,1
BRF:0
BRH:0
LF:405
LH:401
end_of_record
SF:/home/liu/proj/toy-kv-engine/kv-engine/src/mvcc/txn.rs
FN:376,_RNvXs1_NtNtCs3ksH6Jg0luU_9kv_engine4mvcc3txnNtB5_11TxnIteratorNtNtB9_9iterators15StorageIterator20num_active_iterators
FN:353,_RNvXs1_NtNtCs3ksH6Jg0luU_9kv_engine4mvcc3txnNtB5_11TxnIteratorNtNtB9_9iterators15StorageIterator3key
FN:361,_RNvXs1_NtNtCs3ksH6Jg0luU_9kv_engine4mvcc3txnNtB5_11TxnIteratorNtNtB9_9iterators15StorageIterator4next
FN:349,_RNvXs1_NtNtCs3ksH6Jg0luU_9kv_engine4mvcc3txnNtB5_11TxnIteratorNtNtB9_9iterators15StorageIterator5value
FN:357,_RNvXs1_NtNtCs3ksH6Jg0luU_9kv_engine4mvcc3txnNtB5_11TxnIteratorNtNtB9_9iterators15StorageIterator8is_valid
FN:295,_RNvXs_NtNtCs3ksH6Jg0luU_9kv_engine4mvcc3txnNtNtB4_33ouroboros_impl_txn_local_iterator16TxnLocalIteratorNtNtB8_9iterators15StorageIterator3key
FN:303,_RNvXs_NtNtCs3ksH6Jg0luU_9kv_engine4mvcc3txnNtNtB4_33ouroboros_impl_txn_local_iterator16TxnLocalIteratorNtNtB8_9iterators15StorageIterator4next
FN:291,_RNvXs_NtNtCs3ksH6Jg0luU_9kv_engine4mvcc3txnNtNtB4_33ouroboros_impl_txn_local_iterator16TxnLocalIteratorNtNtB8_9iterators15StorageIterator5value
FN:299,_RNvXs_NtNtCs3ksH6Jg0luU_9kv_engine4mvcc3txnNtNtB4_33ouroboros_impl_txn_local_iterator16TxnLocalIteratorNtNtB8_9iterators15StorageIterator8is_valid
FN:47,_RNvMNtNtCs3ksH6Jg0luU_9kv_engine4mvcc3txnNtB2_11Transaction20ensure_not_committed
FN:59,_RNvMNtNtCs3ksH6Jg0luU_9kv_engine4mvcc3txnNtB2_11Transaction3get
FN:112,_RNvMNtNtCs3ksH6Jg0luU_9kv_engine4mvcc3txnNtB2_11Transaction3put
FN:87,_RNvMNtNtCs3ksH6Jg0luU_9kv_engine4mvcc3txnNtB2_11Transaction4scan
FN:149,_RNvMNtNtCs3ksH6Jg0luU_9kv_engine4mvcc3txnNtB2_11Transaction6commit
FN:131,_RNvMNtNtCs3ksH6Jg0luU_9kv_engine4mvcc3txnNtB2_11Transaction6delete
FN:324,_RNvMs0_NtNtCs3ksH6Jg0luU_9kv_engine4mvcc3txnNtB5_11TxnIterator6create
FN:42,_RNvNtNtCs3ksH6Jg0luU_9kv_engine4mvcc3txn12is_tombstone
FN:262,_RNvNtNtCs3ksH6Jg0luU_9kv_engine4mvcc3txn9map_bound
FN:306,_RNCNCNvXs_NtNtCs3ksH6Jg0luU_9kv_engine4mvcc3txnNtNtB8_33ouroboros_impl_txn_local_iterator16TxnLocalIteratorNtNtBc_9iterators15StorageIterator4next00Bc_
FN:307,_RNCNCNvXs_NtNtCs3ksH6Jg0luU_9kv_engine4mvcc3txnNtNtB8_33ouroboros_impl_txn_local_iterator16TxnLocalIteratorNtNtBc_9iterators15StorageIterator4next0s_0Bc_
FN:99,_RNCNvMNtNtCs3ksH6Jg0luU_9kv_engine4mvcc3txnNtB4_11Transaction4scan0B8_
FN:166,_RNCNvMNtNtCs3ksH6Jg0luU_9kv_engine4mvcc3txnNtB4_11Transaction6commit0B8_
FN:247,_RNCNvMNtNtCs3ksH6Jg0luU_9kv_engine4mvcc3txnNtB4_11Transaction6commits0_0B8_
FN:225,_RNCNvMNtNtCs3ksH6Jg0luU_9kv_engine4mvcc3txnNtB4_11Transaction6commits_0B8_
FN:304,_RNCNvXs_NtNtCs3ksH6Jg0luU_9kv_engine4mvcc3txnNtNtB6_33ouroboros_impl_txn_local_iterator16TxnLocalIteratorNtNtBa_9iterators15StorageIterator4next0Ba_
FN:309,_RNCNvXs_NtNtCs3ksH6Jg0luU_9kv_engine4mvcc3txnNtNtB6_33ouroboros_impl_txn_local_iterator16TxnLocalIteratorNtNtBa_9iterators15StorageIterator4nexts_0Ba_
FNDA:0,_RNvXs1_NtNtCs3ksH6Jg0luU_9kv_engine4mvcc3txnNtB5_11TxnIteratorNtNtB9_9iterators15StorageIterator20num_active_iterators
FNDA:0,_RNvXs1_NtNtCs3ksH6Jg0luU_9kv_engine4mvcc3txnNtB5_11TxnIteratorNtNtB9_9iterators15StorageIterator3key
FNDA:0,_RNvXs1_NtNtCs3ksH6Jg0luU_9kv_engine4mvcc3txnNtB5_11TxnIteratorNtNtB9_9iterators15StorageIterator4next
FNDA:0,_RNvXs1_NtNtCs3ksH6Jg0luU_9kv_engine4mvcc3txnNtB5_11TxnIteratorNtNtB9_9iterators15StorageIterator5value
FNDA:0,_RNvXs1_NtNtCs3ksH6Jg0luU_9kv_engine4mvcc3txnNtB5_11TxnIteratorNtNtB9_9iterators15StorageIterator8is_valid
FNDA:0,_RNvXs_NtNtCs3ksH6Jg0luU_9kv_engine4mvcc3txnNtNtB4_33ouroboros_impl_txn_local_iterator16TxnLocalIteratorNtNtB8_9iterators15StorageIterator3key
FNDA:0,_RNvXs_NtNtCs3ksH6Jg0luU_9kv_engine4mvcc3txnNtNtB4_33ouroboros_impl_txn_local_iterator16TxnLocalIteratorNtNtB8_9iterators15StorageIterator4next
FNDA:0,_RNvXs_NtNtCs3ksH6Jg0luU_9kv_engine4mvcc3txnNtNtB4_33ouroboros_impl_txn_local_iterator16TxnLocalIteratorNtNtB8_9iterators15StorageIterator5value
FNDA:0,_RNvXs_NtNtCs3ksH6Jg0luU_9kv_engine4mvcc3txnNtNtB4_33ouroboros_impl_txn_local_iterator16TxnLocalIteratorNtNtB8_9iterators15StorageIterator8is_valid
FNDA:64,_RNvMNtNtCs3ksH6Jg0luU_9kv_engine4mvcc3txnNtB2_11Transaction20ensure_not_committed
FNDA:24,_RNvMNtNtCs3ksH6Jg0luU_9kv_engine4mvcc3txnNtB2_11Transaction3get
FNDA:34,_RNvMNtNtCs3ksH6Jg0luU_9kv_engine4mvcc3txnNtB2_11Transaction3put
FNDA:2,_RNvMNtNtCs3ksH6Jg0luU_9kv_engine4mvcc3txnNtB2_11Transaction4scan
FNDA:32,_RNvMNtNtCs3ksH6Jg0luU_9kv_engine4mvcc3txnNtB2_11Transaction6commit
FNDA:4,_RNvMNtNtCs3ksH6Jg0luU_9kv_engine4mvcc3txnNtB2_11Transaction6delete
FNDA:0,_RNvMs0_NtNtCs3ksH6Jg0luU_9kv_engine4mvcc3txnNtB5_11TxnIterator6create
FNDA:66,_RNvNtNtCs3ksH6Jg0luU_9kv_engine4mvcc3txn12is_tombstone
FNDA:0,_RNvNtNtCs3ksH6Jg0luU_9kv_engine4mvcc3txn9map_bound
FNDA:0,_RNCNCNvXs_NtNtCs3ksH6Jg0luU_9kv_engine4mvcc3txnNtNtB8_33ouroboros_impl_txn_local_iterator16TxnLocalIteratorNtNtBc_9iterators15StorageIterator4next00Bc_
FNDA:0,_RNCNCNvXs_NtNtCs3ksH6Jg0luU_9kv_engine4mvcc3txnNtNtB8_33ouroboros_impl_txn_local_iterator16TxnLocalIteratorNtNtBc_9iterators15StorageIterator4next0s_0Bc_
FNDA:0,_RNCNvMNtNtCs3ksH6Jg0luU_9kv_engine4mvcc3txnNtB4_11Transaction4scan0B8_
FNDA:28,_RNCNvMNtNtCs3ksH6Jg0luU_9kv_engine4mvcc3txnNtB4_11Transaction6commit0B8_
FNDA:2,_RNCNvMNtNtCs3ksH6Jg0luU_9kv_engine4mvcc3txnNtB4_11Transaction6commits0_0B8_
FNDA:20,_RNCNvMNtNtCs3ksH6Jg0luU_9kv_engine4mvcc3txnNtB4_11Transaction6commits_0B8_
FNDA:0,_RNCNvXs_NtNtCs3ksH6Jg0luU_9kv_engine4mvcc3txnNtNtB6_33ouroboros_impl_txn_local_iterator16TxnLocalIteratorNtNtBa_9iterators15StorageIterator4next0Ba_
FNDA:0,_RNCNvXs_NtNtCs3ksH6Jg0luU_9kv_engine4mvcc3txnNtNtB6_33ouroboros_impl_txn_local_iterator16TxnLocalIteratorNtNtBa_9iterators15StorageIterator4nexts_0Ba_
FNF:26
FNH:10
DA:42,66
DA:43,66
DA:44,66
DA:47,64
DA:48,64
DA:49,64
DA:52,60
DA:53,64
DA:59,24
DA:60,24
DA:63,23
DA:64,17
DA:65,17
DA:66,15
DA:67,15
DA:68,6
DA:70,23
DA:71,6
DA:73,6
DA:74,2
DA:75,4
DA:76,4
DA:77,17
DA:80,17
DA:81,24
DA:87,2
DA:88,2
DA:92,2
DA:93,2
DA:96,0
DA:97,0
DA:98,0
DA:99,0
DA:100,0
DA:103,0
DA:104,0
DA:105,0
DA:106,2
DA:112,34
DA:113,34
DA:114,32
DA:115,32
DA:119,31
DA:120,26
DA:121,26
DA:122,31
DA:123,31
DA:124,31
DA:125,34
DA:131,4
DA:132,4
DA:134,3
DA:135,2
DA:136,2
DA:137,3
DA:138,3
DA:139,3
DA:140,3
DA:141,3
DA:142,4
DA:149,32
DA:150,32
DA:151,32
DA:152,32
DA:153,32
DA:154,32
DA:155,32
DA:156,32
DA:157,32
DA:158,32
DA:160,2
DA:161,30
DA:163,30
DA:164,30
DA:165,30
DA:166,30
DA:167,28
DA:168,28
DA:169,28
DA:170,28
DA:171,30
DA:173,30
DA:175,5
DA:176,5
DA:177,25
DA:179,25
DA:180,23
DA:181,23
DA:182,23
DA:183,23
DA:184,23
DA:185,23
DA:186,23
DA:187,23
DA:189,23
DA:191,23
DA:192,23
DA:194,23
DA:195,23
DA:196,23
DA:197,23
DA:198,0
DA:199,0
DA:203,23
DA:204,23
DA:205,23
DA:206,23
DA:207,7
DA:208,7
DA:209,7
DA:210,7
DA:211,7
DA:214,6
DA:215,6
DA:219,1
DA:223,17
DA:224,17
DA:225,20
DA:226,17
DA:227,17
DA:229,17
DA:230,17
DA:231,17
DA:232,17
DA:233,17
DA:235,17
DA:238,17
DA:240,17
DA:241,17
DA:242,0
DA:243,2
DA:245,2
DA:246,2
DA:247,2
DA:248,2
DA:249,2
DA:251,0
DA:252,0
DA:253,0
DA:254,2
DA:256,2
DA:258,2
DA:259,32
DA:262,0
DA:263,0
DA:264,0
DA:265,0
DA:266,0
DA:268,0
DA:291,0
DA:292,0
DA:293,0
DA:295,0
DA:296,0
DA:297,0
DA:299,0
DA:300,0
DA:301,0
DA:303,0
DA:304,0
DA:305,0
DA:306,0
DA:307,0
DA:308,0
DA:309,0
DA:310,0
DA:311,0
DA:324,0
DA:325,0
DA:326,0
DA:327,0
DA:328,0
DA:330,0
DA:331,0
DA:334,0
DA:335,0
DA:336,0
DA:337,0
DA:338,0
DA:339,0
DA:340,0
DA:349,0
DA:350,0
DA:351,0
DA:353,0
DA:354,0
DA:355,0
DA:357,0
DA:358,0
DA:359,0
DA:361,0
DA:363,0
DA:364,0
DA:365,0
DA:368,0
DA:369,0
DA:370,0
DA:371,0
DA:372,0
DA:373,0
DA:374,0
DA:376,0
DA:377,0
DA:378,0
BRF:0
BRH:0
LF:211
LH:132
end_of_record
SF:/home/liu/proj/toy-kv-engine/kv-engine/src/mvcc/watermark.rs
FN:42,_RNvNtNtNtCs3ksH6Jg0luU_9kv_engine4mvcc9watermark5testss_20test_watermark_empty
FN:48,_RNvNtNtNtCs3ksH6Jg0luU_9kv_engine4mvcc9watermark5testss_28test_watermark_single_reader
FN:57,_RNvNtNtNtCs3ksH6Jg0luU_9kv_engine4mvcc9watermark5testss_31test_watermark_multiple_readers
FN:72,_RNvNtNtNtCs3ksH6Jg0luU_9kv_engine4mvcc9watermark5testss_34test_watermark_duplicate_reader_ts
FN:18,_RNvMNtNtCs3ksH6Jg0luU_9kv_engine4mvcc9watermarkNtB2_9Watermark10add_reader
FN:22,_RNvMNtNtCs3ksH6Jg0luU_9kv_engine4mvcc9watermarkNtB2_9Watermark13remove_reader
FN:12,_RNvMNtNtCs3ksH6Jg0luU_9kv_engine4mvcc9watermarkNtB2_9Watermark3new
FN:32,_RNvMNtNtCs3ksH6Jg0luU_9kv_engine4mvcc9watermarkNtB2_9Watermark9watermark
FNDA:1,_RNvNtNtNtCs3ksH6Jg0luU_9kv_engine4mvcc9watermark5testss_20test_watermark_empty
FNDA:1,_RNvNtNtNtCs3ksH6Jg0luU_9kv_engine4mvcc9watermark5testss_28test_watermark_single_reader
FNDA:1,_RNvNtNtNtCs3ksH6Jg0luU_9kv_engine4mvcc9watermark5testss_31test_watermark_multiple_readers
FNDA:1,_RNvNtNtNtCs3ksH6Jg0luU_9kv_engine4mvcc9watermark5testss_34test_watermark_duplicate_reader_ts
FNDA:195944,_RNvMNtNtCs3ksH6Jg0luU_9kv_engine4mvcc9watermarkNtB2_9Watermark10add_reader
FNDA:195944,_RNvMNtNtCs3ksH6Jg0luU_9kv_engine4mvcc9watermarkNtB2_9Watermark13remove_reader
FNDA:161,_RNvMNtNtCs3ksH6Jg0luU_9kv_engine4mvcc9watermarkNtB2_9Watermark3new
FNDA:81,_RNvMNtNtCs3ksH6Jg0luU_9kv_engine4mvcc9watermarkNtB2_9Watermark9watermark
FNF:8
FNH:8
DA:12,161
DA:13,161
DA:14,161
DA:15,161
DA:16,161
DA:18,195944
DA:19,195944
DA:20,195944
DA:22,195944
DA:23,195944
DA:24,195944
DA:25,195944
DA:26,195872
DA:27,195872
DA:28,0
DA:29,195944
DA:32,81
DA:33,81
DA:34,81
DA:42,1
DA:43,1
DA:44,1
DA:45,1
DA:48,1
DA:49,1
DA:50,1
DA:51,1
DA:52,1
DA:53,1
DA:54,1
DA:57,1
DA:58,1
DA:59,1
DA:60,1
DA:61,1
DA:62,1
DA:63,1
DA:64,1
DA:65,1
DA:66,1
DA:67,1
DA:68,1
DA:69,1
DA:72,1
DA:73,1
DA:74,1
DA:75,1
DA:76,1
DA:77,1
DA:78,1
DA:79,1
DA:80,1
DA:81,1
BRF:0
BRH:0
LF:53
LH:52
end_of_record
SF:/home/liu/proj/toy-kv-engine/kv-engine/src/table.rs
FN:40,_RNvMNtCs3ksH6Jg0luU_9kv_engine5tableNtB2_9BlockMeta14estimated_size
FN:64,_RNvMNtCs3ksH6Jg0luU_9kv_engine5tableNtB2_9BlockMeta17encode_block_meta
FN:308,_RNvMs0_NtCs3ksH6Jg0luU_9kv_engine5tableNtB5_7SsTable10read_block
FN:547,_RNvMs0_NtCs3ksH6Jg0luU_9kv_engine5tableNtB5_7SsTable10table_size
FN:531,_RNvMs0_NtCs3ksH6Jg0luU_9kv_engine5tableNtB5_7SsTable13num_of_blocks
FN:174,_RNvMs0_NtCs3ksH6Jg0luU_9kv_engine5tableNtB5_7SsTable13open_for_test
FN:559,_RNvMs0_NtCs3ksH6Jg0luU_9kv_engine5tableNtB5_7SsTable13range_overlap
FN:333,_RNvMs0_NtCs3ksH6Jg0luU_9kv_engine5tableNtB5_7SsTable14find_block_idx
FN:322,_RNvMs0_NtCs3ksH6Jg0luU_9kv_engine5tableNtB5_7SsTable17read_block_cached
FN:411,_RNvMs0_NtCs3ksH6Jg0luU_9kv_engine5tableNtB5_7SsTable19point_get_with_hash
FN:432,_RNvMs0_NtCs3ksH6Jg0luU_9kv_engine5tableNtB5_7SsTable25point_get_with_hash_inner
FN:423,_RNvMs0_NtCs3ksH6Jg0luU_9kv_engine5tableNtB5_7SsTable27point_get_with_hash_and_key
FN:179,_RNvMs0_NtCs3ksH6Jg0luU_9kv_engine5tableNtB5_7SsTable4open
FN:555,_RNvMs0_NtCs3ksH6Jg0luU_9kv_engine5tableNtB5_7SsTable6max_ts
FN:551,_RNvMs0_NtCs3ksH6Jg0luU_9kv_engine5tableNtB5_7SsTable6sst_id
FN:541,_RNvMs0_NtCs3ksH6Jg0luU_9kv_engine5tableNtB5_7SsTable8last_key
FN:536,_RNvMs0_NtCs3ksH6Jg0luU_9kv_engine5tableNtB5_7SsTable9first_key
FN:148,_RNvMs_NtCs3ksH6Jg0luU_9kv_engine5tableNtB4_10FileObject4open
FN:124,_RNvMs_NtCs3ksH6Jg0luU_9kv_engine5tableNtB4_10FileObject4read
FN:134,_RNvMs_NtCs3ksH6Jg0luU_9kv_engine5tableNtB4_10FileObject4size
FN:139,_RNvMs_NtCs3ksH6Jg0luU_9kv_engine5tableNtB4_10FileObject6create
FN:288,_RNvMs0_NtCs3ksH6Jg0luU_9kv_engine5tableNtB5_7SsTable16create_meta_only
FN:405,_RNvMs0_NtCs3ksH6Jg0luU_9kv_engine5tableNtB5_7SsTable9point_get
FN:90,_RINvMNtCs3ksH6Jg0luU_9kv_engine5tableNtB3_9BlockMeta17decode_block_metaRShEB5_
FN:261,_RNCNCNvMs0_NtCs3ksH6Jg0luU_9kv_engine5tableNtB9_7SsTable4open00Bb_
FN:395,_RNCNvMs0_NtCs3ksH6Jg0luU_9kv_engine5tableNtB7_7SsTable14find_block_idx0B9_
FN:324,_RNCNvMs0_NtCs3ksH6Jg0luU_9kv_engine5tableNtB7_7SsTable17read_block_cached0B9_
FN:413,_RNCNvMs0_NtCs3ksH6Jg0luU_9kv_engine5tableNtB7_7SsTable19point_get_with_hash0B9_
FN:495,_RNCNvMs0_NtCs3ksH6Jg0luU_9kv_engine5tableNtB7_7SsTable25point_get_with_hash_inner0B9_
FN:259,_RNCNvMs0_NtCs3ksH6Jg0luU_9kv_engine5tableNtB7_7SsTable4open0B9_
FN:238,_RNCNvMs0_NtCs3ksH6Jg0luU_9kv_engine5tableNtB7_7SsTable4opens0_0B9_
FN:219,_RNCNvMs0_NtCs3ksH6Jg0luU_9kv_engine5tableNtB7_7SsTable4opens_0B9_
FNDA:358,_RNvMNtCs3ksH6Jg0luU_9kv_engine5tableNtB2_9BlockMeta14estimated_size
FNDA:358,_RNvMNtCs3ksH6Jg0luU_9kv_engine5tableNtB2_9BlockMeta17encode_block_meta
FNDA:30340,_RNvMs0_NtCs3ksH6Jg0luU_9kv_engine5tableNtB5_7SsTable10read_block
FNDA:9798,_RNvMs0_NtCs3ksH6Jg0luU_9kv_engine5tableNtB5_7SsTable10table_size
FNDA:34206,_RNvMs0_NtCs3ksH6Jg0luU_9kv_engine5tableNtB5_7SsTable13num_of_blocks
FNDA:6,_RNvMs0_NtCs3ksH6Jg0luU_9kv_engine5tableNtB5_7SsTable13open_for_test
FNDA:80,_RNvMs0_NtCs3ksH6Jg0luU_9kv_engine5tableNtB5_7SsTable13range_overlap
FNDA:117235,_RNvMs0_NtCs3ksH6Jg0luU_9kv_engine5tableNtB5_7SsTable14find_block_idx
FNDA:150779,_RNvMs0_NtCs3ksH6Jg0luU_9kv_engine5tableNtB5_7SsTable17read_block_cached
FNDA:0,_RNvMs0_NtCs3ksH6Jg0luU_9kv_engine5tableNtB5_7SsTable19point_get_with_hash
FNDA:213014,_RNvMs0_NtCs3ksH6Jg0luU_9kv_engine5tableNtB5_7SsTable25point_get_with_hash_inner
FNDA:213014,_RNvMs0_NtCs3ksH6Jg0luU_9kv_engine5tableNtB5_7SsTable27point_get_with_hash_and_key
FNDA:86,_RNvMs0_NtCs3ksH6Jg0luU_9kv_engine5tableNtB5_7SsTable4open
FNDA:3429,_RNvMs0_NtCs3ksH6Jg0luU_9kv_engine5tableNtB5_7SsTable6max_ts
FNDA:659,_RNvMs0_NtCs3ksH6Jg0luU_9kv_engine5tableNtB5_7SsTable6sst_id
FNDA:344377,_RNvMs0_NtCs3ksH6Jg0luU_9kv_engine5tableNtB5_7SsTable8last_key
FNDA:1240692,_RNvMs0_NtCs3ksH6Jg0luU_9kv_engine5tableNtB5_7SsTable9first_key
FNDA:85,_RNvMs_NtCs3ksH6Jg0luU_9kv_engine5tableNtB4_10FileObject4open
FNDA:30680,_RNvMs_NtCs3ksH6Jg0luU_9kv_engine5tableNtB4_10FileObject4read
FNDA:342,_RNvMs_NtCs3ksH6Jg0luU_9kv_engine5tableNtB4_10FileObject4size
FNDA:358,_RNvMs_NtCs3ksH6Jg0luU_9kv_engine5tableNtB4_10FileObject6create
FNDA:0,_RNvMs0_NtCs3ksH6Jg0luU_9kv_engine5tableNtB5_7SsTable16create_meta_only
FNDA:0,_RNvMs0_NtCs3ksH6Jg0luU_9kv_engine5tableNtB5_7SsTable9point_get
FNDA:85,_RINvMNtCs3ksH6Jg0luU_9kv_engine5tableNtB3_9BlockMeta17decode_block_metaRShEB5_
FNDA:69,_RNCNCNvMs0_NtCs3ksH6Jg0luU_9kv_engine5tableNtB9_7SsTable4open00Bb_
FNDA:133,_RNCNvMs0_NtCs3ksH6Jg0luU_9kv_engine5tableNtB7_7SsTable14find_block_idx0B9_
FNDA:29539,_RNCNvMs0_NtCs3ksH6Jg0luU_9kv_engine5tableNtB7_7SsTable17read_block_cached0B9_
FNDA:0,_RNCNvMs0_NtCs3ksH6Jg0luU_9kv_engine5tableNtB7_7SsTable19point_get_with_hash0B9_
FNDA:115767,_RNCNvMs0_NtCs3ksH6Jg0luU_9kv_engine5tableNtB7_7SsTable25point_get_with_hash_inner0B9_
FNDA:153,_RNCNvMs0_NtCs3ksH6Jg0luU_9kv_engine5tableNtB7_7SsTable4open0B9_
FNDA:85,_RNCNvMs0_NtCs3ksH6Jg0luU_9kv_engine5tableNtB7_7SsTable4opens0_0B9_
FNDA:85,_RNCNvMs0_NtCs3ksH6Jg0luU_9kv_engine5tableNtB7_7SsTable4opens_0B9_
FNF:32
FNH:28
DA:40,358
DA:41,358
DA:42,36845
DA:43,36845
DA:44,36845
DA:45,36845
DA:46,36845
DA:47,36845
DA:48,36845
DA:49,36845
DA:50,36845
DA:51,36845
DA:52,36845
DA:53,36845
DA:54,36845
DA:56,358
DA:58,358
DA:59,358
DA:64,358
DA:65,358
DA:66,358
DA:68,36845
DA:69,36845
DA:70,36845
DA:71,36845
DA:72,36845
DA:73,36845
DA:74,36845
DA:75,36845
DA:76,36845
DA:77,36845
DA:78,36845
DA:79,36845
DA:80,36845
DA:81,36845
DA:83,36845
DA:84,36845
DA:85,36845
DA:86,358
DA:87,358
DA:90,85
DA:91,85
DA:92,85
DA:93,85
DA:94,85
DA:96,85
DA:97,85
DA:98,152
DA:99,152
DA:100,152
DA:102,152
DA:103,152
DA:104,152
DA:106,152
DA:108,152
DA:109,152
DA:110,152
DA:111,152
DA:112,152
DA:115,85
DA:116,85
DA:124,30680
DA:126,30680
DA:127,30680
DA:128,30680
DA:129,30680
DA:130,30680
DA:131,30680
DA:132,30680
DA:134,342
DA:135,342
DA:136,342
DA:139,358
DA:140,358
DA:141,352
DA:143,352
DA:144,352
DA:146,358
DA:148,85
DA:149,85
DA:150,85
DA:151,85
DA:152,85
DA:174,6
DA:175,6
DA:176,6
DA:179,86
DA:181,86
DA:182,86
DA:184,1
DA:190,85
DA:191,85
DA:192,85
DA:197,85
DA:198,85
DA:199,84
DA:200,85
DA:203,84
DA:204,84
DA:205,84
DA:206,84
DA:207,84
DA:208,84
DA:209,84
DA:212,1
DA:213,1
DA:215,85
DA:216,85
DA:217,85
DA:218,85
DA:219,85
DA:223,85
DA:224,85
DA:225,85
DA:226,85
DA:227,0
DA:228,85
DA:229,0
DA:231,85
DA:232,85
DA:233,85
DA:234,85
DA:235,85
DA:236,85
DA:237,85
DA:238,85
DA:243,85
DA:244,85
DA:245,85
DA:247,85
DA:248,85
DA:249,85
DA:255,85
DA:259,153
DA:260,153
DA:261,69
DA:262,153
DA:263,77
DA:264,77
DA:265,76
DA:267,1
DA:271,76
DA:273,74
DA:274,84
DA:275,84
DA:276,84
DA:277,84
DA:278,84
DA:279,84
DA:280,84
DA:281,84
DA:282,84
DA:283,84
DA:284,84
DA:285,86
DA:288,0
DA:289,0
DA:290,0
DA:291,0
DA:292,0
DA:293,0
DA:294,0
DA:295,0
DA:296,0
DA:297,0
DA:298,0
DA:299,0
DA:300,0
DA:301,0
DA:302,0
DA:303,0
DA:304,0
DA:305,0
DA:308,30340
DA:309,30340
DA:310,30340
DA:311,30340
DA:312,30340
DA:313,30340
DA:315,30340
DA:316,30340
DA:318,30340
DA:319,30340
DA:322,150779
DA:323,150779
DA:324,149978
DA:325,801
DA:327,801
DA:328,150779
DA:333,117235
DA:334,117235
DA:335,0
DA:336,117235
DA:337,117235
DA:338,117235
DA:342,117235
DA:344,1046652
DA:345,931276
DA:346,931276
DA:347,931276
DA:349,931276
DA:353,931276
DA:354,931276
DA:355,931276
DA:356,931276
DA:357,117280
DA:360,117280
DA:361,998
DA:362,116282
DA:363,116282
DA:364,813996
DA:365,344776
DA:366,517
DA:367,344259
DA:368,344259
DA:370,469220
DA:371,344
DA:372,468876
DA:373,468876
DA:376,0
DA:377,0
DA:378,0
DA:379,0
DA:380,0
DA:381,0
DA:382,0
DA:383,0
DA:385,0
DA:386,0
DA:387,0
DA:388,0
DA:395,115376
DA:396,117235
DA:405,0
DA:406,0
DA:407,0
DA:411,0
DA:412,0
DA:413,0
DA:414,0
DA:423,213014
DA:424,213014
DA:425,213014
DA:426,213014
DA:427,213014
DA:428,213014
DA:429,213014
DA:430,213014
DA:432,213014
DA:433,213014
DA:434,213014
DA:435,213014
DA:436,213014
DA:437,213014
DA:442,213014
DA:443,0
DA:444,213014
DA:449,213014
DA:450,213014
DA:452,96401
DA:453,116613
DA:455,116613
DA:456,0
DA:457,116613
DA:462,116613
DA:463,116613
DA:464,116613
DA:465,116613
DA:468,116614
DA:469,340
DA:470,340
DA:471,339
DA:472,1
DA:473,1
DA:474,1
DA:475,1
DA:476,1
DA:479,116613
DA:480,116613
DA:485,116613
DA:486,116274
DA:487,116274
DA:488,116274
DA:492,506
DA:493,115768
DA:494,115768
DA:495,115768
DA:496,115768
DA:497,0
DA:499,0
DA:504,845
DA:505,339
DA:506,339
DA:507,339
DA:508,0
DA:509,0
DA:510,0
DA:511,0
DA:512,0
DA:515,0
DA:516,506
DA:518,506
DA:520,0
DA:521,0
DA:522,0
DA:523,0
DA:524,0
DA:525,0
DA:526,845
DA:527,213014
DA:531,34206
DA:532,34206
DA:533,34206
DA:536,1240692
DA:537,1240692
DA:538,1240692
DA:541,344377
DA:542,344377
DA:543,344377
DA:547,9798
DA:548,9798
DA:549,9798
DA:551,659
DA:552,659
DA:553,659
DA:555,3429
DA:556,3429
DA:557,3429
DA:559,80
DA:560,80
DA:561,80
DA:565,24
DA:566,24
DA:567,14
DA:568,55
DA:571,14
DA:572,14
DA:573,19
DA:574,29
DA:577,29
DA:578,80
BRF:0
BRH:0
LF:349
LH:292
end_of_record
SF:/home/liu/proj/toy-kv-engine/kv-engine/src/table/bloom.rs
FN:50,_RNvXs_NtNtCs3ksH6Jg0luU_9kv_engine5table5bloomNtNtCs3nU4b9VY2Ln_5bytes9bytes_mut8BytesMutNtB4_11BitSliceMut7set_bitB8_
FN:169,_RNCNvMs1_NtNtCs3ksH6Jg0luU_9kv_engine5table5bloomNtB7_16IncrementalBloom3new0Bb_
FN:8,_RNCNvNtNtCs3ksH6Jg0luU_9kv_engine5table5bloom11AHASH_STATE0B7_
FN:44,_RNvXNtNtCs3ksH6Jg0luU_9kv_engine5table5bloomNtNtCs3nU4b9VY2Ln_5bytes5bytes5BytesNtB2_8BitSlice7bit_lenB6_
FN:38,_RNvXNtNtCs3ksH6Jg0luU_9kv_engine5table5bloomNtNtCs3nU4b9VY2Ln_5bytes5bytes5BytesNtB2_8BitSlice7get_bitB6_
FN:114,_RNvMs0_NtNtCs3ksH6Jg0luU_9kv_engine5table5bloomNtB5_5Bloom11may_contain
FN:79,_RNvMs0_NtNtCs3ksH6Jg0luU_9kv_engine5table5bloomNtB5_5Bloom18bloom_bits_per_key
FN:86,_RNvMs0_NtNtCs3ksH6Jg0luU_9kv_engine5table5bloomNtB5_5Bloom21build_from_key_hashes
FN:63,_RNvMs0_NtNtCs3ksH6Jg0luU_9kv_engine5table5bloomNtB5_5Bloom6decode
FN:73,_RNvMs0_NtNtCs3ksH6Jg0luU_9kv_engine5table5bloomNtB5_5Bloom6encode
FN:192,_RNvMs1_NtNtCs3ksH6Jg0luU_9kv_engine5table5bloomNtB5_16IncrementalBloom16may_contain_hash
FN:160,_RNvMs1_NtNtCs3ksH6Jg0luU_9kv_engine5table5bloomNtB5_16IncrementalBloom3new
FN:176,_RNvMs1_NtNtCs3ksH6Jg0luU_9kv_engine5table5bloomNtB5_16IncrementalBloom9push_hash
FN:12,_RNvNtNtCs3ksH6Jg0luU_9kv_engine5table5bloom8hash_key
FNDA:5265798,_RNvXs_NtNtCs3ksH6Jg0luU_9kv_engine5table5bloomNtNtCs3nU4b9VY2Ln_5bytes9bytes_mut8BytesMutNtB4_11BitSliceMut7set_bitB8_
FNDA:3179520,_RNCNvMs1_NtNtCs3ksH6Jg0luU_9kv_engine5table5bloomNtB7_16IncrementalBloom3new0Bb_
FNDA:1,_RNCNvNtNtCs3ksH6Jg0luU_9kv_engine5table5bloom11AHASH_STATE0B7_
FNDA:214014,_RNvXNtNtCs3ksH6Jg0luU_9kv_engine5table5bloomNtNtCs3nU4b9VY2Ln_5bytes5bytes5BytesNtB2_8BitSlice7bit_lenB6_
FNDA:872114,_RNvXNtNtCs3ksH6Jg0luU_9kv_engine5table5bloomNtNtCs3nU4b9VY2Ln_5bytes5bytes5BytesNtB2_8BitSlice7get_bitB6_
FNDA:214014,_RNvMs0_NtNtCs3ksH6Jg0luU_9kv_engine5table5bloomNtB5_5Bloom11may_contain
FNDA:980,_RNvMs0_NtNtCs3ksH6Jg0luU_9kv_engine5table5bloomNtB5_5Bloom18bloom_bits_per_key
FNDA:359,_RNvMs0_NtNtCs3ksH6Jg0luU_9kv_engine5table5bloomNtB5_5Bloom21build_from_key_hashes
FNDA:85,_RNvMs0_NtNtCs3ksH6Jg0luU_9kv_engine5table5bloomNtB5_5Bloom6decode
FNDA:358,_RNvMs0_NtNtCs3ksH6Jg0luU_9kv_engine5table5bloomNtB5_5Bloom6encode
FNDA:240,_RNvMs1_NtNtCs3ksH6Jg0luU_9kv_engine5table5bloomNtB5_16IncrementalBloom16may_contain_hash
FNDA:621,_RNvMs1_NtNtCs3ksH6Jg0luU_9kv_engine5table5bloomNtB5_16IncrementalBloom3new
FNDA:218729,_RNvMs1_NtNtCs3ksH6Jg0luU_9kv_engine5table5bloomNtB5_16IncrementalBloom9push_hash
FNDA:1293493,_RNvNtNtCs3ksH6Jg0luU_9kv_engine5table5bloom8hash_key
FNF:14
FNH:14
DA:8,1
DA:12,1293493
DA:13,1293493
DA:14,1293493
DA:16,1293493
DA:17,1293493
DA:38,872114
DA:39,872114
DA:40,872114
DA:41,872114
DA:42,872114
DA:44,214014
DA:45,214014
DA:46,214014
DA:50,5265798
DA:51,5265798
DA:52,5265798
DA:53,5265798
DA:54,5265798
DA:55,5265798
DA:56,0
DA:57,0
DA:58,5265798
DA:63,85
DA:64,85
DA:65,85
DA:66,85
DA:67,85
DA:68,85
DA:69,85
DA:70,85
DA:73,358
DA:74,358
DA:75,358
DA:76,358
DA:79,980
DA:80,980
DA:81,980
DA:82,980
DA:83,980
DA:86,359
DA:87,359
DA:88,359
DA:89,359
DA:90,359
DA:91,359
DA:92,359
DA:93,359
DA:96,877633
DA:97,877633
DA:98,877633
DA:100,5265798
DA:101,5265798
DA:102,5265798
DA:103,5265798
DA:104,5265798
DA:107,359
DA:108,359
DA:109,359
DA:110,359
DA:111,359
DA:114,214014
DA:115,214014
DA:117,0
DA:119,214014
DA:120,214014
DA:122,872114
DA:123,872114
DA:124,872114
DA:125,97290
DA:126,774824
DA:127,774824
DA:130,116724
DA:132,214014
DA:160,621
DA:161,621
DA:162,621
DA:163,621
DA:164,621
DA:165,621
DA:166,621
DA:167,621
DA:168,621
DA:169,3179520
DA:170,621
DA:171,621
DA:172,621
DA:176,218729
DA:177,218729
DA:178,1312374
DA:179,1312374
DA:180,1312374
DA:181,1312374
DA:182,1312374
DA:183,1312374
DA:184,1312374
DA:185,218729
DA:192,240
DA:193,240
DA:194,240
DA:195,1110
DA:196,1110
DA:197,1110
DA:198,1110
DA:199,1110
DA:200,66
DA:201,1044
DA:202,1044
DA:204,174
DA:205,240
BRF:0
BRH:0
LF:111
LH:108
end_of_record
SF:/home/liu/proj/toy-kv-engine/kv-engine/src/table/builder.rs
FN:59,_RNvMNtNtCs3ksH6Jg0luU_9kv_engine5table7builderNtB2_14SsTableBuilder13new_with_vlog
FN:218,_RNvMNtNtCs3ksH6Jg0luU_9kv_engine5table7builderNtB2_14SsTableBuilder13vlog_file_ids
FN:213,_RNvMNtNtCs3ksH6Jg0luU_9kv_engine5table7builderNtB2_14SsTableBuilder14estimated_size
FN:224,_RNvMNtNtCs3ksH6Jg0luU_9kv_engine5table7builderNtB2_14SsTableBuilder17take_vlog_entries
FN:83,_RNvMNtNtCs3ksH6Jg0luU_9kv_engine5table7builderNtB2_14SsTableBuilder18set_collect_blocks
FN:99,_RNvMNtNtCs3ksH6Jg0luU_9kv_engine5table7builderNtB2_14SsTableBuilder3add
FN:41,_RNvMNtNtCs3ksH6Jg0luU_9kv_engine5table7builderNtB2_14SsTableBuilder3new
FN:142,_RNvMNtNtCs3ksH6Jg0luU_9kv_engine5table7builderNtB2_14SsTableBuilder7add_raw
FN:87,_RNvMNtNtCs3ksH6Jg0luU_9kv_engine5table7builderNtB2_14SsTableBuilder8is_empty
FN:154,_RNvMNtNtCs3ksH6Jg0luU_9kv_engine5table7builderNtB2_14SsTableBuilder9add_inner
FN:337,_RINvMNtNtCs3ksH6Jg0luU_9kv_engine5table7builderNtB3_14SsTableBuilder14build_for_testNtNtCskaANe6KdTWL_3std4path7PathBufEB7_
FN:337,_RINvMNtNtCs3ksH6Jg0luU_9kv_engine5table7builderNtB3_14SsTableBuilder14build_for_testRNtNtCskaANe6KdTWL_3std4path7PathBufEB7_
FN:250,_RINvMNtNtCs3ksH6Jg0luU_9kv_engine5table7builderNtB3_14SsTableBuilder19build_with_backfillNtNtCskaANe6KdTWL_3std4path7PathBufEB7_
FN:250,_RINvMNtNtCs3ksH6Jg0luU_9kv_engine5table7builderNtB3_14SsTableBuilder19build_with_backfillRNtNtCskaANe6KdTWL_3std4path4PathEB7_
FN:250,_RINvMNtNtCs3ksH6Jg0luU_9kv_engine5table7builderNtB3_14SsTableBuilder19build_with_backfillRNtNtCskaANe6KdTWL_3std4path7PathBufEB7_
FN:235,_RINvMNtNtCs3ksH6Jg0luU_9kv_engine5table7builderNtB3_14SsTableBuilder5buildNtNtCskaANe6KdTWL_3std4path7PathBufEB7_
FN:235,_RINvMNtNtCs3ksH6Jg0luU_9kv_engine5table7builderNtB3_14SsTableBuilder5buildRNtNtCskaANe6KdTWL_3std4path4PathEB7_
FN:235,_RINvMNtNtCs3ksH6Jg0luU_9kv_engine5table7builderNtB3_14SsTableBuilder5buildRNtNtCskaANe6KdTWL_3std4path7PathBufEB7_
FN:227,_RNCNvMNtNtCs3ksH6Jg0luU_9kv_engine5table7builderNtB4_14SsTableBuilder17take_vlog_entries0B8_
FNDA:64,_RNvMNtNtCs3ksH6Jg0luU_9kv_engine5table7builderNtB2_14SsTableBuilder13new_with_vlog
FNDA:177,_RNvMNtNtCs3ksH6Jg0luU_9kv_engine5table7builderNtB2_14SsTableBuilder13vlog_file_ids
FNDA:660694,_RNvMNtNtCs3ksH6Jg0luU_9kv_engine5table7builderNtB2_14SsTableBuilder14estimated_size
FNDA:64,_RNvMNtNtCs3ksH6Jg0luU_9kv_engine5table7builderNtB2_14SsTableBuilder17take_vlog_entries
FNDA:323,_RNvMNtNtCs3ksH6Jg0luU_9kv_engine5table7builderNtB2_14SsTableBuilder18set_collect_blocks
FNDA:216722,_RNvMNtNtCs3ksH6Jg0luU_9kv_engine5table7builderNtB2_14SsTableBuilder3add
FNDA:297,_RNvMNtNtCs3ksH6Jg0luU_9kv_engine5table7builderNtB2_14SsTableBuilder3new
FNDA:660815,_RNvMNtNtCs3ksH6Jg0luU_9kv_engine5table7builderNtB2_14SsTableBuilder7add_raw
FNDA:70,_RNvMNtNtCs3ksH6Jg0luU_9kv_engine5table7builderNtB2_14SsTableBuilder8is_empty
FNDA:877537,_RNvMNtNtCs3ksH6Jg0luU_9kv_engine5table7builderNtB2_14SsTableBuilder9add_inner
FNDA:26,_RINvMNtNtCs3ksH6Jg0luU_9kv_engine5table7builderNtB3_14SsTableBuilder14build_for_testNtNtCskaANe6KdTWL_3std4path7PathBufEB7_
FNDA:6,_RINvMNtNtCs3ksH6Jg0luU_9kv_engine5table7builderNtB3_14SsTableBuilder14build_for_testRNtNtCskaANe6KdTWL_3std4path7PathBufEB7_
FNDA:348,_RINvMNtNtCs3ksH6Jg0luU_9kv_engine5table7builderNtB3_14SsTableBuilder19build_with_backfillNtNtCskaANe6KdTWL_3std4path7PathBufEB7_
FNDA:4,_RINvMNtNtCs3ksH6Jg0luU_9kv_engine5table7builderNtB3_14SsTableBuilder19build_with_backfillRNtNtCskaANe6KdTWL_3std4path4PathEB7_
FNDA:6,_RINvMNtNtCs3ksH6Jg0luU_9kv_engine5table7builderNtB3_14SsTableBuilder19build_with_backfillRNtNtCskaANe6KdTWL_3std4path7PathBufEB7_
FNDA:26,_RINvMNtNtCs3ksH6Jg0luU_9kv_engine5table7builderNtB3_14SsTableBuilder5buildNtNtCskaANe6KdTWL_3std4path7PathBufEB7_
FNDA:4,_RINvMNtNtCs3ksH6Jg0luU_9kv_engine5table7builderNtB3_14SsTableBuilder5buildRNtNtCskaANe6KdTWL_3std4path4PathEB7_
FNDA:6,_RINvMNtNtCs3ksH6Jg0luU_9kv_engine5table7builderNtB3_14SsTableBuilder5buildRNtNtCskaANe6KdTWL_3std4path7PathBufEB7_
FNDA:64,_RNCNvMNtNtCs3ksH6Jg0luU_9kv_engine5table7builderNtB4_14SsTableBuilder17take_vlog_entries0B8_
FNF:14
FNH:14
DA:41,297
DA:42,297
DA:43,297
DA:44,297
DA:45,297
DA:46,297
DA:47,297
DA:48,297
DA:49,297
DA:50,297
DA:51,297
DA:52,297
DA:53,297
DA:54,297
DA:55,297
DA:56,297
DA:59,64
DA:60,64
DA:61,64
DA:62,64
DA:63,64
DA:64,64
DA:65,64
DA:66,64
DA:67,64
DA:68,64
DA:69,64
DA:70,64
DA:71,64
DA:72,64
DA:73,64
DA:74,64
DA:75,64
DA:76,64
DA:77,64
DA:78,64
DA:79,64
DA:83,323
DA:84,323
DA:85,323
DA:87,70
DA:88,70
DA:89,70
DA:99,216722
DA:101,216722
DA:102,2
DA:103,216720
DA:104,216720
DA:105,163
DA:106,138
DA:110,138
DA:111,138
DA:112,138
DA:114,0
DA:116,138
DA:117,138
DA:118,138
DA:119,138
DA:120,138
DA:123,216582
DA:124,216582
DA:125,211509
DA:126,211509
DA:127,211509
DA:128,211509
DA:130,5073
DA:131,5073
DA:132,5073
DA:133,5073
DA:137,216720
DA:138,216722
DA:142,660815
DA:144,660815
DA:145,660719
DA:146,65
DA:147,65
DA:148,20
DA:149,20
DA:150,660795
DA:151,660815
DA:152,660815
DA:154,877537
DA:156,877537
DA:157,877537
DA:158,877537
DA:159,518168
DA:160,518168
DA:161,0
DA:162,877537
DA:163,841048
DA:164,841048
DA:165,841048
DA:166,36489
DA:167,36489
DA:168,36489
DA:169,36489
DA:170,36489
DA:171,36489
DA:172,26616
DA:173,26616
DA:174,26616
DA:176,9873
DA:179,36489
DA:180,36489
DA:181,36489
DA:182,36489
DA:183,36489
DA:184,36489
DA:186,36489
DA:187,36489
DA:188,0
DA:191,0
DA:192,0
DA:195,36489
DA:197,36489
DA:200,877537
DA:201,877537
DA:202,877537
DA:203,877537
DA:204,0
DA:205,0
DA:206,877537
DA:207,877537
DA:213,660694
DA:214,660694
DA:215,660694
DA:218,177
DA:219,177
DA:220,177
DA:224,64
DA:225,64
DA:226,64
DA:227,64
DA:228,64
DA:229,64
DA:235,36
DA:236,36
DA:237,36
DA:238,36
DA:239,36
DA:240,36
DA:241,36
DA:242,36
DA:243,36
DA:250,358
DA:251,358
DA:252,358
DA:253,358
DA:254,358
DA:255,358
DA:257,358
DA:258,64
DA:259,294
DA:261,358
DA:262,349
DA:263,349
DA:264,349
DA:265,349
DA:266,349
DA:268,9
DA:269,9
DA:270,9
DA:271,9
DA:273,358
DA:274,358
DA:275,358
DA:276,358
DA:277,358
DA:278,358
DA:280,358
DA:281,358
DA:282,266
DA:283,266
DA:284,266
DA:286,92
DA:288,358
DA:289,358
DA:291,358
DA:292,358
DA:293,358
DA:295,358
DA:296,358
DA:297,358
DA:298,358
DA:299,358
DA:302,358
DA:303,358
DA:304,358
DA:306,358
DA:308,352
DA:309,264
DA:310,264
DA:311,264
DA:313,0
DA:314,0
DA:316,88
DA:318,352
DA:319,352
DA:320,352
DA:322,352
DA:323,352
DA:324,352
DA:325,352
DA:326,352
DA:327,352
DA:328,352
DA:329,352
DA:330,352
DA:331,352
DA:332,352
DA:333,352
DA:334,358
DA:337,32
DA:338,32
DA:339,32
BRF:0
BRH:0
LF:216
LH:207
end_of_record
SF:/home/liu/proj/toy-kv-engine/kv-engine/src/table/iterator.rs
FN:71,_RNvMNtNtCs3ksH6Jg0luU_9kv_engine5table8iteratorNtB2_15SsTableIterator32create_and_seek_to_key_with_vlog
FN:38,_RNvMNtNtCs3ksH6Jg0luU_9kv_engine5table8iteratorNtB2_15SsTableIterator34create_and_seek_to_first_with_vlog
FN:109,_RNvMNtNtCs3ksH6Jg0luU_9kv_engine5table8iteratorNtB2_15SsTableIterator11seek_to_key
FN:48,_RNvMNtNtCs3ksH6Jg0luU_9kv_engine5table8iteratorNtB2_15SsTableIterator13seek_to_first
FN:86,_RNvMNtNtCs3ksH6Jg0luU_9kv_engine5table8iteratorNtB2_15SsTableIterator17seek_to_key_inner
FN:58,_RNvMNtNtCs3ksH6Jg0luU_9kv_engine5table8iteratorNtB2_15SsTableIterator22create_and_seek_to_key
FN:26,_RNvMNtNtCs3ksH6Jg0luU_9kv_engine5table8iteratorNtB2_15SsTableIterator24create_and_seek_to_first
FN:82,_RNvMNtNtCs3ksH6Jg0luU_9kv_engine5table8iteratorNtB2_15SsTableIterator8set_vlog
FN:123,_RNvXs_NtNtCs3ksH6Jg0luU_9kv_engine5table8iteratorNtB4_15SsTableIteratorNtNtB8_9iterators15StorageIterator3key
FN:196,_RNvXs_NtNtCs3ksH6Jg0luU_9kv_engine5table8iteratorNtB4_15SsTableIteratorNtNtB8_9iterators15StorageIterator4next
FN:128,_RNvXs_NtNtCs3ksH6Jg0luU_9kv_engine5table8iteratorNtB4_15SsTableIteratorNtNtB8_9iterators15StorageIterator5value
FN:190,_RNvXs_NtNtCs3ksH6Jg0luU_9kv_engine5table8iteratorNtB4_15SsTableIteratorNtNtB8_9iterators15StorageIterator8is_valid
FN:185,_RNvXs_NtNtCs3ksH6Jg0luU_9kv_engine5table8iteratorNtB4_15SsTableIteratorNtNtB8_9iterators15StorageIterator9raw_value
FNDA:0,_RNvMNtNtCs3ksH6Jg0luU_9kv_engine5table8iteratorNtB2_15SsTableIterator32create_and_seek_to_key_with_vlog
FNDA:0,_RNvMNtNtCs3ksH6Jg0luU_9kv_engine5table8iteratorNtB2_15SsTableIterator34create_and_seek_to_first_with_vlog
FNDA:505,_RNvMNtNtCs3ksH6Jg0luU_9kv_engine5table8iteratorNtB2_15SsTableIterator11seek_to_key
FNDA:5,_RNvMNtNtCs3ksH6Jg0luU_9kv_engine5table8iteratorNtB2_15SsTableIterator13seek_to_first
FNDA:622,_RNvMNtNtCs3ksH6Jg0luU_9kv_engine5table8iteratorNtB2_15SsTableIterator17seek_to_key_inner
FNDA:117,_RNvMNtNtCs3ksH6Jg0luU_9kv_engine5table8iteratorNtB2_15SsTableIterator22create_and_seek_to_key
FNDA:205,_RNvMNtNtCs3ksH6Jg0luU_9kv_engine5table8iteratorNtB2_15SsTableIterator24create_and_seek_to_first
FNDA:6,_RNvMNtNtCs3ksH6Jg0luU_9kv_engine5table8iteratorNtB2_15SsTableIterator8set_vlog
FNDA:3252956,_RNvXs_NtNtCs3ksH6Jg0luU_9kv_engine5table8iteratorNtB4_15SsTableIteratorNtNtB8_9iterators15StorageIterator3key
FNDA:861282,_RNvXs_NtNtCs3ksH6Jg0luU_9kv_engine5table8iteratorNtB4_15SsTableIteratorNtNtB8_9iterators15StorageIterator4next
FNDA:221109,_RNvXs_NtNtCs3ksH6Jg0luU_9kv_engine5table8iteratorNtB4_15SsTableIteratorNtNtB8_9iterators15StorageIterator5value
FNDA:3925501,_RNvXs_NtNtCs3ksH6Jg0luU_9kv_engine5table8iteratorNtB4_15SsTableIteratorNtNtB8_9iterators15StorageIterator8is_valid
FNDA:1321387,_RNvXs_NtNtCs3ksH6Jg0luU_9kv_engine5table8iteratorNtB4_15SsTableIteratorNtNtB8_9iterators15StorageIterator9raw_value
FNF:13
FNH:11
DA:26,205
DA:27,205
DA:28,205
DA:29,205
DA:30,205
DA:31,205
DA:32,205
DA:33,205
DA:34,205
DA:35,205
DA:38,0
DA:39,0
DA:40,0
DA:41,0
DA:42,0
DA:43,0
DA:44,0
DA:45,0
DA:48,5
DA:49,5
DA:50,5
DA:51,5
DA:52,5
DA:54,5
DA:55,5
DA:58,117
DA:59,117
DA:61,117
DA:62,117
DA:63,117
DA:64,117
DA:65,117
DA:66,117
DA:67,117
DA:68,117
DA:71,0
DA:72,0
DA:73,0
DA:74,0
DA:75,0
DA:76,0
DA:77,0
DA:78,0
DA:79,0
DA:82,6
DA:83,6
DA:84,6
DA:86,622
DA:87,622
DA:88,622
DA:89,622
DA:94,622
DA:95,5
DA:96,5
DA:97,5
DA:98,0
DA:99,0
DA:100,0
DA:103,622
DA:104,622
DA:109,505
DA:110,505
DA:111,505
DA:112,505
DA:113,505
DA:115,505
DA:116,505
DA:123,3252956
DA:124,3252956
DA:125,3252956
DA:128,221109
DA:129,221109
DA:130,221109
DA:131,0
DA:132,221109
DA:133,221109
DA:134,221109
DA:136,221109
DA:139,221065
DA:144,15
DA:148,24
DA:149,24
DA:150,7
DA:152,7
DA:153,17
DA:155,17
DA:156,17
DA:157,17
DA:158,17
DA:159,17
DA:160,17
DA:163,17
DA:164,17
DA:166,0
DA:168,17
DA:169,17
DA:170,17
DA:171,17
DA:173,17
DA:174,17
DA:175,17
DA:179,5
DA:182,221109
DA:185,1321387
DA:186,1321387
DA:187,1321387
DA:190,3925501
DA:191,3925501
DA:192,3925501
DA:196,861282
DA:198,861282
DA:200,861282
DA:202,861282
DA:203,33522
DA:204,33522
DA:205,189
DA:206,33333
DA:208,33333
DA:209,33333
DA:210,33333
DA:211,827760
DA:213,861093
DA:214,861282
BRF:0
BRH:0
LF:123
LH:101
end_of_record
SF:/home/liu/proj/toy-kv-engine/kv-engine/src/vlog/builder.rs
FN:136,_RNvMNtNtCs3ksH6Jg0luU_9kv_engine4vlog7builderNtB2_14ValueLogWriter4size
FN:141,_RNvMNtNtCs3ksH6Jg0luU_9kv_engine4vlog7builderNtB2_14ValueLogWriter7file_id
FN:154,_RNvMNtNtCs3ksH6Jg0luU_9kv_engine4vlog7builderNtB2_14ValueLogWriter12take_entries
FN:146,_RNvMNtNtCs3ksH6Jg0luU_9kv_engine4vlog7builderNtB2_14ValueLogWriter5close
FN:58,_RNvMNtNtCs3ksH6Jg0luU_9kv_engine4vlog7builderNtB2_14ValueLogWriter6append
FN:28,_RNvMNtNtCs3ksH6Jg0luU_9kv_engine4vlog7builderNtB2_14ValueLogWriter6create
FN:131,_RNvMNtNtCs3ksH6Jg0luU_9kv_engine4vlog7builderNtB2_14ValueLogWriter6offset
FN:231,_RNvMs_NtNtCs3ksH6Jg0luU_9kv_engine4vlog7builderNtB4_15ValueLogBuilder12take_entries
FN:185,_RNvMs_NtNtCs3ksH6Jg0luU_9kv_engine4vlog7builderNtB4_15ValueLogBuilder3add
FN:225,_RNvMs_NtNtCs3ksH6Jg0luU_9kv_engine4vlog7builderNtB4_15ValueLogBuilder5close
FN:171,_RNvMs_NtNtCs3ksH6Jg0luU_9kv_engine4vlog7builderNtB4_15ValueLogBuilder6create
FN:220,_RNvMs_NtNtCs3ksH6Jg0luU_9kv_engine4vlog7builderNtB4_15ValueLogBuilder7file_id
FN:33,_RNCNvMNtNtCs3ksH6Jg0luU_9kv_engine4vlog7builderNtB4_14ValueLogWriter6create0B8_
FNDA:0,_RNvMNtNtCs3ksH6Jg0luU_9kv_engine4vlog7builderNtB2_14ValueLogWriter4size
FNDA:0,_RNvMNtNtCs3ksH6Jg0luU_9kv_engine4vlog7builderNtB2_14ValueLogWriter7file_id
FNDA:73,_RNvMNtNtCs3ksH6Jg0luU_9kv_engine4vlog7builderNtB2_14ValueLogWriter12take_entries
FNDA:81,_RNvMNtNtCs3ksH6Jg0luU_9kv_engine4vlog7builderNtB2_14ValueLogWriter5close
FNDA:198,_RNvMNtNtCs3ksH6Jg0luU_9kv_engine4vlog7builderNtB2_14ValueLogWriter6append
FNDA:84,_RNvMNtNtCs3ksH6Jg0luU_9kv_engine4vlog7builderNtB2_14ValueLogWriter6create
FNDA:333,_RNvMNtNtCs3ksH6Jg0luU_9kv_engine4vlog7builderNtB2_14ValueLogWriter6offset
FNDA:64,_RNvMs_NtNtCs3ksH6Jg0luU_9kv_engine4vlog7builderNtB4_15ValueLogBuilder12take_entries
FNDA:138,_RNvMs_NtNtCs3ksH6Jg0luU_9kv_engine4vlog7builderNtB4_15ValueLogBuilder3add
FNDA:64,_RNvMs_NtNtCs3ksH6Jg0luU_9kv_engine4vlog7builderNtB4_15ValueLogBuilder5close
FNDA:64,_RNvMs_NtNtCs3ksH6Jg0luU_9kv_engine4vlog7builderNtB4_15ValueLogBuilder6create
FNDA:64,_RNvMs_NtNtCs3ksH6Jg0luU_9kv_engine4vlog7builderNtB4_15ValueLogBuilder7file_id
FNDA:2,_RNCNvMNtNtCs3ksH6Jg0luU_9kv_engine4vlog7builderNtB4_14ValueLogWriter6create0B8_
FNF:13
FNH:11
DA:28,84
DA:29,84
DA:30,84
DA:31,84
DA:32,84
DA:33,84
DA:35,82
DA:38,82
DA:39,82
DA:40,82
DA:41,82
DA:42,82
DA:43,82
DA:44,82
DA:45,82
DA:47,82
DA:48,82
DA:49,82
DA:50,82
DA:51,82
DA:52,82
DA:53,84
DA:58,198
DA:59,198
DA:60,198
DA:62,0
DA:64,198
DA:65,198
DA:67,0
DA:69,198
DA:71,198
DA:72,198
DA:73,198
DA:74,198
DA:75,198
DA:76,198
DA:77,198
DA:78,198
DA:80,198
DA:82,198
DA:83,198
DA:84,198
DA:85,198
DA:88,198
DA:89,198
DA:92,198
DA:93,198
DA:94,198
DA:102,198
DA:103,198
DA:104,198
DA:105,198
DA:106,198
DA:107,198
DA:108,198
DA:110,0
DA:111,0
DA:112,0
DA:113,0
DA:114,0
DA:115,0
DA:119,198
DA:120,198
DA:121,198
DA:122,198
DA:123,198
DA:125,198
DA:127,198
DA:128,198
DA:131,333
DA:132,333
DA:133,333
DA:136,0
DA:137,0
DA:138,0
DA:141,0
DA:142,0
DA:143,0
DA:146,81
DA:147,81
DA:148,81
DA:149,81
DA:150,81
DA:154,73
DA:155,73
DA:156,73
DA:171,64
DA:172,64
DA:173,64
DA:174,64
DA:175,64
DA:176,64
DA:177,64
DA:178,64
DA:185,138
DA:186,138
DA:189,138
DA:190,138
DA:192,0
DA:194,138
DA:195,138
DA:197,0
DA:200,138
DA:201,138
DA:202,138
DA:203,138
DA:208,138
DA:209,138
DA:210,138
DA:212,138
DA:213,138
DA:214,138
DA:215,138
DA:216,138
DA:217,138
DA:220,64
DA:221,64
DA:222,64
DA:225,64
DA:226,64
DA:227,64
DA:231,64
DA:232,64
DA:233,64
BRF:0
BRH:0
LF:125
LH:109
end_of_record
SF:/home/liu/proj/toy-kv-engine/kv-engine/src/vlog/gc.rs
FN:274,_RNCNCNvMNtNtCs3ksH6Jg0luU_9kv_engine4vlog2gcNtB6_16GarbageCollector12compact_file00Ba_
FN:213,_RNCNvMNtNtCs3ksH6Jg0luU_9kv_engine4vlog2gcNtB4_16GarbageCollector12compact_file0B8_
FN:122,_RNCNvMNtNtCs3ksH6Jg0luU_9kv_engine4vlog2gcNtB4_16GarbageCollector23analyze_file_with_index0B8_
FN:131,_RNCNvMNtNtCs3ksH6Jg0luU_9kv_engine4vlog2gcNtB4_16GarbageCollector23analyze_file_with_indexs_0B8_
FN:323,_RNCNvMNtNtCs3ksH6Jg0luU_9kv_engine4vlog2gcNtB4_16GarbageCollector7gc_file0B8_
FN:61,_RNvMNtNtCs3ksH6Jg0luU_9kv_engine4vlog2gcNtB2_16GarbageCollector12analyze_file
FN:192,_RNvMNtNtCs3ksH6Jg0luU_9kv_engine4vlog2gcNtB2_16GarbageCollector12compact_file
FN:173,_RNvMNtNtCs3ksH6Jg0luU_9kv_engine4vlog2gcNtB2_16GarbageCollector14check_liveness
FN:106,_RNvMNtNtCs3ksH6Jg0luU_9kv_engine4vlog2gcNtB2_16GarbageCollector23analyze_file_with_index
FN:50,_RNvMNtNtCs3ksH6Jg0luU_9kv_engine4vlog2gcNtB2_16GarbageCollector3new
FN:333,_RNvMNtNtCs3ksH6Jg0luU_9kv_engine4vlog2gcNtB2_16GarbageCollector6gc_all
FN:318,_RNvMNtNtCs3ksH6Jg0luU_9kv_engine4vlog2gcNtB2_16GarbageCollector7gc_file
FNDA:35,_RNCNCNvMNtNtCs3ksH6Jg0luU_9kv_engine4vlog2gcNtB6_16GarbageCollector12compact_file00Ba_
FNDA:11,_RNCNvMNtNtCs3ksH6Jg0luU_9kv_engine4vlog2gcNtB4_16GarbageCollector12compact_file0B8_
FNDA:0,_RNCNvMNtNtCs3ksH6Jg0luU_9kv_engine4vlog2gcNtB4_16GarbageCollector23analyze_file_with_index0B8_
FNDA:0,_RNCNvMNtNtCs3ksH6Jg0luU_9kv_engine4vlog2gcNtB4_16GarbageCollector23analyze_file_with_indexs_0B8_
FNDA:22,_RNCNvMNtNtCs3ksH6Jg0luU_9kv_engine4vlog2gcNtB4_16GarbageCollector7gc_file0B8_
FNDA:24,_RNvMNtNtCs3ksH6Jg0luU_9kv_engine4vlog2gcNtB2_16GarbageCollector12analyze_file
FNDA:22,_RNvMNtNtCs3ksH6Jg0luU_9kv_engine4vlog2gcNtB2_16GarbageCollector12compact_file
FNDA:89,_RNvMNtNtCs3ksH6Jg0luU_9kv_engine4vlog2gcNtB2_16GarbageCollector14check_liveness
FNDA:24,_RNvMNtNtCs3ksH6Jg0luU_9kv_engine4vlog2gcNtB2_16GarbageCollector23analyze_file_with_index
FNDA:23,_RNvMNtNtCs3ksH6Jg0luU_9kv_engine4vlog2gcNtB2_16GarbageCollector3new
FNDA:4,_RNvMNtNtCs3ksH6Jg0luU_9kv_engine4vlog2gcNtB2_16GarbageCollector6gc_all
FNDA:24,_RNvMNtNtCs3ksH6Jg0luU_9kv_engine4vlog2gcNtB2_16GarbageCollector7gc_file
FNF:12
FNH:10
DA:50,23
DA:51,23
DA:52,23
DA:53,23
DA:54,23
DA:55,23
DA:56,23
DA:61,24
DA:63,24
DA:64,24
DA:65,0
DA:68,0
DA:69,0
DA:71,0
DA:72,0
DA:73,0
DA:75,0
DA:76,0
DA:77,0
DA:79,0
DA:80,0
DA:81,0
DA:82,0
DA:83,0
DA:84,0
DA:85,0
DA:86,0
DA:87,0
DA:90,0
DA:91,0
DA:93,0
DA:96,0
DA:97,0
DA:98,0
DA:99,0
DA:100,0
DA:101,0
DA:102,0
DA:103,24
DA:106,24
DA:107,24
DA:108,24
DA:109,24
DA:110,24
DA:111,24
DA:112,24
DA:113,24
DA:115,89
DA:118,89
DA:119,89
DA:120,89
DA:122,89
DA:123,0
DA:125,0
DA:128,0
DA:129,89
DA:131,89
DA:132,0
DA:135,0
DA:138,0
DA:140,89
DA:141,89
DA:142,89
DA:143,89
DA:144,89
DA:146,89
DA:147,89
DA:148,60
DA:149,60
DA:150,60
DA:151,60
DA:152,60
DA:153,29
DA:154,29
DA:157,24
DA:158,23
DA:160,1
DA:163,24
DA:164,24
DA:165,24
DA:166,24
DA:167,24
DA:168,24
DA:169,24
DA:170,24
DA:173,89
DA:174,89
DA:176,89
DA:178,84
DA:179,84
DA:181,84
DA:182,60
DA:183,60
DA:184,0
DA:185,0
DA:187,5
DA:189,89
DA:192,22
DA:193,22
DA:194,7
DA:195,15
DA:196,15
DA:198,4
DA:199,4
DA:200,4
DA:201,4
DA:202,4
DA:203,4
DA:204,4
DA:205,4
DA:206,11
DA:209,11
DA:210,11
DA:213,11
DA:214,11
DA:216,9
DA:217,9
DA:218,9
DA:220,35
DA:221,35
DA:222,35
DA:223,35
DA:224,35
DA:225,35
DA:226,35
DA:227,35
DA:228,35
DA:229,35
DA:231,0
DA:233,35
DA:237,9
DA:240,9
DA:241,9
DA:244,9
DA:245,0
DA:246,0
DA:247,0
DA:248,0
DA:249,9
DA:251,9
DA:252,9
DA:253,9
DA:256,9
DA:257,35
DA:258,35
DA:259,35
DA:260,35
DA:261,35
DA:262,35
DA:263,35
DA:264,35
DA:265,35
DA:266,35
DA:267,35
DA:268,35
DA:269,35
DA:270,35
DA:271,35
DA:272,35
DA:273,9
DA:274,35
DA:277,35
DA:278,35
DA:279,25
DA:280,25
DA:287,9
DA:288,9
DA:289,2
DA:290,2
DA:291,2
DA:292,7
DA:294,9
DA:295,9
DA:296,9
DA:297,9
DA:298,9
DA:299,9
DA:302,11
DA:303,9
DA:304,9
DA:305,9
DA:306,9
DA:308,2
DA:310,2
DA:311,2
DA:312,2
DA:315,22
DA:318,24
DA:319,24
DA:320,2
DA:321,22
DA:323,22
DA:324,22
DA:325,22
DA:328,22
DA:329,22
DA:330,24
DA:333,4
DA:334,4
DA:335,4
DA:338,6
DA:339,6
DA:340,6
DA:341,6
DA:344,4
DA:345,4
DA:347,4
DA:348,7
DA:349,7
DA:350,6
DA:351,6
DA:354,4
DA:355,4
BRF:0
BRH:0
LF:220
LH:175
end_of_record
SF:/home/liu/proj/toy-kv-engine/kv-engine/src/vlog/index.rs
FN:52,_RNvMNtNtCs3ksH6Jg0luU_9kv_engine4vlog5indexNtB2_9VlogIndex12from_entries
FN:119,_RNvMNtNtCs3ksH6Jg0luU_9kv_engine4vlog5indexNtB2_9VlogIndex14load_from_file
FN:106,_RNvMNtNtCs3ksH6Jg0luU_9kv_engine4vlog5indexNtB2_9VlogIndex15load_or_rebuild
FN:94,_RNvMNtNtCs3ksH6Jg0luU_9kv_engine4vlog5indexNtB2_9VlogIndex19rebuild_from_reader
FN:73,_RNvMNtNtCs3ksH6Jg0luU_9kv_engine4vlog5indexNtB2_9VlogIndex3len
FN:44,_RNvMNtNtCs3ksH6Jg0luU_9kv_engine4vlog5indexNtB2_9VlogIndex3new
FN:128,_RNvMNtNtCs3ksH6Jg0luU_9kv_engine4vlog5indexNtB2_9VlogIndex4load
FN:237,_RNvMNtNtCs3ksH6Jg0luU_9kv_engine4vlog5indexNtB2_9VlogIndex4save
FN:68,_RNvMNtNtCs3ksH6Jg0luU_9kv_engine4vlog5indexNtB2_9VlogIndex6lookup
FN:83,_RNvMNtNtCs3ksH6Jg0luU_9kv_engine4vlog5indexNtB2_9VlogIndex7entries
FN:88,_RNvMNtNtCs3ksH6Jg0luU_9kv_engine4vlog5indexNtB2_9VlogIndex7file_id
FN:78,_RNvMNtNtCs3ksH6Jg0luU_9kv_engine4vlog5indexNtB2_9VlogIndex8is_empty
FN:57,_RNvMNtNtCs3ksH6Jg0luU_9kv_engine4vlog5indexNtB2_9VlogIndex9add_entry
FN:284,_RNvNtNtCs3ksH6Jg0luU_9kv_engine4vlog5index19index_path_for_vlog
FN:242,_RNCNvMNtNtCs3ksH6Jg0luU_9kv_engine4vlog5indexNtB4_9VlogIndex4save0B8_
FN:257,_RNCNvMNtNtCs3ksH6Jg0luU_9kv_engine4vlog5indexNtB4_9VlogIndex4saves_0B8_
FN:69,_RNCNvMNtNtCs3ksH6Jg0luU_9kv_engine4vlog5indexNtB4_9VlogIndex6lookup0B8_
FN:293,_RNvNtNtNtCs3ksH6Jg0luU_9kv_engine4vlog5index5tests15write_test_vlog
FN:462,_RNvNtNtNtCs3ksH6Jg0luU_9kv_engine4vlog5index5testss_16test_index_empty
FN:312,_RNvNtNtNtCs3ksH6Jg0luU_9kv_engine4vlog5index5testss_25test_index_add_and_lookup
FN:357,_RNvNtNtNtCs3ksH6Jg0luU_9kv_engine4vlog5index5testss_30test_index_rebuild_from_reader
FN:330,_RNvNtNtNtCs3ksH6Jg0luU_9kv_engine4vlog5index5testss_30test_index_save_load_roundtrip
FN:415,_RNvNtNtNtCs3ksH6Jg0luU_9kv_engine4vlog5index5testss_33test_index_crc_detects_corruption
FN:436,_RNvNtNtNtCs3ksH6Jg0luU_9kv_engine4vlog5index5testss_40test_index_crc_detects_header_corruption
FN:378,_RNvNtNtNtCs3ksH6Jg0luU_9kv_engine4vlog5index5testss_41test_index_load_or_rebuild_loads_existing
FN:397,_RNvNtNtNtCs3ksH6Jg0luU_9kv_engine4vlog5index5testss_43test_index_load_or_rebuild_rebuilds_missing
FNDA:63,_RNvMNtNtCs3ksH6Jg0luU_9kv_engine4vlog5indexNtB2_9VlogIndex12from_entries
FNDA:1,_RNvMNtNtCs3ksH6Jg0luU_9kv_engine4vlog5indexNtB2_9VlogIndex14load_from_file
FNDA:2,_RNvMNtNtCs3ksH6Jg0luU_9kv_engine4vlog5indexNtB2_9VlogIndex15load_or_rebuild
FNDA:3,_RNvMNtNtCs3ksH6Jg0luU_9kv_engine4vlog5indexNtB2_9VlogIndex19rebuild_from_reader
FNDA:8,_RNvMNtNtCs3ksH6Jg0luU_9kv_engine4vlog5indexNtB2_9VlogIndex3len
FNDA:9,_RNvMNtNtCs3ksH6Jg0luU_9kv_engine4vlog5indexNtB2_9VlogIndex3new
FNDA:6,_RNvMNtNtCs3ksH6Jg0luU_9kv_engine4vlog5indexNtB2_9VlogIndex4load
FNDA:68,_RNvMNtNtCs3ksH6Jg0luU_9kv_engine4vlog5indexNtB2_9VlogIndex4save
FNDA:16,_RNvMNtNtCs3ksH6Jg0luU_9kv_engine4vlog5indexNtB2_9VlogIndex6lookup
FNDA:24,_RNvMNtNtCs3ksH6Jg0luU_9kv_engine4vlog5indexNtB2_9VlogIndex7entries
FNDA:1,_RNvMNtNtCs3ksH6Jg0luU_9kv_engine4vlog5indexNtB2_9VlogIndex7file_id
FNDA:1,_RNvMNtNtCs3ksH6Jg0luU_9kv_engine4vlog5indexNtB2_9VlogIndex8is_empty
FNDA:17,_RNvMNtNtCs3ksH6Jg0luU_9kv_engine4vlog5indexNtB2_9VlogIndex9add_entry
FNDA:70,_RNvNtNtCs3ksH6Jg0luU_9kv_engine4vlog5index19index_path_for_vlog
FNDA:180,_RNCNvMNtNtCs3ksH6Jg0luU_9kv_engine4vlog5indexNtB4_9VlogIndex4save0B8_
FNDA:0,_RNCNvMNtNtCs3ksH6Jg0luU_9kv_engine4vlog5indexNtB4_9VlogIndex4saves_0B8_
FNDA:30,_RNCNvMNtNtCs3ksH6Jg0luU_9kv_engine4vlog5indexNtB4_9VlogIndex6lookup0B8_
FNDA:3,_RNvNtNtNtCs3ksH6Jg0luU_9kv_engine4vlog5index5tests15write_test_vlog
FNDA:1,_RNvNtNtNtCs3ksH6Jg0luU_9kv_engine4vlog5index5testss_16test_index_empty
FNDA:1,_RNvNtNtNtCs3ksH6Jg0luU_9kv_engine4vlog5index5testss_25test_index_add_and_lookup
FNDA:1,_RNvNtNtNtCs3ksH6Jg0luU_9kv_engine4vlog5index5testss_30test_index_rebuild_from_reader
FNDA:1,_RNvNtNtNtCs3ksH6Jg0luU_9kv_engine4vlog5index5testss_30test_index_save_load_roundtrip
FNDA:1,_RNvNtNtNtCs3ksH6Jg0luU_9kv_engine4vlog5index5testss_33test_index_crc_detects_corruption
FNDA:1,_RNvNtNtNtCs3ksH6Jg0luU_9kv_engine4vlog5index5testss_40test_index_crc_detects_header_corruption
FNDA:1,_RNvNtNtNtCs3ksH6Jg0luU_9kv_engine4vlog5index5testss_41test_index_load_or_rebuild_loads_existing
FNDA:1,_RNvNtNtNtCs3ksH6Jg0luU_9kv_engine4vlog5index5testss_43test_index_load_or_rebuild_rebuilds_missing
FNF:26
FNH:25
DA:44,9
DA:45,9
DA:46,9
DA:47,9
DA:48,9
DA:49,9
DA:52,63
DA:53,63
DA:54,63
DA:57,17
DA:58,17
DA:59,17
DA:60,17
DA:61,17
DA:62,17
DA:63,17
DA:68,16
DA:69,30
DA:70,16
DA:73,8
DA:74,8
DA:75,8
DA:78,1
DA:79,1
DA:80,1
DA:83,24
DA:84,24
DA:85,24
DA:88,1
DA:89,1
DA:90,1
DA:94,3
DA:95,3
DA:96,3
DA:97,8
DA:98,8
DA:99,8
DA:101,3
DA:102,3
DA:106,2
DA:107,2
DA:108,2
DA:109,2
DA:110,2
DA:111,2
DA:112,1
DA:113,1
DA:115,2
DA:119,1
DA:120,1
DA:121,1
DA:128,6
DA:129,6
DA:130,4
DA:133,4
DA:134,4
DA:135,4
DA:137,4
DA:138,4
DA:139,0
DA:140,4
DA:141,4
DA:142,4
DA:143,0
DA:144,4
DA:145,4
DA:146,4
DA:147,4
DA:148,0
DA:149,0
DA:150,0
DA:151,0
DA:152,0
DA:153,4
DA:154,4
DA:155,4
DA:160,4
DA:161,4
DA:165,4
DA:166,4
DA:167,0
DA:168,0
DA:169,0
DA:170,0
DA:171,0
DA:172,0
DA:173,4
DA:175,4
DA:178,4
DA:179,4
DA:180,4
DA:181,4
DA:182,4
DA:183,2
DA:184,2
DA:185,2
DA:186,2
DA:187,2
DA:188,2
DA:190,2
DA:191,2
DA:194,4
DA:195,0
DA:196,4
DA:197,4
DA:198,4
DA:199,4
DA:201,4
DA:202,4
DA:203,4
DA:204,4
DA:205,0
DA:206,0
DA:207,0
DA:208,0
DA:209,4
DA:210,4
DA:211,4
DA:213,4
DA:214,4
DA:215,4
DA:216,4
DA:217,4
DA:218,4
DA:222,2
DA:223,0
DA:224,0
DA:225,0
DA:226,0
DA:227,0
DA:228,2
DA:230,2
DA:231,6
DA:237,68
DA:238,68
DA:239,68
DA:242,180
DA:245,68
DA:246,180
DA:247,180
DA:248,180
DA:249,180
DA:250,180
DA:251,180
DA:254,68
DA:255,68
DA:256,68
DA:257,68
DA:258,0
DA:260,0
DA:262,0
DA:263,68
DA:264,68
DA:268,68
DA:269,68
DA:270,68
DA:271,68
DA:272,68
DA:274,68
DA:275,68
DA:276,68
DA:277,68
DA:279,68
DA:280,68
DA:284,70
DA:285,70
DA:286,70
DA:293,3
DA:294,3
DA:295,3
DA:296,3
DA:297,3
DA:298,3
DA:299,3
DA:300,3
DA:301,3
DA:303,3
DA:304,12
DA:305,12
DA:306,12
DA:307,3
DA:308,3
DA:309,3
DA:312,1
DA:313,1
DA:314,1
DA:315,1
DA:317,1
DA:318,1
DA:319,1
DA:321,1
DA:322,1
DA:323,1
DA:325,1
DA:326,1
DA:327,1
DA:330,1
DA:331,1
DA:332,1
DA:333,1
DA:334,1
DA:335,1
DA:337,1
DA:338,1
DA:340,1
DA:341,1
DA:342,1
DA:344,1
DA:345,1
DA:346,1
DA:348,1
DA:349,1
DA:351,1
DA:352,1
DA:353,1
DA:354,1
DA:357,1
DA:358,1
DA:359,1
DA:360,1
DA:362,1
DA:364,1
DA:365,1
DA:366,1
DA:367,1
DA:369,1
DA:370,1
DA:371,1
DA:372,1
DA:373,1
DA:374,1
DA:375,1
DA:378,1
DA:379,1
DA:380,1
DA:381,1
DA:383,1
DA:384,1
DA:387,1
DA:388,1
DA:390,1
DA:391,1
DA:392,1
DA:393,1
DA:394,1
DA:397,1
DA:398,1
DA:399,1
DA:400,1
DA:402,1
DA:404,1
DA:405,1
DA:406,1
DA:407,1
DA:408,1
DA:410,1
DA:411,1
DA:412,1
DA:415,1
DA:416,1
DA:417,1
DA:418,1
DA:420,1
DA:421,1
DA:424,1
DA:425,1
DA:426,1
DA:427,1
DA:429,1
DA:430,1
DA:431,1
DA:432,1
DA:433,1
DA:436,1
DA:437,1
DA:438,1
DA:439,1
DA:440,1
DA:442,1
DA:443,1
DA:446,1
DA:447,1
DA:448,1
DA:451,1
DA:452,1
DA:453,1
DA:454,1
DA:455,1
DA:459,1
DA:462,1
DA:463,1
DA:464,1
DA:465,1
DA:466,1
DA:467,1
BRF:0
BRH:0
LF:299
LH:271
end_of_record
SF:/home/liu/proj/toy-kv-engine/kv-engine/src/vlog/mod.rs
FN:191,_RINvMs1_NtCs3ksH6Jg0luU_9kv_engine4vlogNtB6_14VlogFileHeader6encodeQINtNtCs2TrN21NlPz_5alloc3vec3VechEEB8_
FN:191,_RINvMs1_NtCs3ksH6Jg0luU_9kv_engine4vlogNtB6_14VlogFileHeader6encodeQShEB8_
FN:235,_RINvMs2_NtCs3ksH6Jg0luU_9kv_engine4vlogNtB6_15VlogEntryHeader6encodeQShEB8_
FN:421,_RINvMs5_NtCs3ksH6Jg0luU_9kv_engine4vlogNtB6_8ValueLog4openRNtNtCskaANe6KdTWL_3std4path4PathEB8_
FN:421,_RINvMs5_NtCs3ksH6Jg0luU_9kv_engine4vlogNtB6_8ValueLog4openRNtNtCskaANe6KdTWL_3std4path7PathBufEB8_
FN:83,_RINvMs_NtCs3ksH6Jg0luU_9kv_engine4vlogNtB5_12ValuePointer6encodeQINtNtCs2TrN21NlPz_5alloc3vec3VechEEB7_
FN:83,_RINvMs_NtCs3ksH6Jg0luU_9kv_engine4vlogNtB5_12ValuePointer6encodeQQShEB7_
FN:441,_RNCINvMs5_NtCs3ksH6Jg0luU_9kv_engine4vlogNtB8_8ValueLog4openRNtNtCskaANe6KdTWL_3std4path4PathE0Ba_
FN:456,_RNCINvMs5_NtCs3ksH6Jg0luU_9kv_engine4vlogNtB8_8ValueLog4openRNtNtCskaANe6KdTWL_3std4path4PathEs_0Ba_
FN:441,_RNCINvMs5_NtCs3ksH6Jg0luU_9kv_engine4vlogNtB8_8ValueLog4openRNtNtCskaANe6KdTWL_3std4path7PathBufE0Ba_
FN:456,_RNCINvMs5_NtCs3ksH6Jg0luU_9kv_engine4vlogNtB8_8ValueLog4openRNtNtCskaANe6KdTWL_3std4path7PathBufEs_0Ba_
FN:336,_RNCNvMs4_NtCs3ksH6Jg0luU_9kv_engine4vlogNtB7_14VlogReferences18get_sst_references0B9_
FN:345,_RNCNvMs4_NtCs3ksH6Jg0luU_9kv_engine4vlogNtB7_14VlogReferences20get_ssts_referencing0B9_
FN:496,_RNCNvMs5_NtCs3ksH6Jg0luU_9kv_engine4vlogNtB7_8ValueLog10get_reader0B9_
FN:520,_RNCNvMs5_NtCs3ksH6Jg0luU_9kv_engine4vlogNtB7_8ValueLog10get_readers0_0B9_
FN:532,_RNCNvMs5_NtCs3ksH6Jg0luU_9kv_engine4vlogNtB7_8ValueLog10get_readers1_0B9_
FN:506,_RNCNvMs5_NtCs3ksH6Jg0luU_9kv_engine4vlogNtB7_8ValueLog10get_readers_0B9_
FN:623,_RNCNvMs5_NtCs3ksH6Jg0luU_9kv_engine4vlogNtB7_8ValueLog11remove_file0B9_
FN:1129,_RNCNvNtNtCs3ksH6Jg0luU_9kv_engine4vlog5testss_21test_vlog_large_entry0B7_
FN:1159,_RNCNvNtNtCs3ksH6Jg0luU_9kv_engine4vlog5testss_25test_vlog_header_iterator0B7_
FN:230,_RNvMs2_NtCs3ksH6Jg0luU_9kv_engine4vlogNtB5_15VlogEntryHeader4size
FN:290,_RNvXs3_NtCs3ksH6Jg0luU_9kv_engine4vlogNtB5_14VlogReferencesNtNtCslfAf2Mv2Tp5_4core7default7Default7default
FN:63,_RNvMNtCs3ksH6Jg0luU_9kv_engine4vlogNtB2_6KvKind12is_tombstone
FN:53,_RNvMNtCs3ksH6Jg0luU_9kv_engine4vlogNtB2_6KvKind7from_u8
FN:197,_RNvMs1_NtCs3ksH6Jg0luU_9kv_engine4vlogNtB5_14VlogFileHeader6decode
FN:245,_RNvMs2_NtCs3ksH6Jg0luU_9kv_engine4vlogNtB5_15VlogEntryHeader18compute_entry_size
FN:253,_RNvMs2_NtCs3ksH6Jg0luU_9kv_engine4vlogNtB5_15VlogEntryHeader18compute_header_crc
FN:350,_RNvMs4_NtCs3ksH6Jg0luU_9kv_engine4vlogNtB5_14VlogReferences10unregister
FN:331,_RNvMs4_NtCs3ksH6Jg0luU_9kv_engine4vlogNtB5_14VlogReferences18get_sst_references
FN:340,_RNvMs4_NtCs3ksH6Jg0luU_9kv_engine4vlogNtB5_14VlogReferences20get_ssts_referencing
FN:296,_RNvMs4_NtCs3ksH6Jg0luU_9kv_engine4vlogNtB5_14VlogReferences3new
FN:307,_RNvMs4_NtCs3ksH6Jg0luU_9kv_engine4vlogNtB5_14VlogReferences8register
FN:485,_RNvMs5_NtCs3ksH6Jg0luU_9kv_engine4vlogNtB5_8ValueLog10get_reader
FN:589,_RNvMs5_NtCs3ksH6Jg0luU_9kv_engine4vlogNtB5_8ValueLog10read_entry
FN:693,_RNvMs5_NtCs3ksH6Jg0luU_9kv_engine4vlogNtB5_8ValueLog10save_index
FN:620,_RNvMs5_NtCs3ksH6Jg0luU_9kv_engine4vlogNtB5_8ValueLog11remove_file
FN:541,_RNvMs5_NtCs3ksH6Jg0luU_9kv_engine4vlogNtB5_8ValueLog12insert_cache
FN:473,_RNvMs5_NtCs3ksH6Jg0luU_9kv_engine4vlogNtB5_8ValueLog12next_file_id
FN:478,_RNvMs5_NtCs3ksH6Jg0luU_9kv_engine4vlogNtB5_8ValueLog12path_of_file
FN:705,_RNvMs5_NtCs3ksH6Jg0luU_9kv_engine4vlogNtB5_8ValueLog12remove_index
FN:723,_RNvMs5_NtCs3ksH6Jg0luU_9kv_engine4vlogNtB5_8ValueLog15release_gc_lock
FN:820,_RNvMs5_NtCs3ksH6Jg0luU_9kv_engine4vlogNtB5_8ValueLog16record_gc_result
FN:729,_RNvMs5_NtCs3ksH6Jg0luU_9kv_engine4vlogNtB5_8ValueLog17schedule_deletion
FN:601,_RNvMs5_NtCs3ksH6Jg0luU_9kv_engine4vlogNtB5_8ValueLog18get_sst_references
FN:718,_RNvMs5_NtCs3ksH6Jg0luU_9kv_engine4vlogNtB5_8ValueLog19try_acquire_gc_lock
FN:648,_RNvMs5_NtCs3ksH6Jg0luU_9kv_engine4vlogNtB5_8ValueLog20get_or_rebuild_index
FN:606,_RNvMs5_NtCs3ksH6Jg0luU_9kv_engine4vlogNtB5_8ValueLog20get_ssts_referencing
FN:548,_RNvMs5_NtCs3ksH6Jg0luU_9kv_engine4vlogNtB5_8ValueLog21cache_hit_miss_counts
FN:596,_RNvMs5_NtCs3ksH6Jg0luU_9kv_engine4vlogNtB5_8ValueLog23register_sst_references
FN:781,_RNvMs5_NtCs3ksH6Jg0luU_9kv_engine4vlogNtB5_8ValueLog25cleanup_orphan_vlog_files
FN:737,_RNvMs5_NtCs3ksH6Jg0luU_9kv_engine4vlogNtB5_8ValueLog25reclaim_pending_deletions
FN:611,_RNvMs5_NtCs3ksH6Jg0luU_9kv_engine4vlogNtB5_8ValueLog25unregister_sst_references
FN:559,_RNvMs5_NtCs3ksH6Jg0luU_9kv_engine4vlogNtB5_8ValueLog4read
FN:833,_RNvMs5_NtCs3ksH6Jg0luU_9kv_engine4vlogNtB5_8ValueLog5stats
FN:108,_RNvMs_NtCs3ksH6Jg0luU_9kv_engine4vlogNtB4_12ValuePointer10try_decode
FN:121,_RNvMs_NtCs3ksH6Jg0luU_9kv_engine4vlogNtB4_12ValuePointer12encoded_size
FN:90,_RNvMs_NtCs3ksH6Jg0luU_9kv_engine4vlogNtB4_12ValuePointer6decode
FN:147,_RNvXs0_NtCs3ksH6Jg0luU_9kv_engine4vlogNtB5_22ValueSeparationOptionsNtNtCslfAf2Mv2Tp5_4core7default7Default7default
FN:1250,_RNvNtNtCs3ksH6Jg0luU_9kv_engine4vlog5tests17make_test_options
FN:1070,_RNvNtNtCs3ksH6Jg0luU_9kv_engine4vlog5testss_19test_vlog_alignment
FN:938,_RNvNtNtCs3ksH6Jg0luU_9kv_engine4vlog5testss_20test_kv_kind_from_u8
FN:1111,_RNvNtNtCs3ksH6Jg0luU_9kv_engine4vlog5testss_21test_vlog_large_entry
FN:1184,_RNvNtNtCs3ksH6Jg0luU_9kv_engine4vlog5testss_22test_vlog_crc_mutation
FN:953,_RNvNtNtCs3ksH6Jg0luU_9kv_engine4vlog5testss_25test_kv_kind_is_tombstone
FN:1138,_RNvNtNtCs3ksH6Jg0luU_9kv_engine4vlog5testss_25test_vlog_header_iterator
FN:963,_RNvNtNtCs3ksH6Jg0luU_9kv_engine4vlog5testss_26test_vlog_entry_header_crc
FN:916,_RNvNtNtCs3ksH6Jg0luU_9kv_engine4vlog5testss_29test_value_pointer_try_decode
FN:1338,_RNvNtNtCs3ksH6Jg0luU_9kv_engine4vlog5testss_29test_vlog_manager_remove_file
FN:1029,_RNvNtNtCs3ksH6Jg0luU_9kv_engine4vlog5testss_30test_vlog_write_read_roundtrip
FN:876,_RNvNtNtCs3ksH6Jg0luU_9kv_engine4vlog5testss_32test_value_pointer_encode_decode
FN:1315,_RNvNtNtCs3ksH6Jg0luU_9kv_engine4vlog5testss_36test_vlog_manager_reference_tracking
FN:1284,_RNvNtNtCs3ksH6Jg0luU_9kv_engine4vlog5testss_39test_vlog_manager_reader_cache_and_read
FN:1263,_RNvNtNtCs3ksH6Jg0luU_9kv_engine4vlog5testss_43test_vlog_manager_open_scans_existing_files
FNDA:4,_RINvMs1_NtCs3ksH6Jg0luU_9kv_engine4vlogNtB6_14VlogFileHeader6encodeQINtNtCs2TrN21NlPz_5alloc3vec3VechEEB8_
FNDA:82,_RINvMs1_NtCs3ksH6Jg0luU_9kv_engine4vlogNtB6_14VlogFileHeader6encodeQShEB8_
FNDA:198,_RINvMs2_NtCs3ksH6Jg0luU_9kv_engine4vlogNtB6_15VlogEntryHeader6encodeQShEB8_
FNDA:3,_RINvMs5_NtCs3ksH6Jg0luU_9kv_engine4vlogNtB6_8ValueLog4openRNtNtCskaANe6KdTWL_3std4path4PathEB8_
FNDA:45,_RINvMs5_NtCs3ksH6Jg0luU_9kv_engine4vlogNtB6_8ValueLog4openRNtNtCskaANe6KdTWL_3std4path7PathBufEB8_
FNDA:75,_RINvMs_NtCs3ksH6Jg0luU_9kv_engine4vlogNtB5_12ValuePointer6encodeQINtNtCs2TrN21NlPz_5alloc3vec3VechEEB7_
FNDA:138,_RINvMs_NtCs3ksH6Jg0luU_9kv_engine4vlogNtB5_12ValuePointer6encodeQQShEB7_
FNDA:2,_RNCINvMs5_NtCs3ksH6Jg0luU_9kv_engine4vlogNtB8_8ValueLog4openRNtNtCskaANe6KdTWL_3std4path4PathE0Ba_
FNDA:1,_RNCINvMs5_NtCs3ksH6Jg0luU_9kv_engine4vlogNtB8_8ValueLog4openRNtNtCskaANe6KdTWL_3std4path4PathEs_0Ba_
FNDA:8,_RNCINvMs5_NtCs3ksH6Jg0luU_9kv_engine4vlogNtB8_8ValueLog4openRNtNtCskaANe6KdTWL_3std4path7PathBufE0Ba_
FNDA:6,_RNCINvMs5_NtCs3ksH6Jg0luU_9kv_engine4vlogNtB8_8ValueLog4openRNtNtCskaANe6KdTWL_3std4path7PathBufEs_0Ba_
FNDA:28,_RNCNvMs4_NtCs3ksH6Jg0luU_9kv_engine4vlogNtB7_14VlogReferences18get_sst_references0B9_
FNDA:29,_RNCNvMs4_NtCs3ksH6Jg0luU_9kv_engine4vlogNtB7_14VlogReferences20get_ssts_referencing0B9_
FNDA:44,_RNCNvMs5_NtCs3ksH6Jg0luU_9kv_engine4vlogNtB7_8ValueLog10get_reader0B9_
FNDA:0,_RNCNvMs5_NtCs3ksH6Jg0luU_9kv_engine4vlogNtB7_8ValueLog10get_readers0_0B9_
FNDA:44,_RNCNvMs5_NtCs3ksH6Jg0luU_9kv_engine4vlogNtB7_8ValueLog10get_readers1_0B9_
FNDA:0,_RNCNvMs5_NtCs3ksH6Jg0luU_9kv_engine4vlogNtB7_8ValueLog10get_readers_0B9_
FNDA:0,_RNCNvMs5_NtCs3ksH6Jg0luU_9kv_engine4vlogNtB7_8ValueLog11remove_file0B9_
FNDA:10240,_RNCNvNtNtCs3ksH6Jg0luU_9kv_engine4vlog5testss_21test_vlog_large_entry0B7_
FNDA:3,_RNCNvNtNtCs3ksH6Jg0luU_9kv_engine4vlog5testss_25test_vlog_header_iterator0B7_
FNDA:0,_RNvMs2_NtCs3ksH6Jg0luU_9kv_engine4vlogNtB5_15VlogEntryHeader4size
FNDA:0,_RNvXs3_NtCs3ksH6Jg0luU_9kv_engine4vlogNtB5_14VlogReferencesNtNtCslfAf2Mv2Tp5_4core7default7Default7default
FNDA:3,_RNvMNtCs3ksH6Jg0luU_9kv_engine4vlogNtB2_6KvKind12is_tombstone
FNDA:336965,_RNvMNtCs3ksH6Jg0luU_9kv_engine4vlogNtB2_6KvKind7from_u8
FNDA:53,_RNvMs1_NtCs3ksH6Jg0luU_9kv_engine4vlogNtB5_14VlogFileHeader6decode
FNDA:580,_RNvMs2_NtCs3ksH6Jg0luU_9kv_engine4vlogNtB5_15VlogEntryHeader18compute_entry_size
FNDA:361,_RNvMs2_NtCs3ksH6Jg0luU_9kv_engine4vlogNtB5_15VlogEntryHeader18compute_header_crc
FNDA:20,_RNvMs4_NtCs3ksH6Jg0luU_9kv_engine4vlogNtB5_14VlogReferences10unregister
FNDA:29,_RNvMs4_NtCs3ksH6Jg0luU_9kv_engine4vlogNtB5_14VlogReferences18get_sst_references
FNDA:33,_RNvMs4_NtCs3ksH6Jg0luU_9kv_engine4vlogNtB5_14VlogReferences20get_ssts_referencing
FNDA:49,_RNvMs4_NtCs3ksH6Jg0luU_9kv_engine4vlogNtB5_14VlogReferences3new
FNDA:88,_RNvMs4_NtCs3ksH6Jg0luU_9kv_engine4vlogNtB5_14VlogReferences8register
FNDA:138,_RNvMs5_NtCs3ksH6Jg0luU_9kv_engine4vlogNtB5_8ValueLog10get_reader
FNDA:35,_RNvMs5_NtCs3ksH6Jg0luU_9kv_engine4vlogNtB5_8ValueLog10read_entry
FNDA:63,_RNvMs5_NtCs3ksH6Jg0luU_9kv_engine4vlogNtB5_8ValueLog10save_index
FNDA:4,_RNvMs5_NtCs3ksH6Jg0luU_9kv_engine4vlogNtB5_8ValueLog11remove_file
FNDA:25,_RNvMs5_NtCs3ksH6Jg0luU_9kv_engine4vlogNtB5_8ValueLog12insert_cache
FNDA:78,_RNvMs5_NtCs3ksH6Jg0luU_9kv_engine4vlogNtB5_8ValueLog12next_file_id
FNDA:197,_RNvMs5_NtCs3ksH6Jg0luU_9kv_engine4vlogNtB5_8ValueLog12path_of_file
FNDA:6,_RNvMs5_NtCs3ksH6Jg0luU_9kv_engine4vlogNtB5_8ValueLog12remove_index
FNDA:22,_RNvMs5_NtCs3ksH6Jg0luU_9kv_engine4vlogNtB5_8ValueLog15release_gc_lock
FNDA:13,_RNvMs5_NtCs3ksH6Jg0luU_9kv_engine4vlogNtB5_8ValueLog16record_gc_result
FNDA:15,_RNvMs5_NtCs3ksH6Jg0luU_9kv_engine4vlogNtB5_8ValueLog17schedule_deletion
FNDA:27,_RNvMs5_NtCs3ksH6Jg0luU_9kv_engine4vlogNtB5_8ValueLog18get_sst_references
FNDA:24,_RNvMs5_NtCs3ksH6Jg0luU_9kv_engine4vlogNtB5_8ValueLog19try_acquire_gc_lock
FNDA:26,_RNvMs5_NtCs3ksH6Jg0luU_9kv_engine4vlogNtB5_8ValueLog20get_or_rebuild_index
FNDA:30,_RNvMs5_NtCs3ksH6Jg0luU_9kv_engine4vlogNtB5_8ValueLog20get_ssts_referencing
FNDA:1,_RNvMs5_NtCs3ksH6Jg0luU_9kv_engine4vlogNtB5_8ValueLog21cache_hit_miss_counts
FNDA:86,_RNvMs5_NtCs3ksH6Jg0luU_9kv_engine4vlogNtB5_8ValueLog23register_sst_references
FNDA:45,_RNvMs5_NtCs3ksH6Jg0luU_9kv_engine4vlogNtB5_8ValueLog25cleanup_orphan_vlog_files
FNDA:14,_RNvMs5_NtCs3ksH6Jg0luU_9kv_engine4vlogNtB5_8ValueLog25reclaim_pending_deletions
FNDA:19,_RNvMs5_NtCs3ksH6Jg0luU_9kv_engine4vlogNtB5_8ValueLog25unregister_sst_references
FNDA:111,_RNvMs5_NtCs3ksH6Jg0luU_9kv_engine4vlogNtB5_8ValueLog4read
FNDA:14,_RNvMs5_NtCs3ksH6Jg0luU_9kv_engine4vlogNtB5_8ValueLog5stats
FNDA:276,_RNvMs_NtCs3ksH6Jg0luU_9kv_engine4vlogNtB4_12ValuePointer10try_decode
FNDA:356,_RNvMs_NtCs3ksH6Jg0luU_9kv_engine4vlogNtB4_12ValuePointer12encoded_size
FNDA:6,_RNvMs_NtCs3ksH6Jg0luU_9kv_engine4vlogNtB4_12ValuePointer6decode
FNDA:445,_RNvXs0_NtCs3ksH6Jg0luU_9kv_engine4vlogNtB5_22ValueSeparationOptionsNtNtCslfAf2Mv2Tp5_4core7default7Default7default
FNDA:3,_RNvNtNtCs3ksH6Jg0luU_9kv_engine4vlog5tests17make_test_options
FNDA:1,_RNvNtNtCs3ksH6Jg0luU_9kv_engine4vlog5testss_19test_vlog_alignment
FNDA:1,_RNvNtNtCs3ksH6Jg0luU_9kv_engine4vlog5testss_20test_kv_kind_from_u8
FNDA:1,_RNvNtNtCs3ksH6Jg0luU_9kv_engine4vlog5testss_21test_vlog_large_entry
FNDA:1,_RNvNtNtCs3ksH6Jg0luU_9kv_engine4vlog5testss_22test_vlog_crc_mutation
FNDA:1,_RNvNtNtCs3ksH6Jg0luU_9kv_engine4vlog5testss_25test_kv_kind_is_tombstone
FNDA:1,_RNvNtNtCs3ksH6Jg0luU_9kv_engine4vlog5testss_25test_vlog_header_iterator
FNDA:1,_RNvNtNtCs3ksH6Jg0luU_9kv_engine4vlog5testss_26test_vlog_entry_header_crc
FNDA:1,_RNvNtNtCs3ksH6Jg0luU_9kv_engine4vlog5testss_29test_value_pointer_try_decode
FNDA:1,_RNvNtNtCs3ksH6Jg0luU_9kv_engine4vlog5testss_29test_vlog_manager_remove_file
FNDA:1,_RNvNtNtCs3ksH6Jg0luU_9kv_engine4vlog5testss_30test_vlog_write_read_roundtrip
FNDA:1,_RNvNtNtCs3ksH6Jg0luU_9kv_engine4vlog5testss_32test_value_pointer_encode_decode
FNDA:1,_RNvNtNtCs3ksH6Jg0luU_9kv_engine4vlog5testss_36test_vlog_manager_reference_tracking
FNDA:1,_RNvNtNtCs3ksH6Jg0luU_9kv_engine4vlog5testss_39test_vlog_manager_reader_cache_and_read
FNDA:1,_RNvNtNtCs3ksH6Jg0luU_9kv_engine4vlog5testss_43test_vlog_manager_open_scans_existing_files
FNF:68
FNH:63
DA:53,336965
DA:54,336965
DA:55,336580
DA:56,340
DA:57,36
DA:58,9
DA:60,336965
DA:63,3
DA:64,3
DA:65,3
DA:83,213
DA:84,213
DA:85,213
DA:86,213
DA:87,213
DA:90,6
DA:91,6
DA:92,0
DA:93,0
DA:94,0
DA:95,0
DA:96,0
DA:97,6
DA:98,6
DA:99,6
DA:100,6
DA:101,6
DA:102,6
DA:103,6
DA:108,276
DA:109,276
DA:110,16
DA:111,260
DA:112,260
DA:113,260
DA:114,260
DA:115,260
DA:116,260
DA:117,260
DA:118,276
DA:121,356
DA:122,356
DA:123,356
DA:147,445
DA:148,445
DA:149,445
DA:150,445
DA:151,445
DA:152,445
DA:153,445
DA:154,445
DA:155,445
DA:156,445
DA:157,445
DA:191,86
DA:192,86
DA:193,86
DA:194,86
DA:195,86
DA:197,53
DA:198,53
DA:199,0
DA:200,53
DA:201,53
DA:202,53
DA:203,0
DA:204,53
DA:205,53
DA:206,53
DA:207,53
DA:208,53
DA:209,53
DA:210,53
DA:211,53
DA:212,53
DA:213,53
DA:214,53
DA:230,0
DA:231,0
DA:232,0
DA:235,198
DA:236,198
DA:237,198
DA:238,198
DA:239,198
DA:240,198
DA:241,198
DA:242,198
DA:245,580
DA:246,580
DA:247,580
DA:248,580
DA:249,580
DA:253,361
DA:254,361
DA:255,361
DA:256,361
DA:257,361
DA:258,361
DA:259,361
DA:260,361
DA:261,361
DA:262,361
DA:290,0
DA:291,0
DA:292,0
DA:296,49
DA:297,49
DA:298,49
DA:299,49
DA:300,49
DA:301,49
DA:302,49
DA:303,49
DA:307,88
DA:308,88
DA:310,88
DA:311,0
DA:312,0
DA:313,0
DA:314,0
DA:315,0
DA:316,0
DA:317,0
DA:319,88
DA:320,88
DA:321,0
DA:322,88
DA:323,88
DA:324,100
DA:325,100
DA:326,100
DA:327,88
DA:328,88
DA:331,29
DA:332,29
DA:333,29
DA:334,29
DA:335,29
DA:336,29
DA:337,29
DA:340,33
DA:341,33
DA:342,33
DA:343,33
DA:344,33
DA:345,33
DA:346,33
DA:350,20
DA:351,20
DA:352,20
DA:353,21
DA:354,21
DA:355,21
DA:356,21
DA:357,20
DA:358,20
DA:359,0
DA:361,20
DA:363,0
DA:365,20
DA:421,48
DA:422,48
DA:423,48
DA:424,48
DA:425,48
DA:430,48
DA:431,48
DA:432,25
DA:433,25
DA:434,0
DA:435,25
DA:436,25
DA:437,25
DA:438,25
DA:439,17
DA:441,17
DA:442,8
DA:445,48
DA:447,48
DA:448,44
DA:450,4
DA:454,48
DA:455,48
DA:456,48
DA:457,48
DA:458,48
DA:459,48
DA:460,48
DA:461,48
DA:462,48
DA:463,48
DA:464,48
DA:465,48
DA:466,48
DA:467,48
DA:468,48
DA:470,48
DA:473,78
DA:474,78
DA:475,78
DA:478,197
DA:479,197
DA:480,197
DA:485,138
DA:487,138
DA:488,94
DA:489,44
DA:492,44
DA:493,44
DA:494,44
DA:495,44
DA:496,44
DA:497,44
DA:499,44
DA:502,44
DA:503,0
DA:504,0
DA:505,0
DA:506,0
DA:507,0
DA:508,0
DA:509,0
DA:510,0
DA:511,44
DA:513,44
DA:514,44
DA:515,44
DA:516,0
DA:517,0
DA:518,0
DA:519,0
DA:520,0
DA:521,0
DA:522,0
DA:523,0
DA:524,0
DA:527,44
DA:529,44
DA:530,44
DA:531,44
DA:532,44
DA:533,44
DA:534,44
DA:535,44
DA:537,44
DA:538,138
DA:541,25
DA:542,25
DA:543,25
DA:544,25
DA:545,25
DA:548,1
DA:550,1
DA:551,1
DA:552,1
DA:553,1
DA:554,1
DA:559,111
DA:560,111
DA:562,111
DA:563,108
DA:564,11
DA:565,11
DA:566,97
DA:567,97
DA:568,3
DA:570,100
DA:571,100
DA:572,100
DA:573,0
DA:574,0
DA:575,0
DA:576,0
DA:577,0
DA:578,100
DA:579,100
DA:581,100
DA:582,97
DA:583,97
DA:584,100
DA:585,111
DA:589,35
DA:590,35
DA:591,35
DA:592,35
DA:593,35
DA:596,86
DA:597,86
DA:598,86
DA:601,27
DA:602,27
DA:603,27
DA:606,30
DA:607,30
DA:608,30
DA:611,19
DA:612,19
DA:613,19
DA:620,4
DA:622,4
DA:623,4
DA:625,4
DA:626,4
DA:627,0
DA:629,0
DA:630,4
DA:631,4
DA:632,4
DA:634,4
DA:635,3
DA:636,3
DA:638,4
DA:639,4
DA:640,4
DA:648,26
DA:651,26
DA:652,26
DA:653,25
DA:654,1
DA:658,1
DA:659,1
DA:662,1
DA:663,0
DA:665,1
DA:667,1
DA:668,0
DA:669,0
DA:670,0
DA:671,0
DA:672,1
DA:673,1
DA:678,1
DA:679,1
DA:680,1
DA:681,0
DA:683,1
DA:684,1
DA:688,1
DA:689,26
DA:693,63
DA:694,63
DA:695,0
DA:696,63
DA:697,63
DA:698,63
DA:699,63
DA:700,63
DA:701,63
DA:702,63
DA:705,6
DA:706,6
DA:707,6
DA:708,6
DA:709,6
DA:718,24
DA:719,24
DA:720,24
DA:723,22
DA:724,22
DA:725,22
DA:729,15
DA:730,15
DA:731,15
DA:732,15
DA:733,15
DA:737,14
DA:738,14
DA:739,14
DA:740,14
DA:742,14
DA:743,14
DA:745,14
DA:746,14
DA:747,14
DA:748,16
DA:749,16
DA:750,16
DA:751,16
DA:752,16
DA:754,2
DA:755,2
DA:756,0
DA:757,0
DA:758,0
DA:759,0
DA:760,0
DA:763,14
DA:764,14
DA:765,14
DA:767,14
DA:768,14
DA:769,14
DA:770,14
DA:771,14
DA:772,0
DA:773,14
DA:775,14
DA:781,45
DA:782,45
DA:783,45
DA:784,45
DA:785,45
DA:786,45
DA:787,22
DA:788,22
DA:789,0
DA:790,22
DA:791,22
DA:792,22
DA:793,0
DA:795,22
DA:796,8
DA:798,14
DA:799,0
DA:801,14
DA:802,14
DA:803,14
DA:804,14
DA:805,14
DA:806,1
DA:807,1
DA:808,13
DA:810,45
DA:811,45
DA:812,1
DA:813,1
DA:814,1
DA:816,45
DA:817,45
DA:820,13
DA:821,13
DA:822,13
DA:823,13
DA:824,13
DA:825,13
DA:826,13
DA:833,14
DA:834,14
DA:835,14
DA:836,38
DA:837,38
DA:839,38
DA:840,0
DA:842,38
DA:843,0
DA:844,38
DA:845,38
DA:846,38
DA:847,38
DA:848,19
DA:849,19
DA:850,19
DA:851,19
DA:852,19
DA:853,19
DA:855,14
DA:856,14
DA:857,14
DA:858,14
DA:859,14
DA:860,14
DA:861,14
DA:862,14
DA:863,14
DA:864,14
DA:876,1
DA:877,1
DA:878,1
DA:879,1
DA:880,1
DA:881,1
DA:882,1
DA:883,1
DA:884,1
DA:885,1
DA:886,1
DA:887,1
DA:888,1
DA:889,1
DA:890,1
DA:891,1
DA:892,1
DA:893,1
DA:895,3
DA:896,3
DA:897,3
DA:898,3
DA:899,3
DA:901,3
DA:902,3
DA:905,3
DA:906,3
DA:907,3
DA:908,3
DA:910,1
DA:916,1
DA:917,1
DA:918,1
DA:919,1
DA:920,1
DA:921,1
DA:922,1
DA:923,1
DA:926,1
DA:929,16
DA:930,16
DA:932,1
DA:938,1
DA:939,1
DA:940,1
DA:941,1
DA:943,4
DA:944,4
DA:945,4
DA:950,1
DA:953,1
DA:954,1
DA:955,1
DA:956,1
DA:957,1
DA:963,1
DA:964,1
DA:966,1
DA:967,1
DA:968,1
DA:969,1
DA:970,1
DA:971,1
DA:972,1
DA:973,1
DA:974,1
DA:977,1
DA:978,1
DA:981,1
DA:982,1
DA:985,1
DA:986,1
DA:987,1
DA:988,1
DA:989,1
DA:991,1
DA:992,1
DA:993,1
DA:994,1
DA:995,1
DA:997,1
DA:998,1
DA:999,1
DA:1000,1
DA:1001,1
DA:1003,1
DA:1004,1
DA:1005,1
DA:1006,1
DA:1007,1
DA:1009,1
DA:1010,1
DA:1011,1
DA:1012,1
DA:1013,1
DA:1014,1
DA:1015,1
DA:1018,1
DA:1019,1
DA:1020,1
DA:1021,1
DA:1022,1
DA:1023,1
DA:1029,1
DA:1030,1
DA:1031,1
DA:1032,1
DA:1034,1
DA:1035,1
DA:1036,1
DA:1037,1
DA:1038,1
DA:1042,1
DA:1043,1
DA:1044,4
DA:1045,4
DA:1046,4
DA:1047,4
DA:1048,4
DA:1049,4
DA:1050,4
DA:1051,4
DA:1052,4
DA:1053,1
DA:1056,1
DA:1057,4
DA:1058,4
DA:1059,4
DA:1060,4
DA:1061,4
DA:1062,4
DA:1064,1
DA:1070,1
DA:1071,1
DA:1072,1
DA:1074,1
DA:1077,1
DA:1079,1
DA:1080,1
DA:1081,1
DA:1082,1
DA:1085,3
DA:1086,3
DA:1089,3
DA:1090,3
DA:1098,3
DA:1101,3
DA:1102,3
DA:1103,3
DA:1105,1
DA:1111,1
DA:1112,1
DA:1113,1
DA:1114,1
DA:1116,1
DA:1117,1
DA:1119,1
DA:1120,1
DA:1121,1
DA:1122,1
DA:1124,1
DA:1125,1
DA:1127,1
DA:1128,1
DA:1129,10240
DA:1130,1
DA:1131,1
DA:1132,1
DA:1138,1
DA:1139,1
DA:1140,1
DA:1141,1
DA:1143,1
DA:1144,1
DA:1147,1
DA:1148,1
DA:1149,3
DA:1150,3
DA:1151,3
DA:1152,3
DA:1153,3
DA:1154,1
DA:1157,1
DA:1158,1
DA:1159,3
DA:1161,1
DA:1162,3
DA:1163,3
DA:1164,3
DA:1165,3
DA:1168,3
DA:1169,3
DA:1172,3
DA:1174,3
DA:1178,1
DA:1184,1
DA:1185,1
DA:1186,1
DA:1187,1
DA:1189,1
DA:1190,1
DA:1193,1
DA:1194,1
DA:1195,1
DA:1196,1
DA:1199,1
DA:1200,1
DA:1201,1
DA:1202,1
DA:1207,1
DA:1208,1
DA:1209,1
DA:1210,1
DA:1211,1
DA:1215,1
DA:1216,1
DA:1217,0
DA:1218,1
DA:1220,1
DA:1221,1
DA:1222,1
DA:1227,1
DA:1228,1
DA:1229,1
DA:1230,1
DA:1232,1
DA:1233,1
DA:1234,0
DA:1235,1
DA:1237,1
DA:1238,1
DA:1239,1
DA:1242,1
DA:1250,3
DA:1251,3
DA:1252,3
DA:1253,3
DA:1254,3
DA:1255,3
DA:1256,3
DA:1257,3
DA:1258,3
DA:1259,3
DA:1260,3
DA:1263,1
DA:1264,1
DA:1266,3
DA:1267,3
DA:1268,3
DA:1269,3
DA:1270,3
DA:1271,3
DA:1272,3
DA:1273,3
DA:1274,3
DA:1275,3
DA:1276,3
DA:1277,3
DA:1279,1
DA:1280,1
DA:1281,1
DA:1284,1
DA:1285,1
DA:1286,1
DA:1287,1
DA:1290,1
DA:1291,1
DA:1292,1
DA:1293,1
DA:1294,1
DA:1295,1
DA:1296,1
DA:1297,1
DA:1300,1
DA:1301,1
DA:1302,1
DA:1303,1
DA:1304,1
DA:1305,1
DA:1306,1
DA:1309,1
DA:1310,1
DA:1311,1
DA:1312,1
DA:1315,1
DA:1316,1
DA:1317,1
DA:1318,1
DA:1320,1
DA:1321,1
DA:1322,1
DA:1324,1
DA:1325,1
DA:1326,1
DA:1328,1
DA:1329,1
DA:1330,1
DA:1331,1
DA:1332,1
DA:1334,1
DA:1335,1
DA:1338,1
DA:1339,1
DA:1340,1
DA:1341,1
DA:1343,1
DA:1344,1
DA:1345,1
DA:1346,1
DA:1347,1
DA:1348,1
DA:1349,1
DA:1350,1
DA:1351,1
DA:1352,1
DA:1353,1
DA:1354,1
DA:1355,1
DA:1357,1
DA:1358,1
DA:1359,1
BRF:0
BRH:0
LF:798
LH:727
end_of_record
SF:/home/liu/proj/toy-kv-engine/kv-engine/src/vlog/reader.rs
FN:233,_RNCNCNvXs0_NtNtCs3ksH6Jg0luU_9kv_engine4vlog6readerNtB9_18VlogHeaderIteratorNtNtNtNtCslfAf2Mv2Tp5_4core4iter6traits8iterator8Iterator4next00Bd_
FN:239,_RNCNCNvXs0_NtNtCs3ksH6Jg0luU_9kv_engine4vlog6readerNtB9_18VlogHeaderIteratorNtNtNtNtCslfAf2Mv2Tp5_4core4iter6traits8iterator8Iterator4next0s_0Bd_
FN:98,_RNCNvMNtNtCs3ksH6Jg0luU_9kv_engine4vlog6readerNtB4_14ValueLogReader10read_entry0B8_
FN:119,_RNCNvMNtNtCs3ksH6Jg0luU_9kv_engine4vlog6readerNtB4_14ValueLogReader10read_entrys_0B8_
FN:41,_RNCNvMNtNtCs3ksH6Jg0luU_9kv_engine4vlog6readerNtB4_14ValueLogReader4open0B8_
FN:46,_RNCNvMNtNtCs3ksH6Jg0luU_9kv_engine4vlog6readerNtB4_14ValueLogReader4opens0_0B8_
FN:44,_RNCNvMNtNtCs3ksH6Jg0luU_9kv_engine4vlog6readerNtB4_14ValueLogReader4opens_0B8_
FN:217,_RNCNvXs0_NtNtCs3ksH6Jg0luU_9kv_engine4vlog6readerNtB7_18VlogHeaderIteratorNtNtNtNtCslfAf2Mv2Tp5_4core4iter6traits8iterator8Iterator4next0Bb_
FN:67,_RNvMNtNtCs3ksH6Jg0luU_9kv_engine4vlog6readerNtB2_14ValueLogReader10read_entry
FN:175,_RNvMNtNtCs3ksH6Jg0luU_9kv_engine4vlog6readerNtB2_14ValueLogReader12iter_headers
FN:55,_RNvMNtNtCs3ksH6Jg0luU_9kv_engine4vlog6readerNtB2_14ValueLogReader12with_file_id
FN:39,_RNvMNtNtCs3ksH6Jg0luU_9kv_engine4vlog6readerNtB2_14ValueLogReader4open
FN:202,_RNvMs_NtNtCs3ksH6Jg0luU_9kv_engine4vlog6readerNtB4_18VlogHeaderIterator12with_file_id
FN:211,_RNvXs0_NtNtCs3ksH6Jg0luU_9kv_engine4vlog6readerNtB5_18VlogHeaderIteratorNtNtNtNtCslfAf2Mv2Tp5_4core4iter6traits8iterator8Iterator4next
FNDA:0,_RNCNCNvXs0_NtNtCs3ksH6Jg0luU_9kv_engine4vlog6readerNtB9_18VlogHeaderIteratorNtNtNtNtCslfAf2Mv2Tp5_4core4iter6traits8iterator8Iterator4next00Bd_
FNDA:0,_RNCNCNvXs0_NtNtCs3ksH6Jg0luU_9kv_engine4vlog6readerNtB9_18VlogHeaderIteratorNtNtNtNtCslfAf2Mv2Tp5_4core4iter6traits8iterator8Iterator4next0s_0Bd_
FNDA:0,_RNCNvMNtNtCs3ksH6Jg0luU_9kv_engine4vlog6readerNtB4_14ValueLogReader10read_entry0B8_
FNDA:0,_RNCNvMNtNtCs3ksH6Jg0luU_9kv_engine4vlog6readerNtB4_14ValueLogReader10read_entrys_0B8_
FNDA:0,_RNCNvMNtNtCs3ksH6Jg0luU_9kv_engine4vlog6readerNtB4_14ValueLogReader4open0B8_
FNDA:0,_RNCNvMNtNtCs3ksH6Jg0luU_9kv_engine4vlog6readerNtB4_14ValueLogReader4opens0_0B8_
FNDA:0,_RNCNvMNtNtCs3ksH6Jg0luU_9kv_engine4vlog6readerNtB4_14ValueLogReader4opens_0B8_
FNDA:11,_RNCNvXs0_NtNtCs3ksH6Jg0luU_9kv_engine4vlog6readerNtB7_18VlogHeaderIteratorNtNtNtNtCslfAf2Mv2Tp5_4core4iter6traits8iterator8Iterator4next0Bb_
FNDA:143,_RNvMNtNtCs3ksH6Jg0luU_9kv_engine4vlog6readerNtB2_14ValueLogReader10read_entry
FNDA:4,_RNvMNtNtCs3ksH6Jg0luU_9kv_engine4vlog6readerNtB2_14ValueLogReader12iter_headers
FNDA:47,_RNvMNtNtCs3ksH6Jg0luU_9kv_engine4vlog6readerNtB2_14ValueLogReader12with_file_id
FNDA:53,_RNvMNtNtCs3ksH6Jg0luU_9kv_engine4vlog6readerNtB2_14ValueLogReader4open
FNDA:4,_RNvMs_NtNtCs3ksH6Jg0luU_9kv_engine4vlog6readerNtB4_18VlogHeaderIterator12with_file_id
FNDA:15,_RNvXs0_NtNtCs3ksH6Jg0luU_9kv_engine4vlog6readerNtB5_18VlogHeaderIteratorNtNtNtNtCslfAf2Mv2Tp5_4core4iter6traits8iterator8Iterator4next
FNF:14
FNH:7
DA:39,53
DA:40,53
DA:41,53
DA:42,53
DA:43,53
DA:44,53
DA:45,53
DA:46,53
DA:47,53
DA:48,53
DA:49,53
DA:50,53
DA:51,53
DA:52,53
DA:55,47
DA:56,47
DA:57,47
DA:58,47
DA:67,143
DA:68,143
DA:69,143
DA:70,143
DA:74,143
DA:75,143
DA:80,143
DA:81,143
DA:89,143
DA:90,143
DA:97,143
DA:98,143
DA:99,0
DA:106,0
DA:108,143
DA:109,143
DA:110,143
DA:111,143
DA:112,143
DA:113,143
DA:114,143
DA:115,143
DA:118,143
DA:119,143
DA:120,143
DA:121,143
DA:127,143
DA:128,143
DA:129,143
DA:130,143
DA:131,143
DA:134,143
DA:135,143
DA:136,143
DA:137,143
DA:138,143
DA:139,143
DA:140,143
DA:141,143
DA:142,143
DA:143,143
DA:144,143
DA:152,142
DA:153,142
DA:154,142
DA:161,141
DA:162,141
DA:163,141
DA:164,141
DA:165,141
DA:166,141
DA:167,141
DA:168,141
DA:169,141
DA:170,141
DA:171,143
DA:175,4
DA:179,4
DA:180,4
DA:181,4
DA:182,4
DA:183,4
DA:184,4
DA:185,4
DA:186,4
DA:187,4
DA:188,4
DA:202,4
DA:203,4
DA:204,4
DA:205,4
DA:211,15
DA:213,15
DA:214,4
DA:215,11
DA:217,11
DA:219,11
DA:220,11
DA:222,11
DA:223,11
DA:224,11
DA:225,11
DA:226,11
DA:227,11
DA:228,11
DA:229,11
DA:232,11
DA:233,11
DA:235,11
DA:236,11
DA:237,11
DA:238,11
DA:239,11
DA:240,11
DA:243,11
DA:244,11
DA:247,11
DA:248,11
DA:249,11
DA:250,0
DA:253,11
DA:254,11
DA:255,11
DA:256,11
DA:257,11
DA:258,11
DA:259,11
DA:260,11
DA:261,11
DA:262,11
DA:263,11
DA:270,11
DA:271,11
DA:273,11
DA:274,11
DA:275,11
DA:276,11
DA:277,11
DA:278,11
DA:279,11
DA:280,11
DA:281,11
DA:282,11
DA:285,11
DA:286,0
DA:287,0
DA:288,11
DA:290,11
DA:291,15
BRF:0
BRH:0
LF:156
LH:143
end_of_record
SF:/home/liu/proj/toy-kv-engine/kv-engine/src/wal.rs
FN:238,_RNvMNtCs3ksH6Jg0luU_9kv_engine3walNtB2_3Wal3put
FN:329,_RNvMNtCs3ksH6Jg0luU_9kv_engine3walNtB2_3Wal4sync
FN:273,_RNvMNtCs3ksH6Jg0luU_9kv_engine3walNtB2_3Wal9put_batch
FN:33,_RINvMNtCs3ksH6Jg0luU_9kv_engine3walNtB3_3Wal6createNtNtCskaANe6KdTWL_3std4path7PathBufEB5_
FN:33,_RINvMNtCs3ksH6Jg0luU_9kv_engine3walNtB3_3Wal6createRNtNtCskaANe6KdTWL_3std4path7PathBufEB5_
FN:49,_RINvMNtCs3ksH6Jg0luU_9kv_engine3walNtB3_3Wal7recoverNtNtCskaANe6KdTWL_3std4path7PathBufEB5_
FN:49,_RINvMNtCs3ksH6Jg0luU_9kv_engine3walNtB3_3Wal7recoverRNtNtCskaANe6KdTWL_3std4path7PathBufEB5_
FN:295,_RNCNvMNtCs3ksH6Jg0luU_9kv_engine3walNtB4_3Wal9put_batch0B6_
FN:307,_RNCNvMNtCs3ksH6Jg0luU_9kv_engine3walNtB4_3Wal9put_batchs_0B6_
FNDA:5,_RNvMNtCs3ksH6Jg0luU_9kv_engine3walNtB2_3Wal3put
FNDA:222,_RNvMNtCs3ksH6Jg0luU_9kv_engine3walNtB2_3Wal4sync
FNDA:230,_RNvMNtCs3ksH6Jg0luU_9kv_engine3walNtB2_3Wal9put_batch
FNDA:87,_RINvMNtCs3ksH6Jg0luU_9kv_engine3walNtB3_3Wal6createNtNtCskaANe6KdTWL_3std4path7PathBufEB5_
FNDA:16,_RINvMNtCs3ksH6Jg0luU_9kv_engine3walNtB3_3Wal6createRNtNtCskaANe6KdTWL_3std4path7PathBufEB5_
FNDA:67,_RINvMNtCs3ksH6Jg0luU_9kv_engine3walNtB3_3Wal7recoverNtNtCskaANe6KdTWL_3std4path7PathBufEB5_
FNDA:22,_RINvMNtCs3ksH6Jg0luU_9kv_engine3walNtB3_3Wal7recoverRNtNtCskaANe6KdTWL_3std4path7PathBufEB5_
FNDA:2,_RNCNvMNtCs3ksH6Jg0luU_9kv_engine3walNtB4_3Wal9put_batch0B6_
FNDA:227,_RNCNvMNtCs3ksH6Jg0luU_9kv_engine3walNtB4_3Wal9put_batchs_0B6_
FNF:7
FNH:7
DA:33,103
DA:34,103
DA:35,103
DA:37,103
DA:38,103
DA:39,103
DA:41,103
DA:42,103
DA:43,103
DA:44,103
DA:45,103
DA:49,89
DA:50,89
DA:51,89
DA:52,89
DA:53,89
DA:54,89
DA:55,89
DA:56,89
DA:57,89
DA:58,89
DA:59,89
DA:60,89
DA:65,89
DA:66,89
DA:70,89
DA:71,89
DA:72,89
DA:75,89
DA:76,88
DA:77,88
DA:78,88
DA:79,83
DA:80,83
DA:85,82
DA:87,5
DA:90,1
DA:93,88
DA:95,82
DA:98,82
DA:99,294
DA:103,218
DA:105,218
DA:106,218
DA:107,218
DA:110,218
DA:112,218
DA:113,3
DA:114,3
DA:115,215
DA:116,215
DA:117,215
DA:119,215
DA:120,217
DA:122,0
DA:123,0
DA:124,217
DA:125,217
DA:126,217
DA:128,217
DA:129,1
DA:130,1
DA:131,216
DA:132,216
DA:133,216
DA:134,216
DA:135,216
DA:136,0
DA:137,0
DA:138,216
DA:141,215
DA:144,1
DA:145,1
DA:146,214
DA:149,214
DA:150,214
DA:151,214
DA:153,2
DA:154,2
DA:155,212
DA:158,212
DA:159,214
DA:160,214
DA:161,214
DA:162,214
DA:163,214
DA:164,214
DA:165,214
DA:166,214
DA:167,214
DA:168,212
DA:169,209
DA:170,209
DA:176,82
DA:177,82
DA:178,82
DA:179,6
DA:180,76
DA:183,6
DA:184,15
DA:187,11
DA:189,11
DA:190,2
DA:191,2
DA:192,9
DA:193,9
DA:194,9
DA:195,0
DA:196,0
DA:197,9
DA:198,9
DA:200,9
DA:201,0
DA:202,0
DA:203,9
DA:204,9
DA:205,9
DA:206,0
DA:207,0
DA:208,9
DA:209,9
DA:212,9
DA:213,2
DA:214,2
DA:215,2
DA:216,7
DA:217,9
DA:220,6
DA:221,6
DA:222,2
DA:223,4
DA:226,88
DA:227,88
DA:228,88
DA:229,88
DA:230,88
DA:231,88
DA:232,88
DA:233,89
DA:238,5
DA:239,5
DA:241,5
DA:242,0
DA:243,0
DA:244,0
DA:246,0
DA:249,0
DA:250,0
DA:252,0
DA:255,0
DA:256,0
DA:258,0
DA:259,0
DA:261,0
DA:262,0
DA:264,0
DA:265,5
DA:273,230
DA:274,233
DA:275,233
DA:276,233
DA:278,2
DA:281,231
DA:282,231
DA:284,2
DA:288,226
DA:289,226
DA:290,226
DA:292,226
DA:295,2
DA:296,2
DA:297,2
DA:298,2
DA:299,2
DA:300,2
DA:302,1
DA:303,225
DA:307,227
DA:308,225
DA:309,225
DA:311,227
DA:312,227
DA:313,227
DA:314,227
DA:315,227
DA:318,225
DA:321,225
DA:322,225
DA:323,225
DA:324,225
DA:326,225
DA:327,230
DA:329,222
DA:330,222
DA:331,222
DA:333,222
DA:334,222
DA:335,222
DA:336,222
BRF:0
BRH:0
LF:201
LH:177
end_of_record