SF:/home/liu/proj/toy-kv-engine/kv-engine/src/bin/compaction-simulator.rs
FN:385,_RNCNvCs4rDfzbZqwRn_20compaction_simulator4main0B3_
FN:583,_RNCNvCs4rDfzbZqwRn_20compaction_simulator4mains0_0B3_
FN:603,_RNCNvCs4rDfzbZqwRn_20compaction_simulator4mains1_0B3_
FN:622,_RNCNvCs4rDfzbZqwRn_20compaction_simulator4mains2_0B3_
FN:685,_RNCNvCs4rDfzbZqwRn_20compaction_simulator4mains3_0B3_
FN:486,_RNCNvCs4rDfzbZqwRn_20compaction_simulator4mains_0B3_
FN:213,_RNCNvMs_Cs4rDfzbZqwRn_20compaction_simulatorNtB6_11MockStorage16dump_original_id0B6_
FN:253,_RNvCs4rDfzbZqwRn_20compaction_simulator21generate_random_split
FN:238,_RNvCs4rDfzbZqwRn_20compaction_simulator25generate_random_key_range
FN:279,_RNvCs4rDfzbZqwRn_20compaction_simulator4main
FN:158,_RNvMs_Cs4rDfzbZqwRn_20compaction_simulatorNtB4_11MockStorage10check_keys
FN:221,_RNvMs_Cs4rDfzbZqwRn_20compaction_simulatorNtB4_11MockStorage12dump_real_id
FN:193,_RNvMs_Cs4rDfzbZqwRn_20compaction_simulatorNtB4_11MockStorage14dump_size_only
FN:134,_RNvMs_Cs4rDfzbZqwRn_20compaction_simulatorNtB4_11MockStorage15flush_sst_to_l0
FN:128,_RNvMs_Cs4rDfzbZqwRn_20compaction_simulatorNtB4_11MockStorage15generate_sst_id
FN:201,_RNvMs_Cs4rDfzbZqwRn_20compaction_simulatorNtB4_11MockStorage16dump_original_id
FN:143,_RNvMs_Cs4rDfzbZqwRn_20compaction_simulatorNtB4_11MockStorage21flush_sst_to_new_tier
FN:110,_RNvMs_Cs4rDfzbZqwRn_20compaction_simulatorNtB4_11MockStorage3new
FN:151,_RNvMs_Cs4rDfzbZqwRn_20compaction_simulatorNtB4_11MockStorage6remove
FN:104,_RNvXCs4rDfzbZqwRn_20compaction_simulatorNtB2_11MockStorageNtNtCslfAf2Mv2Tp5_4core7default7Default7default
FNDA:0,_RNCNvCs4rDfzbZqwRn_20compaction_simulator4main0B3_
FNDA:0,_RNCNvCs4rDfzbZqwRn_20compaction_simulator4mains0_0B3_
FNDA:0,_RNCNvCs4rDfzbZqwRn_20compaction_simulator4mains1_0B3_
FNDA:0,_RNCNvCs4rDfzbZqwRn_20compaction_simulator4mains2_0B3_
FNDA:0,_RNCNvCs4rDfzbZqwRn_20compaction_simulator4mains3_0B3_
FNDA:0,_RNCNvCs4rDfzbZqwRn_20compaction_simulator4mains_0B3_
FNDA:0,_RNCNvMs_Cs4rDfzbZqwRn_20compaction_simulatorNtB6_11MockStorage16dump_original_id0B6_
FNDA:0,_RNvCs4rDfzbZqwRn_20compaction_simulator21generate_random_split
FNDA:0,_RNvCs4rDfzbZqwRn_20compaction_simulator25generate_random_key_range
FNDA:0,_RNvCs4rDfzbZqwRn_20compaction_simulator4main
FNDA:0,_RNvMs_Cs4rDfzbZqwRn_20compaction_simulatorNtB4_11MockStorage10check_keys
FNDA:0,_RNvMs_Cs4rDfzbZqwRn_20compaction_simulatorNtB4_11MockStorage12dump_real_id
FNDA:0,_RNvMs_Cs4rDfzbZqwRn_20compaction_simulatorNtB4_11MockStorage14dump_size_only
FNDA:0,_RNvMs_Cs4rDfzbZqwRn_20compaction_simulatorNtB4_11MockStorage15flush_sst_to_l0
FNDA:0,_RNvMs_Cs4rDfzbZqwRn_20compaction_simulatorNtB4_11MockStorage15generate_sst_id
FNDA:0,_RNvMs_Cs4rDfzbZqwRn_20compaction_simulatorNtB4_11MockStorage16dump_original_id
FNDA:0,_RNvMs_Cs4rDfzbZqwRn_20compaction_simulatorNtB4_11MockStorage21flush_sst_to_new_tier
FNDA:0,_RNvMs_Cs4rDfzbZqwRn_20compaction_simulatorNtB4_11MockStorage3new
FNDA:0,_RNvMs_Cs4rDfzbZqwRn_20compaction_simulatorNtB4_11MockStorage6remove
FNDA:0,_RNvXCs4rDfzbZqwRn_20compaction_simulatorNtB2_11MockStorageNtNtCslfAf2Mv2Tp5_4core7default7Default7default
FNF:20
FNH:0
DA:104,0
DA:105,0
DA:106,0
DA:110,0
DA:111,0
DA:112,0
DA:113,0
DA:114,0
DA:115,0
DA:116,0
DA:117,0
DA:118,0
DA:119,0
DA:120,0
DA:121,0
DA:122,0
DA:123,0
DA:124,0
DA:125,0
DA:126,0
DA:128,0
DA:129,0
DA:130,0
DA:131,0
DA:132,0
DA:134,0
DA:135,0
DA:136,0
DA:137,0
DA:138,0
DA:139,0
DA:140,0
DA:141,0
DA:143,0
DA:144,0
DA:145,0
DA:146,0
DA:147,0
DA:148,0
DA:149,0
DA:151,0
DA:152,0
DA:153,0
DA:154,0
DA:156,0
DA:158,0
DA:159,0
DA:160,0
DA:161,0
DA:162,0
DA:163,0
DA:164,0
DA:165,0
DA:168,0
DA:169,0
DA:170,0
DA:171,0
DA:172,0
DA:173,0
DA:174,0
DA:175,0
DA:176,0
DA:177,0
DA:178,0
DA:179,0
DA:180,0
DA:181,0
DA:182,0
DA:183,0
DA:184,0
DA:185,0
DA:187,0
DA:189,0
DA:191,0
DA:193,0
DA:194,0
DA:195,0
DA:196,0
DA:197,0
DA:198,0
DA:199,0
DA:201,0
DA:202,0
DA:203,0
DA:204,0
DA:205,0
DA:206,0
DA:207,0
DA:208,0
DA:209,0
DA:210,0
DA:212,0
DA:213,0
DA:216,0
DA:217,0
DA:218,0
DA:219,0
DA:221,0
DA:222,0
DA:223,0
DA:224,0
DA:225,0
DA:226,0
DA:227,0
DA:228,0
DA:229,0
DA:230,0
DA:231,0
DA:232,0
DA:233,0
DA:234,0
DA:235,0
DA:238,0
DA:240,0
DA:241,0
DA:242,0
DA:243,0
DA:244,0
DA:245,0
DA:246,0
DA:247,0
DA:248,0
DA:249,0
DA:250,0
DA:251,0
DA:253,0
DA:254,0
DA:255,0
DA:256,0
DA:257,0
DA:258,0
DA:259,0
DA:260,0
DA:261,0
DA:262,0
DA:263,0
DA:264,0
DA:265,0
DA:266,0
DA:267,0
DA:268,0
DA:269,0
DA:270,0
DA:271,0
DA:272,0
DA:273,0
DA:274,0
DA:275,0
DA:276,0
DA:277,0
DA:279,0
DA:280,0
DA:281,0
DA:283,0
DA:284,0
DA:285,0
DA:286,0
DA:287,0
DA:288,0
DA:291,0
DA:292,0
DA:293,0
DA:294,0
DA:295,0
DA:296,0
DA:297,0
DA:298,0
DA:299,0
DA:300,0
DA:301,0
DA:302,0
DA:303,0
DA:304,0
DA:305,0
DA:306,0
DA:307,0
DA:308,0
DA:309,0
DA:310,0
DA:311,0
DA:312,0
DA:313,0
DA:314,0
DA:315,0
DA:316,0
DA:317,0
DA:318,0
DA:320,0
DA:321,0
DA:322,0
DA:323,0
DA:324,0
DA:325,0
DA:326,0
DA:327,0
DA:328,0
DA:329,0
DA:330,0
DA:331,0
DA:333,0
DA:336,0
DA:340,0
DA:341,0
DA:342,0
DA:343,0
DA:344,0
DA:345,0
DA:346,0
DA:347,0
DA:348,0
DA:349,0
DA:350,0
DA:351,0
DA:352,0
DA:353,0
DA:354,0
DA:355,0
DA:356,0
DA:357,0
DA:359,0
DA:360,0
DA:361,0
DA:362,0
DA:363,0
DA:364,0
DA:365,0
DA:366,0
DA:370,0
DA:372,0
DA:376,0
DA:378,0
DA:380,0
DA:381,0
DA:382,0
DA:383,0
DA:384,0
DA:385,0
DA:386,0
DA:388,0
DA:392,0
DA:393,0
DA:394,0
DA:395,0
DA:396,0
DA:397,0
DA:398,0
DA:399,0
DA:401,0
DA:402,0
DA:403,0
DA:404,0
DA:405,0
DA:406,0
DA:407,0
DA:408,0
DA:409,0
DA:410,0
DA:411,0
DA:412,0
DA:413,0
DA:414,0
DA:415,0
DA:416,0
DA:417,0
DA:418,0
DA:419,0
DA:420,0
DA:421,0
DA:422,0
DA:423,0
DA:424,0
DA:425,0
DA:426,0
DA:427,0
DA:428,0
DA:429,0
DA:431,0
DA:432,0
DA:433,0
DA:434,0
DA:435,0
DA:436,0
DA:437,0
DA:438,0
DA:439,0
DA:441,0
DA:442,0
DA:443,0
DA:444,0
DA:445,0
DA:446,0
DA:447,0
DA:448,0
DA:449,0
DA:450,0
DA:451,0
DA:452,0
DA:453,0
DA:454,0
DA:455,0
DA:456,0
DA:457,0
DA:458,0
DA:460,0
DA:461,0
DA:462,0
DA:463,0
DA:464,0
DA:465,0
DA:466,0
DA:467,0
DA:471,0
DA:473,0
DA:477,0
DA:479,0
DA:481,0
DA:482,0
DA:483,0
DA:484,0
DA:485,0
DA:486,0
DA:487,0
DA:489,0
DA:493,0
DA:494,0
DA:495,0
DA:496,0
DA:497,0
DA:498,0
DA:499,0
DA:500,0
DA:502,0
DA:503,0
DA:504,0
DA:505,0
DA:506,0
DA:507,0
DA:509,0
DA:510,0
DA:511,0
DA:512,0
DA:513,0
DA:514,0
DA:515,0
DA:516,0
DA:517,0
DA:518,0
DA:519,0
DA:520,0
DA:521,0
DA:522,0
DA:523,0
DA:524,0
DA:527,0
DA:528,0
DA:529,0
DA:530,0
DA:531,0
DA:532,0
DA:533,0
DA:534,0
DA:535,0
DA:536,0
DA:537,0
DA:538,0
DA:539,0
DA:540,0
DA:542,0
DA:543,0
DA:544,0
DA:545,0
DA:546,0
DA:547,0
DA:548,0
DA:549,0
DA:550,0
DA:551,0
DA:552,0
DA:553,0
DA:554,0
DA:555,0
DA:556,0
DA:557,0
DA:558,0
DA:559,0
DA:560,0
DA:561,0
DA:562,0
DA:563,0
DA:564,0
DA:565,0
DA:566,0
DA:567,0
DA:568,0
DA:569,0
DA:570,0
DA:571,0
DA:572,0
DA:573,0
DA:574,0
DA:575,0
DA:576,0
DA:577,0
DA:578,0
DA:580,0
DA:581,0
DA:582,0
DA:583,0
DA:586,0
DA:587,0
DA:588,0
DA:589,0
DA:590,0
DA:591,0
DA:592,0
DA:593,0
DA:595,0
DA:596,0
DA:598,0
DA:601,0
DA:602,0
DA:603,0
DA:606,0
DA:607,0
DA:608,0
DA:609,0
DA:610,0
DA:611,0
DA:612,0
DA:613,0
DA:615,0
DA:616,0
DA:618,0
DA:620,0
DA:621,0
DA:622,0
DA:625,0
DA:626,0
DA:627,0
DA:628,0
DA:629,0
DA:630,0
DA:631,0
DA:632,0
DA:634,0
DA:635,0
DA:637,0
DA:638,0
DA:639,0
DA:640,0
DA:641,0
DA:642,0
DA:643,0
DA:644,0
DA:645,0
DA:646,0
DA:647,0
DA:648,0
DA:649,0
DA:650,0
DA:651,0
DA:652,0
DA:653,0
DA:654,0
DA:655,0
DA:656,0
DA:657,0
DA:659,0
DA:660,0
DA:661,0
DA:662,0
DA:663,0
DA:664,0
DA:665,0
DA:666,0
DA:670,0
DA:672,0
DA:676,0
DA:678,0
DA:680,0
DA:681,0
DA:682,0
DA:683,0
DA:684,0
DA:685,0
DA:686,0
DA:688,0
DA:692,0
BRF:0
BRH:0
LF:495
LH:0
end_of_record
SF:/home/liu/proj/toy-kv-engine/kv-engine/src/bin/kv-engine-cli.rs
FN:235,_RNCNCNCNvMs_Cs4BXd0RvRXrY_13kv_engine_cliNtBa_7Command5parse000Ba_
FN:284,_RNCNCNCNvMs_Cs4BXd0RvRXrY_13kv_engine_cliNtBa_7Command5parses4_000Ba_
FN:233,_RNCNCNvMs_Cs4BXd0RvRXrY_13kv_engine_cliNtB8_7Command5parse00B8_
FN:249,_RNCNCNvMs_Cs4BXd0RvRXrY_13kv_engine_cliNtB8_7Command5parses0_00B8_
FN:258,_RNCNCNvMs_Cs4BXd0RvRXrY_13kv_engine_cliNtB8_7Command5parses1_00B8_
FN:265,_RNCNCNvMs_Cs4BXd0RvRXrY_13kv_engine_cliNtB8_7Command5parses2_00B8_
FN:272,_RNCNCNvMs_Cs4BXd0RvRXrY_13kv_engine_cliNtB8_7Command5parses3_00B8_
FN:282,_RNCNCNvMs_Cs4BXd0RvRXrY_13kv_engine_cliNtB8_7Command5parses4_00B8_
FN:293,_RNCNCNvMs_Cs4BXd0RvRXrY_13kv_engine_cliNtB8_7Command5parses5_00B8_
FN:240,_RNCNCNvMs_Cs4BXd0RvRXrY_13kv_engine_cliNtB8_7Command5parses_00B8_
FN:240,_RNCNCNvMs_Cs4BXd0RvRXrY_13kv_engine_cliNtB8_7Command5parses_0s_0B8_
FN:232,_RNCNvMs_Cs4BXd0RvRXrY_13kv_engine_cliNtB6_7Command5parse0B6_
FN:245,_RNCNvMs_Cs4BXd0RvRXrY_13kv_engine_cliNtB6_7Command5parses0_0B6_
FN:255,_RNCNvMs_Cs4BXd0RvRXrY_13kv_engine_cliNtB6_7Command5parses1_0B6_
FN:262,_RNCNvMs_Cs4BXd0RvRXrY_13kv_engine_cliNtB6_7Command5parses2_0B6_
FN:269,_RNCNvMs_Cs4BXd0RvRXrY_13kv_engine_cliNtB6_7Command5parses3_0B6_
FN:276,_RNCNvMs_Cs4BXd0RvRXrY_13kv_engine_cliNtB6_7Command5parses4_0B6_
FN:290,_RNCNvMs_Cs4BXd0RvRXrY_13kv_engine_cliNtB6_7Command5parses5_0B6_
FN:297,_RNCNvMs_Cs4BXd0RvRXrY_13kv_engine_cliNtB6_7Command5parses6_0B6_
FN:317,_RNCNvMs_Cs4BXd0RvRXrY_13kv_engine_cliNtB6_7Command5parses8_0B6_
FN:239,_RNCNvMs_Cs4BXd0RvRXrY_13kv_engine_cliNtB6_7Command5parses_0B6_
FN:396,_RNvCs4BXd0RvRXrY_13kv_engine_cli4main
FN:48,_RNvMCs4BXd0RvRXrY_13kv_engine_cliNtB2_11ReplHandler6handle
FN:332,_RNvMs0_Cs4BXd0RvRXrY_13kv_engine_cliNtB5_4Repl3run
FN:347,_RNvMs0_Cs4BXd0RvRXrY_13kv_engine_cliNtB5_4Repl9bootstrap
FN:375,_RNvMs1_Cs4BXd0RvRXrY_13kv_engine_cliNtB5_11ReplBuilder11description
FN:362,_RNvMs1_Cs4BXd0RvRXrY_13kv_engine_cliNtB5_11ReplBuilder3new
FN:385,_RNvMs1_Cs4BXd0RvRXrY_13kv_engine_cliNtB5_11ReplBuilder5build
FN:380,_RNvMs1_Cs4BXd0RvRXrY_13kv_engine_cliNtB5_11ReplBuilder6prompt
FN:370,_RNvMs1_Cs4BXd0RvRXrY_13kv_engine_cliNtB5_11ReplBuilder8app_name
FN:227,_RNvMs_Cs4BXd0RvRXrY_13kv_engine_cliNtB4_7Command5parse
FNDA:0,_RNCNCNCNvMs_Cs4BXd0RvRXrY_13kv_engine_cliNtBa_7Command5parse000Ba_
FNDA:0,_RNCNCNCNvMs_Cs4BXd0RvRXrY_13kv_engine_cliNtBa_7Command5parses4_000Ba_
FNDA:0,_RNCNCNvMs_Cs4BXd0RvRXrY_13kv_engine_cliNtB8_7Command5parse00B8_
FNDA:0,_RNCNCNvMs_Cs4BXd0RvRXrY_13kv_engine_cliNtB8_7Command5parses0_00B8_
FNDA:0,_RNCNCNvMs_Cs4BXd0RvRXrY_13kv_engine_cliNtB8_7Command5parses1_00B8_
FNDA:0,_RNCNCNvMs_Cs4BXd0RvRXrY_13kv_engine_cliNtB8_7Command5parses2_00B8_
FNDA:0,_RNCNCNvMs_Cs4BXd0RvRXrY_13kv_engine_cliNtB8_7Command5parses3_00B8_
FNDA:0,_RNCNCNvMs_Cs4BXd0RvRXrY_13kv_engine_cliNtB8_7Command5parses4_00B8_
FNDA:0,_RNCNCNvMs_Cs4BXd0RvRXrY_13kv_engine_cliNtB8_7Command5parses5_00B8_
FNDA:0,_RNCNCNvMs_Cs4BXd0RvRXrY_13kv_engine_cliNtB8_7Command5parses_00B8_
FNDA:0,_RNCNCNvMs_Cs4BXd0RvRXrY_13kv_engine_cliNtB8_7Command5parses_0s_0B8_
FNDA:0,_RNCNvMs_Cs4BXd0RvRXrY_13kv_engine_cliNtB6_7Command5parse0B6_
FNDA:0,_RNCNvMs_Cs4BXd0RvRXrY_13kv_engine_cliNtB6_7Command5parses0_0B6_
FNDA:0,_RNCNvMs_Cs4BXd0RvRXrY_13kv_engine_cliNtB6_7Command5parses1_0B6_
FNDA:0,_RNCNvMs_Cs4BXd0RvRXrY_13kv_engine_cliNtB6_7Command5parses2_0B6_
FNDA:0,_RNCNvMs_Cs4BXd0RvRXrY_13kv_engine_cliNtB6_7Command5parses3_0B6_
FNDA:0,_RNCNvMs_Cs4BXd0RvRXrY_13kv_engine_cliNtB6_7Command5parses4_0B6_
FNDA:0,_RNCNvMs_Cs4BXd0RvRXrY_13kv_engine_cliNtB6_7Command5parses5_0B6_
FNDA:0,_RNCNvMs_Cs4BXd0RvRXrY_13kv_engine_cliNtB6_7Command5parses6_0B6_
FNDA:0,_RNCNvMs_Cs4BXd0RvRXrY_13kv_engine_cliNtB6_7Command5parses8_0B6_
FNDA:0,_RNCNvMs_Cs4BXd0RvRXrY_13kv_engine_cliNtB6_7Command5parses_0B6_
FNDA:0,_RNvCs4BXd0RvRXrY_13kv_engine_cli4main
FNDA:0,_RNvMCs4BXd0RvRXrY_13kv_engine_cliNtB2_11ReplHandler6handle
FNDA:0,_RNvMs0_Cs4BXd0RvRXrY_13kv_engine_cliNtB5_4Repl3run
FNDA:0,_RNvMs0_Cs4BXd0RvRXrY_13kv_engine_cliNtB5_4Repl9bootstrap
FNDA:0,_RNvMs1_Cs4BXd0RvRXrY_13kv_engine_cliNtB5_11ReplBuilder11description
FNDA:0,_RNvMs1_Cs4BXd0RvRXrY_13kv_engine_cliNtB5_11ReplBuilder3new
FNDA:0,_RNvMs1_Cs4BXd0RvRXrY_13kv_engine_cliNtB5_11ReplBuilder5build
FNDA:0,_RNvMs1_Cs4BXd0RvRXrY_13kv_engine_cliNtB5_11ReplBuilder6prompt
FNDA:0,_RNvMs1_Cs4BXd0RvRXrY_13kv_engine_cliNtB5_11ReplBuilder8app_name
FNDA:0,_RNvMs_Cs4BXd0RvRXrY_13kv_engine_cliNtB4_7Command5parse
FNF:31
FNH:0
DA:48,0
DA:49,0
DA:50,0
DA:51,0
DA:52,0
DA:53,0
DA:54,0
DA:55,0
DA:58,0
DA:60,0
DA:64,0
DA:65,0
DA:66,0
DA:68,0
DA:69,0
DA:70,0
DA:71,0
DA:72,0
DA:73,0
DA:74,0
DA:75,0
DA:77,0
DA:78,0
DA:79,0
DA:80,0
DA:81,0
DA:82,0
DA:84,0
DA:86,0
DA:87,0
DA:88,0
DA:89,0
DA:90,0
DA:91,0
DA:93,0
DA:94,0
DA:96,0
DA:97,0
DA:99,0
DA:100,0
DA:102,0
DA:103,0
DA:104,0
DA:105,0
DA:106,0
DA:107,0
DA:108,0
DA:109,0
DA:111,0
DA:112,0
DA:114,0
DA:115,0
DA:117,0
DA:118,0
DA:120,0
DA:121,0
DA:122,0
DA:124,0
DA:125,0
DA:126,0
DA:127,0
DA:128,0
DA:130,0
DA:131,0
DA:133,0
DA:134,0
DA:136,0
DA:137,0
DA:139,0
DA:140,0
DA:141,0
DA:142,0
DA:144,0
DA:145,0
DA:148,0
DA:149,0
DA:152,0
DA:153,0
DA:156,0
DA:157,0
DA:158,0
DA:159,0
DA:160,0
DA:161,0
DA:162,0
DA:163,0
DA:164,0
DA:165,0
DA:166,0
DA:167,0
DA:168,0
DA:169,0
DA:170,0
DA:172,0
DA:173,0
DA:174,0
DA:175,0
DA:176,0
DA:177,0
DA:178,0
DA:179,0
DA:180,0
DA:181,0
DA:182,0
DA:183,0
DA:184,0
DA:187,0
DA:189,0
DA:190,0
DA:227,0
DA:232,0
DA:233,0
DA:234,0
DA:235,0
DA:236,0
DA:237,0
DA:239,0
DA:240,0
DA:241,0
DA:242,0
DA:243,0
DA:245,0
DA:246,0
DA:247,0
DA:249,0
DA:250,0
DA:251,0
DA:252,0
DA:253,0
DA:255,0
DA:256,0
DA:257,0
DA:258,0
DA:259,0
DA:260,0
DA:262,0
DA:263,0
DA:264,0
DA:265,0
DA:266,0
DA:267,0
DA:269,0
DA:270,0
DA:271,0
DA:272,0
DA:273,0
DA:274,0
DA:276,0
DA:277,0
DA:278,0
DA:279,0
DA:280,0
DA:281,0
DA:282,0
DA:283,0
DA:284,0
DA:285,0
DA:286,0
DA:287,0
DA:288,0
DA:290,0
DA:291,0
DA:292,0
DA:293,0
DA:294,0
DA:295,0
DA:297,0
DA:298,0
DA:299,0
DA:300,0
DA:301,0
DA:302,0
DA:303,0
DA:304,0
DA:305,0
DA:306,0
DA:307,0
DA:308,0
DA:309,0
DA:310,0
DA:311,0
DA:312,0
DA:313,0
DA:315,0
DA:316,0
DA:317,0
DA:318,0
DA:332,0
DA:333,0
DA:336,0
DA:337,0
DA:339,0
DA:340,0
DA:341,0
DA:342,0
DA:343,0
DA:345,0
DA:347,0
DA:348,0
DA:349,0
DA:350,0
DA:351,0
DA:352,0
DA:362,0
DA:363,0
DA:364,0
DA:365,0
DA:366,0
DA:367,0
DA:368,0
DA:370,0
DA:371,0
DA:372,0
DA:373,0
DA:375,0
DA:376,0
DA:377,0
DA:378,0
DA:380,0
DA:381,0
DA:382,0
DA:383,0
DA:385,0
DA:387,0
DA:388,0
DA:389,0
DA:390,0
DA:391,0
DA:393,0
DA:396,0
DA:397,0
DA:398,0
DA:399,0
DA:402,0
DA:404,0
DA:405,0
DA:406,0
DA:408,0
DA:409,0
DA:410,0
DA:411,0
DA:412,0
DA:414,0
DA:415,0
DA:416,0
DA:417,0
DA:418,0
DA:419,0
DA:420,0
DA:422,0
DA:423,0
DA:424,0
DA:425,0
DA:426,0
DA:427,0
DA:430,0
DA:431,0
DA:432,0
DA:433,0
DA:434,0
DA:437,0
DA:439,0
DA:440,0
DA:441,0
DA:442,0
DA:443,0
DA:445,0
DA:446,0
DA:447,0
BRF:0
BRH:0
LF:286
LH:0
end_of_record
SF:/home/liu/proj/toy-kv-engine/kv-engine/src/bin/wrapper.rs
FN:6,_RNvNtCs4rDfzbZqwRn_20compaction_simulator7wrapper4main
FN:6,_RNvNtCs4BXd0RvRXrY_13kv_engine_cli7wrapper4main
FN:6,_RNvCsgtMNkyjgdNA_7wrapper4main
FN:6,_RNvNtCsjsmMyPGR1S6_10write_perf7wrapper4main
FNDA:0,_RNvNtCs4rDfzbZqwRn_20compaction_simulator7wrapper4main
FNDA:0,_RNvNtCs4BXd0RvRXrY_13kv_engine_cli7wrapper4main
FNDA:0,_RNvCsgtMNkyjgdNA_7wrapper4main
FNDA:0,_RNvNtCsjsmMyPGR1S6_10write_perf7wrapper4main
FNF:1
FNH:0
DA:6,0
BRF:0
BRH:0
LF:1
LH:0
end_of_record
SF:/home/liu/proj/toy-kv-engine/kv-engine/src/bin/write-perf.rs
FN:494,_RNvCsjsmMyPGR1S6_10write_perf17emit_measurements
FN:457,_RNvCsjsmMyPGR1S6_10write_perf4main
FN:2108,_RNvNtCsjsmMyPGR1S6_10write_perf5testss_15reject_zero_num
FN:2040,_RNvNtCsjsmMyPGR1S6_10write_perf5testss_17parse_large_alias
FN:2048,_RNvNtCsjsmMyPGR1S6_10write_perf5testss_20parse_subset_aliases
FN:2062,_RNvNtCsjsmMyPGR1S6_10write_perf5testss_37json_record_contains_measurement_name
FN:2056,_RNvNtCsjsmMyPGR1S6_10write_perf5testss_39reject_unsupported_readreverse_selector
FN:1971,_RNvCsjsmMyPGR1S6_10write_perf11remove_path
FN:1730,_RNvCsjsmMyPGR1S6_10write_perf11run_compact
FN:996,_RNvCsjsmMyPGR1S6_10write_perf11run_fillseq
FN:1408,_RNvCsjsmMyPGR1S6_10write_perf11run_readseq
FN:830,_RNvCsjsmMyPGR1S6_10write_perf11run_vlog_gc
FN:1804,_RNvCsjsmMyPGR1S6_10write_perf11summary_for
FN:1958,_RNvCsjsmMyPGR1S6_10write_perf12prepare_path
FN:1964,_RNvCsjsmMyPGR1S6_10write_perf13finalize_path
FN:1359,_RNvCsjsmMyPGR1S6_10write_perf13run_overwrite
FN:1987,_RNvCsjsmMyPGR1S6_10write_perf13unix_epoch_ms
FN:1939,_RNvCsjsmMyPGR1S6_10write_perf14populate_range
FN:1036,_RNvCsjsmMyPGR1S6_10write_perf14run_fillrandom
FN:1081,_RNvCsjsmMyPGR1S6_10write_perf14run_readrandom
FN:1304,_RNvCsjsmMyPGR1S6_10write_perf14run_seekrandom
FN:1994,_RNvCsjsmMyPGR1S6_10write_perf15compaction_name
FN:2011,_RNvCsjsmMyPGR1S6_10write_perf15diff_option_u32
FN:2003,_RNvCsjsmMyPGR1S6_10write_perf15diff_option_u64
FN:1518,_RNvCsjsmMyPGR1S6_10write_perf15run_readmissing
FN:2019,_RNvCsjsmMyPGR1S6_10write_perf15validate_config
FN:1859,_RNvCsjsmMyPGR1S6_10write_perf16collect_counters
FN:1685,_RNvCsjsmMyPGR1S6_10write_perf16run_deleterandom
FN:472,_RNvCsjsmMyPGR1S6_10write_perf16select_workloads
FN:599,_RNvCsjsmMyPGR1S6_10write_perf17run_concurrent_rw
FN:769,_RNvCsjsmMyPGR1S6_10write_perf18run_wal_concurrent
FN:718,_RNvCsjsmMyPGR1S6_10write_perf18run_wal_throughput
FN:426,_RNvCsjsmMyPGR1S6_10write_perf19print_write_profile
FN:1949,_RNvCsjsmMyPGR1S6_10write_perf20populate_fixed_value
FN:1129,_RNvCsjsmMyPGR1S6_10write_perf20run_readwhilewriting
FN:1884,_RNvCsjsmMyPGR1S6_10write_perf21collect_counter_delta
FN:595,_RNvCsjsmMyPGR1S6_10write_perf21run_concurrent_rw_wal
FN:888,_RNvCsjsmMyPGR1S6_10write_perf22run_vlog_concurrent_gc
FN:591,_RNvCsjsmMyPGR1S6_10write_perf24run_concurrent_rw_no_wal
FN:1222,_RNvCsjsmMyPGR1S6_10write_perf25run_readrandomwriterandom
FN:1456,_RNvCsjsmMyPGR1S6_10write_perf26run_readseq_validate_order
FN:1579,_RNvCsjsmMyPGR1S6_10write_perf26run_seekrandomwhilewriting
FN:1979,_RNvCsjsmMyPGR1S6_10write_perf2ms
FN:1983,_RNvCsjsmMyPGR1S6_10write_perf4rate
FN:512,_RNvCsjsmMyPGR1S6_10write_perf8run_scan
FN:178,_RNvMCsjsmMyPGR1S6_10write_perfNtB2_13HarnessConfig13build_options
FN:174,_RNvMCsjsmMyPGR1S6_10write_perfNtB2_13HarnessConfig8path_for
FN:134,_RNvMCsjsmMyPGR1S6_10write_perfNtB2_13HarnessConfig9from_args
FN:1767,_RINvCsjsmMyPGR1S6_10write_perf16make_measurementNtNtCs2TrN21NlPz_5alloc6string6StringEB2_
FN:1767,_RINvCsjsmMyPGR1S6_10write_perf16make_measurementReEB2_
FN:1975,_RNCNvCsjsmMyPGR1S6_10write_perf11remove_path0B3_
FN:477,_RNCNvCsjsmMyPGR1S6_10write_perf16select_workloads0B3_
FN:486,_RNCNvCsjsmMyPGR1S6_10write_perf16select_workloadss0_0B3_
FN:485,_RNCNvCsjsmMyPGR1S6_10write_perf16select_workloadss_0B3_
FN:623,_RNCNvCsjsmMyPGR1S6_10write_perf17run_concurrent_rw0B3_
FN:657,_RNCNvCsjsmMyPGR1S6_10write_perf17run_concurrent_rws0_0B3_
FN:679,_RNCNvCsjsmMyPGR1S6_10write_perf17run_concurrent_rws1_0B3_
FN:641,_RNCNvCsjsmMyPGR1S6_10write_perf17run_concurrent_rws_0B3_
FN:785,_RNCNvCsjsmMyPGR1S6_10write_perf18run_wal_concurrent0B3_
FN:797,_RNCNvCsjsmMyPGR1S6_10write_perf18run_wal_concurrents_0B3_
FN:1149,_RNCNvCsjsmMyPGR1S6_10write_perf20run_readwhilewriting0B3_
FN:1186,_RNCNvCsjsmMyPGR1S6_10write_perf20run_readwhilewritings0_0B3_
FN:1167,_RNCNvCsjsmMyPGR1S6_10write_perf20run_readwhilewritings_0B3_
FN:908,_RNCNvCsjsmMyPGR1S6_10write_perf22run_vlog_concurrent_gc0B3_
FN:943,_RNCNvCsjsmMyPGR1S6_10write_perf22run_vlog_concurrent_gcs0_0B3_
FN:961,_RNCNvCsjsmMyPGR1S6_10write_perf22run_vlog_concurrent_gcs1_0B3_
FN:926,_RNCNvCsjsmMyPGR1S6_10write_perf22run_vlog_concurrent_gcs_0B3_
FN:1243,_RNCNvCsjsmMyPGR1S6_10write_perf25run_readrandomwriterandom0B3_
FN:1268,_RNCNvCsjsmMyPGR1S6_10write_perf25run_readrandomwriterandoms_0B3_
FN:1600,_RNCNvCsjsmMyPGR1S6_10write_perf26run_seekrandomwhilewriting0B3_
FN:1647,_RNCNvCsjsmMyPGR1S6_10write_perf26run_seekrandomwhilewritings0_0B3_
FN:1625,_RNCNvCsjsmMyPGR1S6_10write_perf26run_seekrandomwhilewritings_0B3_
FNDA:0,_RNvCsjsmMyPGR1S6_10write_perf17emit_measurements
FNDA:0,_RNvCsjsmMyPGR1S6_10write_perf4main
FNDA:1,_RNvNtCsjsmMyPGR1S6_10write_perf5testss_15reject_zero_num
FNDA:1,_RNvNtCsjsmMyPGR1S6_10write_perf5testss_17parse_large_alias
FNDA:1,_RNvNtCsjsmMyPGR1S6_10write_perf5testss_20parse_subset_aliases
FNDA:1,_RNvNtCsjsmMyPGR1S6_10write_perf5testss_37json_record_contains_measurement_name
FNDA:1,_RNvNtCsjsmMyPGR1S6_10write_perf5testss_39reject_unsupported_readreverse_selector
FNDA:0,_RNvCsjsmMyPGR1S6_10write_perf11remove_path
FNDA:0,_RNvCsjsmMyPGR1S6_10write_perf11run_compact
FNDA:0,_RNvCsjsmMyPGR1S6_10write_perf11run_fillseq
FNDA:0,_RNvCsjsmMyPGR1S6_10write_perf11run_readseq
FNDA:0,_RNvCsjsmMyPGR1S6_10write_perf11run_vlog_gc
FNDA:1,_RNvCsjsmMyPGR1S6_10write_perf11summary_for
FNDA:0,_RNvCsjsmMyPGR1S6_10write_perf12prepare_path
FNDA:0,_RNvCsjsmMyPGR1S6_10write_perf13finalize_path
FNDA:0,_RNvCsjsmMyPGR1S6_10write_perf13run_overwrite
FNDA:2,_RNvCsjsmMyPGR1S6_10write_perf13unix_epoch_ms
FNDA:0,_RNvCsjsmMyPGR1S6_10write_perf14populate_range
FNDA:0,_RNvCsjsmMyPGR1S6_10write_perf14run_fillrandom
FNDA:0,_RNvCsjsmMyPGR1S6_10write_perf14run_readrandom
FNDA:0,_RNvCsjsmMyPGR1S6_10write_perf14run_seekrandom
FNDA:1,_RNvCsjsmMyPGR1S6_10write_perf15compaction_name
FNDA:0,_RNvCsjsmMyPGR1S6_10write_perf15diff_option_u32
FNDA:0,_RNvCsjsmMyPGR1S6_10write_perf15diff_option_u64
FNDA:0,_RNvCsjsmMyPGR1S6_10write_perf15run_readmissing
FNDA:1,_RNvCsjsmMyPGR1S6_10write_perf15validate_config
FNDA:0,_RNvCsjsmMyPGR1S6_10write_perf16collect_counters
FNDA:0,_RNvCsjsmMyPGR1S6_10write_perf16run_deleterandom
FNDA:2,_RNvCsjsmMyPGR1S6_10write_perf16select_workloads
FNDA:0,_RNvCsjsmMyPGR1S6_10write_perf17run_concurrent_rw
FNDA:0,_RNvCsjsmMyPGR1S6_10write_perf18run_wal_concurrent
FNDA:0,_RNvCsjsmMyPGR1S6_10write_perf18run_wal_throughput
FNDA:0,_RNvCsjsmMyPGR1S6_10write_perf19print_write_profile
FNDA:0,_RNvCsjsmMyPGR1S6_10write_perf20populate_fixed_value
FNDA:0,_RNvCsjsmMyPGR1S6_10write_perf20run_readwhilewriting
FNDA:0,_RNvCsjsmMyPGR1S6_10write_perf21collect_counter_delta
FNDA:0,_RNvCsjsmMyPGR1S6_10write_perf21run_concurrent_rw_wal
FNDA:0,_RNvCsjsmMyPGR1S6_10write_perf22run_vlog_concurrent_gc
FNDA:0,_RNvCsjsmMyPGR1S6_10write_perf24run_concurrent_rw_no_wal
FNDA:0,_RNvCsjsmMyPGR1S6_10write_perf25run_readrandomwriterandom
FNDA:0,_RNvCsjsmMyPGR1S6_10write_perf26run_readseq_validate_order
FNDA:0,_RNvCsjsmMyPGR1S6_10write_perf26run_seekrandomwhilewriting
FNDA:0,_RNvCsjsmMyPGR1S6_10write_perf2ms
FNDA:0,_RNvCsjsmMyPGR1S6_10write_perf4rate
FNDA:0,_RNvCsjsmMyPGR1S6_10write_perf8run_scan
FNDA:1,_RNvMCsjsmMyPGR1S6_10write_perfNtB2_13HarnessConfig13build_options
FNDA:0,_RNvMCsjsmMyPGR1S6_10write_perfNtB2_13HarnessConfig8path_for
FNDA:1,_RNvMCsjsmMyPGR1S6_10write_perfNtB2_13HarnessConfig9from_args
FNDA:0,_RINvCsjsmMyPGR1S6_10write_perf16make_measurementNtNtCs2TrN21NlPz_5alloc6string6StringEB2_
FNDA:1,_RINvCsjsmMyPGR1S6_10write_perf16make_measurementReEB2_
FNDA:0,_RNCNvCsjsmMyPGR1S6_10write_perf11remove_path0B3_
FNDA:3,_RNCNvCsjsmMyPGR1S6_10write_perf16select_workloads0B3_
FNDA:0,_RNCNvCsjsmMyPGR1S6_10write_perf16select_workloadss0_0B3_
FNDA:24,_RNCNvCsjsmMyPGR1S6_10write_perf16select_workloadss_0B3_
FNDA:0,_RNCNvCsjsmMyPGR1S6_10write_perf17run_concurrent_rw0B3_
FNDA:0,_RNCNvCsjsmMyPGR1S6_10write_perf17run_concurrent_rws0_0B3_
FNDA:0,_RNCNvCsjsmMyPGR1S6_10write_perf17run_concurrent_rws1_0B3_
FNDA:0,_RNCNvCsjsmMyPGR1S6_10write_perf17run_concurrent_rws_0B3_
FNDA:0,_RNCNvCsjsmMyPGR1S6_10write_perf18run_wal_concurrent0B3_
FNDA:0,_RNCNvCsjsmMyPGR1S6_10write_perf18run_wal_concurrents_0B3_
FNDA:0,_RNCNvCsjsmMyPGR1S6_10write_perf20run_readwhilewriting0B3_
FNDA:0,_RNCNvCsjsmMyPGR1S6_10write_perf20run_readwhilewritings0_0B3_
FNDA:0,_RNCNvCsjsmMyPGR1S6_10write_perf20run_readwhilewritings_0B3_
FNDA:0,_RNCNvCsjsmMyPGR1S6_10write_perf22run_vlog_concurrent_gc0B3_
FNDA:0,_RNCNvCsjsmMyPGR1S6_10write_perf22run_vlog_concurrent_gcs0_0B3_
FNDA:0,_RNCNvCsjsmMyPGR1S6_10write_perf22run_vlog_concurrent_gcs1_0B3_
FNDA:0,_RNCNvCsjsmMyPGR1S6_10write_perf22run_vlog_concurrent_gcs_0B3_
FNDA:0,_RNCNvCsjsmMyPGR1S6_10write_perf25run_readrandomwriterandom0B3_
FNDA:0,_RNCNvCsjsmMyPGR1S6_10write_perf25run_readrandomwriterandoms_0B3_
FNDA:0,_RNCNvCsjsmMyPGR1S6_10write_perf26run_seekrandomwhilewriting0B3_
FNDA:0,_RNCNvCsjsmMyPGR1S6_10write_perf26run_seekrandomwhilewritings0_0B3_
FNDA:0,_RNCNvCsjsmMyPGR1S6_10write_perf26run_seekrandomwhilewritings_0B3_
FNF:71
FNH:15
DA:134,1
DA:135,1
DA:136,1
DA:138,0
DA:140,1
DA:141,0
DA:142,1
DA:144,1
DA:146,1
DA:147,1
DA:148,1
DA:149,1
DA:150,1
DA:151,1
DA:152,1
DA:153,1
DA:154,1
DA:155,1
DA:156,1
DA:157,1
DA:158,1
DA:159,1
DA:160,1
DA:161,1
DA:162,1
DA:163,1
DA:164,1
DA:165,1
DA:166,1
DA:167,1
DA:168,1
DA:169,1
DA:170,1
DA:171,1
DA:172,1
DA:174,0
DA:175,0
DA:176,0
DA:178,1
DA:179,1
DA:180,1
DA:183,1
DA:184,1
DA:185,1
DA:186,1
DA:188,0
DA:189,0
DA:190,0
DA:191,0
DA:192,0
DA:194,0
DA:195,0
DA:196,0
DA:197,0
DA:198,0
DA:199,0
DA:200,0
DA:201,0
DA:202,0
DA:203,0
DA:204,0
DA:205,0
DA:206,0
DA:208,1
DA:210,1
DA:211,0
DA:212,0
DA:213,0
DA:214,0
DA:215,0
DA:216,0
DA:217,0
DA:218,0
DA:219,0
DA:221,1
DA:223,1
DA:224,1
DA:226,1
DA:228,1
DA:426,0
DA:427,0
DA:428,0
DA:429,0
DA:430,0
DA:431,0
DA:432,0
DA:439,0
DA:440,0
DA:441,0
DA:443,0
DA:445,0
DA:446,0
DA:447,0
DA:448,0
DA:449,0
DA:451,0
DA:455,0
DA:457,0
DA:458,0
DA:459,0
DA:460,0
DA:461,0
DA:462,0
DA:464,0
DA:465,0
DA:466,0
DA:469,0
DA:470,0
DA:472,2
DA:473,2
DA:474,0
DA:475,2
DA:476,2
DA:477,3
DA:478,3
DA:479,1
DA:482,2
DA:483,2
DA:484,2
DA:485,24
DA:486,2
DA:487,2
DA:489,1
DA:492,2
DA:494,0
DA:495,0
DA:496,0
DA:497,0
DA:498,0
DA:499,0
DA:501,0
DA:504,0
DA:505,0
DA:509,0
DA:510,0
DA:512,0
DA:513,0
DA:514,0
DA:515,0
DA:516,0
DA:517,0
DA:518,0
DA:520,0
DA:522,0
DA:523,0
DA:524,0
DA:525,0
DA:526,0
DA:527,0
DA:529,0
DA:530,0
DA:531,0
DA:532,0
DA:533,0
DA:535,0
DA:536,0
DA:537,0
DA:538,0
DA:539,0
DA:540,0
DA:541,0
DA:542,0
DA:543,0
DA:544,0
DA:545,0
DA:546,0
DA:547,0
DA:548,0
DA:549,0
DA:552,0
DA:553,0
DA:554,0
DA:555,0
DA:556,0
DA:557,0
DA:558,0
DA:559,0
DA:560,0
DA:561,0
DA:563,0
DA:564,0
DA:565,0
DA:566,0
DA:567,0
DA:569,0
DA:570,0
DA:571,0
DA:572,0
DA:573,0
DA:574,0
DA:575,0
DA:576,0
DA:577,0
DA:578,0
DA:579,0
DA:580,0
DA:581,0
DA:582,0
DA:583,0
DA:586,0
DA:587,0
DA:588,0
DA:589,0
DA:591,0
DA:592,0
DA:593,0
DA:595,0
DA:596,0
DA:597,0
DA:599,0
DA:600,0
DA:601,0
DA:602,0
DA:603,0
DA:604,0
DA:605,0
DA:606,0
DA:607,0
DA:608,0
DA:610,0
DA:611,0
DA:612,0
DA:613,0
DA:614,0
DA:616,0
DA:617,0
DA:618,0
DA:619,0
DA:620,0
DA:621,0
DA:622,0
DA:623,0
DA:624,0
DA:625,0
DA:626,0
DA:627,0
DA:628,0
DA:629,0
DA:630,0
DA:631,0
DA:633,0
DA:634,0
DA:637,0
DA:638,0
DA:639,0
DA:640,0
DA:641,0
DA:642,0
DA:643,0
DA:644,0
DA:645,0
DA:646,0
DA:647,0
DA:648,0
DA:649,0
DA:650,0
DA:654,0
DA:655,0
DA:656,0
DA:657,0
DA:658,0
DA:659,0
DA:660,0
DA:661,0
DA:662,0
DA:663,0
DA:664,0
DA:665,0
DA:667,0
DA:669,0
DA:670,0
DA:673,0
DA:674,0
DA:675,0
DA:676,0
DA:677,0
DA:678,0
DA:679,0
DA:681,0
DA:683,0
DA:684,0
DA:685,0
DA:686,0
DA:687,0
DA:688,0
DA:690,0
DA:691,0
DA:692,0
DA:693,0
DA:694,0
DA:695,0
DA:696,0
DA:697,0
DA:698,0
DA:699,0
DA:700,0
DA:701,0
DA:702,0
DA:703,0
DA:704,0
DA:705,0
DA:706,0
DA:707,0
DA:708,0
DA:709,0
DA:710,0
DA:711,0
DA:712,0
DA:713,0
DA:714,0
DA:715,0
DA:716,0
DA:718,0
DA:719,0
DA:720,0
DA:721,0
DA:722,0
DA:723,0
DA:725,0
DA:726,0
DA:727,0
DA:730,0
DA:731,0
DA:732,0
DA:733,0
DA:734,0
DA:735,0
DA:736,0
DA:738,0
DA:739,0
DA:740,0
DA:741,0
DA:742,0
DA:743,0
DA:744,0
DA:745,0
DA:746,0
DA:747,0
DA:748,0
DA:749,0
DA:750,0
DA:751,0
DA:752,0
DA:753,0
DA:754,0
DA:755,0
DA:756,0
DA:757,0
DA:758,0
DA:759,0
DA:760,0
DA:761,0
DA:762,0
DA:763,0
DA:766,0
DA:767,0
DA:769,0
DA:770,0
DA:771,0
DA:772,0
DA:773,0
DA:774,0
DA:775,0
DA:776,0
DA:777,0
DA:778,0
DA:779,0
DA:780,0
DA:781,0
DA:782,0
DA:783,0
DA:784,0
DA:785,0
DA:786,0
DA:787,0
DA:788,0
DA:789,0
DA:790,0
DA:791,0
DA:792,0
DA:794,0
DA:795,0
DA:796,0
DA:797,0
DA:799,0
DA:800,0
DA:801,0
DA:802,0
DA:803,0
DA:804,0
DA:805,0
DA:806,0
DA:808,0
DA:809,0
DA:810,0
DA:811,0
DA:812,0
DA:813,0
DA:814,0
DA:815,0
DA:816,0
DA:817,0
DA:818,0
DA:819,0
DA:820,0
DA:821,0
DA:822,0
DA:823,0
DA:824,0
DA:825,0
DA:826,0
DA:827,0
DA:828,0
DA:830,0
DA:831,0
DA:832,0
DA:833,0
DA:834,0
DA:835,0
DA:836,0
DA:837,0
DA:838,0
DA:839,0
DA:840,0
DA:842,0
DA:843,0
DA:844,0
DA:845,0
DA:846,0
DA:847,0
DA:849,0
DA:850,0
DA:852,0
DA:853,0
DA:854,0
DA:856,0
DA:857,0
DA:858,0
DA:859,0
DA:860,0
DA:861,0
DA:862,0
DA:863,0
DA:864,0
DA:865,0
DA:866,0
DA:867,0
DA:868,0
DA:869,0
DA:870,0
DA:871,0
DA:872,0
DA:873,0
DA:874,0
DA:875,0
DA:876,0
DA:877,0
DA:878,0
DA:880,0
DA:883,0
DA:884,0
DA:885,0
DA:886,0
DA:888,0
DA:889,0
DA:890,0
DA:891,0
DA:892,0
DA:893,0
DA:894,0
DA:895,0
DA:897,0
DA:898,0
DA:899,0
DA:900,0
DA:901,0
DA:902,0
DA:905,0
DA:906,0
DA:907,0
DA:908,0
DA:909,0
DA:910,0
DA:911,0
DA:912,0
DA:913,0
DA:914,0
DA:915,0
DA:916,0
DA:918,0
DA:919,0
DA:923,0
DA:924,0
DA:925,0
DA:926,0
DA:927,0
DA:928,0
DA:929,0
DA:930,0
DA:931,0
DA:932,0
DA:933,0
DA:935,0
DA:936,0
DA:940,0
DA:941,0
DA:942,0
DA:943,0
DA:944,0
DA:945,0
DA:946,0
DA:947,0
DA:948,0
DA:949,0
DA:951,0
DA:952,0
DA:955,0
DA:956,0
DA:957,0
DA:958,0
DA:959,0
DA:960,0
DA:961,0
DA:963,0
DA:965,0
DA:966,0
DA:967,0
DA:968,0
DA:969,0
DA:970,0
DA:972,0
DA:973,0
DA:974,0
DA:975,0
DA:976,0
DA:977,0
DA:978,0
DA:979,0
DA:980,0
DA:981,0
DA:982,0
DA:983,0
DA:984,0
DA:985,0
DA:986,0
DA:987,0
DA:988,0
DA:989,0
DA:990,0
DA:991,0
DA:992,0
DA:993,0
DA:994,0
DA:996,0
DA:997,0
DA:998,0
DA:999,0
DA:1000,0
DA:1001,0
DA:1002,0
DA:1003,0
DA:1004,0
DA:1006,0
DA:1007,0
DA:1008,0
DA:1009,0
DA:1010,0
DA:1011,0
DA:1012,0
DA:1013,0
DA:1015,0
DA:1016,0
DA:1017,0
DA:1018,0
DA:1019,0
DA:1020,0
DA:1021,0
DA:1022,0
DA:1023,0
DA:1024,0
DA:1025,0
DA:1026,0
DA:1027,0
DA:1028,0
DA:1029,0
DA:1030,0
DA:1031,0
DA:1032,0
DA:1033,0
DA:1034,0
DA:1036,0
DA:1037,0
DA:1038,0
DA:1039,0
DA:1040,0
DA:1041,0
DA:1042,0
DA:1043,0
DA:1044,0
DA:1045,0
DA:1046,0
DA:1047,0
DA:1048,0
DA:1049,0
DA:1051,0
DA:1052,0
DA:1053,0
DA:1054,0
DA:1055,0
DA:1056,0
DA:1057,0
DA:1058,0
DA:1060,0
DA:1061,0
DA:1062,0
DA:1063,0
DA:1064,0
DA:1065,0
DA:1066,0
DA:1067,0
DA:1068,0
DA:1069,0
DA:1070,0
DA:1071,0
DA:1072,0
DA:1073,0
DA:1074,0
DA:1075,0
DA:1076,0
DA:1077,0
DA:1078,0
DA:1079,0
DA:1081,0
DA:1082,0
DA:1083,0
DA:1084,0
DA:1085,0
DA:1086,0
DA:1087,0
DA:1089,0
DA:1090,0
DA:1091,0
DA:1092,0
DA:1093,0
DA:1094,0
DA:1095,0
DA:1096,0
DA:1097,0
DA:1098,0
DA:1100,0
DA:1101,0
DA:1102,0
DA:1103,0
DA:1105,0
DA:1106,0
DA:1107,0
DA:1108,0
DA:1109,0
DA:1110,0
DA:1111,0
DA:1112,0
DA:1113,0
DA:1114,0
DA:1115,0
DA:1116,0
DA:1117,0
DA:1118,0
DA:1119,0
DA:1120,0
DA:1121,0
DA:1122,0
DA:1123,0
DA:1124,0
DA:1125,0
DA:1126,0
DA:1127,0
DA:1129,0
DA:1130,0
DA:1131,0
DA:1132,0
DA:1133,0
DA:1134,0
DA:1135,0
DA:1137,0
DA:1138,0
DA:1139,0
DA:1140,0
DA:1141,0
DA:1144,0
DA:1145,0
DA:1146,0
DA:1147,0
DA:1148,0
DA:1149,0
DA:1150,0
DA:1151,0
DA:1152,0
DA:1153,0
DA:1154,0
DA:1155,0
DA:1156,0
DA:1158,0
DA:1159,0
DA:1162,0
DA:1163,0
DA:1164,0
DA:1165,0
DA:1166,0
DA:1167,0
DA:1168,0
DA:1169,0
DA:1170,0
DA:1171,0
DA:1172,0
DA:1173,0
DA:1174,0
DA:1176,0
DA:1177,0
DA:1180,0
DA:1181,0
DA:1182,0
DA:1183,0
DA:1184,0
DA:1185,0
DA:1186,0
DA:1188,0
DA:1190,0
DA:1191,0
DA:1192,0
DA:1193,0
DA:1194,0
DA:1196,0
DA:1197,0
DA:1198,0
DA:1199,0
DA:1200,0
DA:1201,0
DA:1202,0
DA:1203,0
DA:1204,0
DA:1205,0
DA:1206,0
DA:1207,0
DA:1208,0
DA:1209,0
DA:1210,0
DA:1211,0
DA:1212,0
DA:1213,0
DA:1214,0
DA:1215,0
DA:1216,0
DA:1217,0
DA:1218,0
DA:1219,0
DA:1220,0
DA:1222,0
DA:1223,0
DA:1224,0
DA:1225,0
DA:1226,0
DA:1227,0
DA:1228,0
DA:1230,0
DA:1231,0
DA:1232,0
DA:1233,0
DA:1235,0
DA:1236,0
DA:1237,0
DA:1238,0
DA:1239,0
DA:1240,0
DA:1241,0
DA:1242,0
DA:1243,0
DA:1244,0
DA:1245,0
DA:1246,0
DA:1247,0
DA:1248,0
DA:1249,0
DA:1250,0
DA:1251,0
DA:1252,0
DA:1253,0
DA:1254,0
DA:1255,0
DA:1257,0
DA:1258,0
DA:1259,0
DA:1262,0
DA:1263,0
DA:1264,0
DA:1265,0
DA:1266,0
DA:1267,0
DA:1268,0
DA:1270,0
DA:1272,0
DA:1273,0
DA:1274,0
DA:1275,0
DA:1276,0
DA:1278,0
DA:1279,0
DA:1280,0
DA:1281,0
DA:1282,0
DA:1283,0
DA:1284,0
DA:1285,0
DA:1286,0
DA:1287,0
DA:1288,0
DA:1289,0
DA:1290,0
DA:1291,0
DA:1292,0
DA:1293,0
DA:1294,0
DA:1295,0
DA:1296,0
DA:1297,0
DA:1298,0
DA:1299,0
DA:1300,0
DA:1301,0
DA:1302,0
DA:1304,0
DA:1305,0
DA:1306,0
DA:1307,0
DA:1308,0
DA:1309,0
DA:1310,0
DA:1312,0
DA:1313,0
DA:1314,0
DA:1315,0
DA:1316,0
DA:1317,0
DA:1318,0
DA:1319,0
DA:1320,0
DA:1321,0
DA:1322,0
DA:1323,0
DA:1324,0
DA:1325,0
DA:1327,0
DA:1329,0
DA:1330,0
DA:1331,0
DA:1332,0
DA:1334,0
DA:1335,0
DA:1336,0
DA:1337,0
DA:1338,0
DA:1339,0
DA:1340,0
DA:1341,0
DA:1342,0
DA:1343,0
DA:1344,0
DA:1345,0
DA:1346,0
DA:1347,0
DA:1348,0
DA:1349,0
DA:1350,0
DA:1351,0
DA:1352,0
DA:1353,0
DA:1354,0
DA:1355,0
DA:1356,0
DA:1357,0
DA:1359,0
DA:1360,0
DA:1361,0
DA:1362,0
DA:1363,0
DA:1364,0
DA:1365,0
DA:1367,0
DA:1368,0
DA:1369,0
DA:1370,0
DA:1371,0
DA:1372,0
DA:1373,0
DA:1374,0
DA:1375,0
DA:1377,0
DA:1378,0
DA:1379,0
DA:1380,0
DA:1381,0
DA:1382,0
DA:1383,0
DA:1384,0
DA:1386,0
DA:1387,0
DA:1388,0
DA:1389,0
DA:1390,0
DA:1391,0
DA:1392,0
DA:1393,0
DA:1394,0
DA:1395,0
DA:1396,0
DA:1397,0
DA:1398,0
DA:1399,0
DA:1400,0
DA:1401,0
DA:1402,0
DA:1403,0
DA:1404,0
DA:1405,0
DA:1406,0
DA:1408,0
DA:1409,0
DA:1410,0
DA:1411,0
DA:1412,0
DA:1413,0
DA:1414,0
DA:1416,0
DA:1417,0
DA:1418,0
DA:1419,0
DA:1420,0
DA:1421,0
DA:1423,0
DA:1424,0
DA:1425,0
DA:1430,0
DA:1431,0
DA:1432,0
DA:1434,0
DA:1435,0
DA:1436,0
DA:1437,0
DA:1438,0
DA:1439,0
DA:1440,0
DA:1441,0
DA:1442,0
DA:1443,0
DA:1444,0
DA:1445,0
DA:1446,0
DA:1447,0
DA:1448,0
DA:1449,0
DA:1450,0
DA:1451,0
DA:1452,0
DA:1453,0
DA:1454,0
DA:1456,0
DA:1457,0
DA:1458,0
DA:1459,0
DA:1460,0
DA:1461,0
DA:1462,0
DA:1464,0
DA:1465,0
DA:1466,0
DA:1467,0
DA:1468,0
DA:1469,0
DA:1470,0
DA:1471,0
DA:1472,0
DA:1473,0
DA:1478,0
DA:1479,0
DA:1480,0
DA:1481,0
DA:1482,0
DA:1483,0
DA:1485,0
DA:1486,0
DA:1487,0
DA:1492,0
DA:1493,0
DA:1494,0
DA:1496,0
DA:1497,0
DA:1498,0
DA:1499,0
DA:1500,0
DA:1501,0
DA:1502,0
DA:1503,0
DA:1504,0
DA:1505,0
DA:1506,0
DA:1507,0
DA:1508,0
DA:1509,0
DA:1510,0
DA:1511,0
DA:1512,0
DA:1513,0
DA:1514,0
DA:1515,0
DA:1516,0
DA:1518,0
DA:1519,0
DA:1520,0
DA:1521,0
DA:1522,0
DA:1523,0
DA:1524,0
DA:1525,0
DA:1526,0
DA:1527,0
DA:1529,0
DA:1530,0
DA:1531,0
DA:1533,0
DA:1534,0
DA:1535,0
DA:1536,0
DA:1537,0
DA:1538,0
DA:1539,0
DA:1540,0
DA:1541,0
DA:1542,0
DA:1543,0
DA:1545,0
DA:1546,0
DA:1547,0
DA:1551,0
DA:1552,0
DA:1553,0
DA:1555,0
DA:1556,0
DA:1557,0
DA:1558,0
DA:1559,0
DA:1560,0
DA:1561,0
DA:1562,0
DA:1563,0
DA:1564,0
DA:1565,0
DA:1566,0
DA:1567,0
DA:1568,0
DA:1569,0
DA:1570,0
DA:1571,0
DA:1572,0
DA:1573,0
DA:1574,0
DA:1575,0
DA:1576,0
DA:1577,0
DA:1579,0
DA:1580,0
DA:1581,0
DA:1582,0
DA:1583,0
DA:1584,0
DA:1585,0
DA:1587,0
DA:1588,0
DA:1589,0
DA:1590,0
DA:1593,0
DA:1594,0
DA:1595,0
DA:1596,0
DA:1597,0
DA:1598,0
DA:1599,0
DA:1600,0
DA:1601,0
DA:1602,0
DA:1603,0
DA:1604,0
DA:1605,0
DA:1606,0
DA:1607,0
DA:1608,0
DA:1609,0
DA:1610,0
DA:1611,0
DA:1612,0
DA:1613,0
DA:1617,0
DA:1618,0
DA:1621,0
DA:1622,0
DA:1623,0
DA:1624,0
DA:1625,0
DA:1626,0
DA:1627,0
DA:1628,0
DA:1629,0
DA:1630,0
DA:1631,0
DA:1632,0
DA:1633,0
DA:1634,0
DA:1635,0
DA:1636,0
DA:1639,0
DA:1641,0
DA:1643,0
DA:1644,0
DA:1645,0
DA:1646,0
DA:1647,0
DA:1649,0
DA:1650,0
DA:1651,0
DA:1653,0
DA:1654,0
DA:1655,0
DA:1656,0
DA:1657,0
DA:1659,0
DA:1660,0
DA:1661,0
DA:1662,0
DA:1663,0
DA:1664,0
DA:1665,0
DA:1666,0
DA:1667,0
DA:1668,0
DA:1669,0
DA:1670,0
DA:1671,0
DA:1672,0
DA:1673,0
DA:1674,0
DA:1675,0
DA:1676,0
DA:1677,0
DA:1678,0
DA:1679,0
DA:1680,0
DA:1681,0
DA:1682,0
DA:1683,0
DA:1685,0
DA:1686,0
DA:1687,0
DA:1688,0
DA:1689,0
DA:1690,0
DA:1691,0
DA:1693,0
DA:1694,0
DA:1695,0
DA:1696,0
DA:1697,0
DA:1698,0
DA:1699,0
DA:1700,0
DA:1702,0
DA:1703,0
DA:1704,0
DA:1705,0
DA:1706,0
DA:1708,0
DA:1709,0
DA:1710,0
DA:1711,0
DA:1712,0
DA:1713,0
DA:1714,0
DA:1715,0
DA:1716,0
DA:1717,0
DA:1718,0
DA:1719,0
DA:1720,0
DA:1721,0
DA:1722,0
DA:1723,0
DA:1724,0
DA:1725,0
DA:1726,0
DA:1727,0
DA:1728,0
DA:1730,0
DA:1731,0
DA:1732,0
DA:1733,0
DA:1734,0
DA:1735,0
DA:1736,0
DA:1737,0
DA:1739,0
DA:1740,0
DA:1741,0
DA:1742,0
DA:1743,0
DA:1744,0
DA:1746,0
DA:1747,0
DA:1748,0
DA:1749,0
DA:1750,0
DA:1751,0
DA:1752,0
DA:1753,0
DA:1754,0
DA:1755,0
DA:1756,0
DA:1757,0
DA:1758,0
DA:1759,0
DA:1760,0
DA:1761,0
DA:1762,0
DA:1763,0
DA:1764,0
DA:1765,0
DA:1767,1
DA:1768,1
DA:1769,1
DA:1770,1
DA:1771,1
DA:1772,1
DA:1773,1
DA:1774,1
DA:1775,1
DA:1776,1
DA:1777,1
DA:1779,1
DA:1780,1
DA:1781,1
DA:1782,1
DA:1783,1
DA:1786,1
DA:1787,1
DA:1788,1
DA:1789,1
DA:1790,1
DA:1791,1
DA:1792,1
DA:1793,1
DA:1794,1
DA:1796,1
DA:1797,1
DA:1798,1
DA:1800,1
DA:1801,1
DA:1802,1
DA:1804,1
DA:1805,1
DA:1806,1
DA:1807,0
DA:1808,1
DA:1809,1
DA:1810,0
DA:1811,1
DA:1812,1
DA:1813,0
DA:1814,1
DA:1815,1
DA:1816,0
DA:1817,1
DA:1818,1
DA:1819,1
DA:1823,1
DA:1824,0
DA:1825,1
DA:1826,1
DA:1827,0
DA:1828,1
DA:1829,1
DA:1830,0
DA:1831,1
DA:1832,1
DA:1833,0
DA:1834,1
DA:1835,1
DA:1836,0
DA:1837,1
DA:1838,1
DA:1839,0
DA:1840,1
DA:1841,1
DA:1842,0
DA:1843,1
DA:1844,1
DA:1845,0
DA:1846,1
DA:1847,1
DA:1848,0
DA:1849,1
DA:1850,1
DA:1851,0
DA:1852,1
DA:1853,1
DA:1854,0
DA:1855,1
DA:1856,1
DA:1857,1
DA:1859,0
DA:1860,0
DA:1861,0
DA:1862,0
DA:1863,0
DA:1865,0
DA:1866,0
DA:1867,0
DA:1868,0
DA:1869,0
DA:1870,0
DA:1871,0
DA:1872,0
DA:1873,0
DA:1874,0
DA:1875,0
DA:1876,0
DA:1877,0
DA:1878,0
DA:1879,0
DA:1880,0
DA:1882,0
DA:1884,0
DA:1885,0
DA:1886,0
DA:1887,0
DA:1888,0
DA:1889,0
DA:1890,0
DA:1891,0
DA:1892,0
DA:1893,0
DA:1894,0
DA:1895,0
DA:1896,0
DA:1897,0
DA:1898,0
DA:1899,0
DA:1900,0
DA:1901,0
DA:1902,0
DA:1903,0
DA:1904,0
DA:1905,0
DA:1906,0
DA:1907,0
DA:1908,0
DA:1909,0
DA:1910,0
DA:1911,0
DA:1912,0
DA:1913,0
DA:1914,0
DA:1915,0
DA:1916,0
DA:1917,0
DA:1918,0
DA:1919,0
DA:1920,0
DA:1921,0
DA:1922,0
DA:1923,0
DA:1924,0
DA:1925,0
DA:1926,0
DA:1927,0
DA:1928,0
DA:1929,0
DA:1930,0
DA:1931,0
DA:1932,0
DA:1933,0
DA:1934,0
DA:1935,0
DA:1936,0
DA:1937,0
DA:1939,0
DA:1940,0
DA:1941,0
DA:1942,0
DA:1943,0
DA:1945,0
DA:1946,0
DA:1947,0
DA:1949,0
DA:1950,0
DA:1951,0
DA:1952,0
DA:1954,0
DA:1955,0
DA:1956,0
DA:1958,0
DA:1959,0
DA:1960,0
DA:1961,0
DA:1962,0
DA:1964,0
DA:1965,0
DA:1966,0
DA:1967,0
DA:1968,0
DA:1969,0
DA:1971,0
DA:1972,0
DA:1973,0
DA:1974,0
DA:1975,0
DA:1977,0
DA:1979,0
DA:1980,0
DA:1981,0
DA:1983,0
DA:1984,0
DA:1985,0
DA:1987,2
DA:1988,2
DA:1989,2
DA:1990,2
DA:1991,2
DA:1992,2
DA:1994,1
DA:1995,1
DA:1996,1
DA:1997,0
DA:1998,0
DA:1999,0
DA:2001,1
DA:2003,0
DA:2004,0
DA:2005,0
DA:2006,0
DA:2007,0
DA:2009,0
DA:2011,0
DA:2012,0
DA:2013,0
DA:2014,0
DA:2015,0
DA:2017,0
DA:2019,1
DA:2020,1
DA:2021,0
DA:2022,0
DA:2023,0
DA:2024,0
DA:2025,0
DA:2026,0
DA:2027,0
DA:2028,0
DA:2029,0
DA:2030,0
DA:2031,0
DA:2032,0
DA:2033,1
DA:2040,1
DA:2041,1
DA:2042,1
DA:2043,1
DA:2044,1
DA:2045,1
DA:2048,1
DA:2049,1
DA:2050,1
DA:2051,1
DA:2052,1
DA:2053,1
DA:2056,1
DA:2057,1
DA:2058,1
DA:2059,1
DA:2062,1
DA:2063,1
DA:2064,1
DA:2065,1
DA:2066,1
DA:2067,1
DA:2068,1
DA:2069,1
DA:2070,1
DA:2071,1
DA:2072,1
DA:2073,1
DA:2074,1
DA:2075,1
DA:2076,1
DA:2077,1
DA:2078,1
DA:2079,1
DA:2080,1
DA:2081,1
DA:2082,1
DA:2083,1
DA:2084,1
DA:2085,1
DA:2086,1
DA:2087,1
DA:2088,1
DA:2089,1
DA:2090,1
DA:2091,1
DA:2092,1
DA:2094,1
DA:2095,1
DA:2096,1
DA:2097,1
DA:2098,1
DA:2099,1
DA:2100,1
DA:2102,1
DA:2103,1
DA:2104,1
DA:2105,1
DA:2108,1
DA:2109,1
DA:2110,1
DA:2111,1
DA:2112,1
DA:2113,1
DA:2114,1
DA:2115,1
DA:2116,1
DA:2117,1
DA:2118,1
DA:2119,1
DA:2120,1
DA:2121,1
DA:2122,1
DA:2123,1
DA:2124,1
DA:2125,1
DA:2126,1
DA:2127,1
DA:2128,1
DA:2129,1
DA:2130,1
DA:2131,1
DA:2132,1
DA:2133,1
DA:2134,1
DA:2135,1
DA:2136,1
BRF:0
BRH:0
LF:1577
LH:231
end_of_record
SF:/home/liu/proj/toy-kv-engine/kv-engine/src/block.rs
FN:60,_RNCNvMNtCs9G0t2qE8rAk_9kv_engine5blockNtB4_5Block10encode_ref0B6_
FN:122,_RNCNvMNtCs9G0t2qE8rAk_9kv_engine5blockNtB4_5Block15decode_from_vec0B6_
FN:126,_RNCNvMNtCs9G0t2qE8rAk_9kv_engine5blockNtB4_5Block15decode_from_vecs0_0B6_
FN:125,_RNCNvMNtCs9G0t2qE8rAk_9kv_engine5blockNtB4_5Block15decode_from_vecs_0B6_
FN:86,_RNCNvMNtCs9G0t2qE8rAk_9kv_engine5blockNtB4_5Block6decode0B6_
FN:90,_RNCNvMNtCs9G0t2qE8rAk_9kv_engine5blockNtB4_5Block6decodes0_0B6_
FN:89,_RNCNvMNtCs9G0t2qE8rAk_9kv_engine5blockNtB4_5Block6decodes_0B6_
FN:38,_RNCNvMNtCs9G0t2qE8rAk_9kv_engine5blockNtB4_5Block6encode0B6_
FN:139,_RNvMNtCs9G0t2qE8rAk_9kv_engine5blockNtB2_5Block10data_sliceB4_
FN:49,_RNvMNtCs9G0t2qE8rAk_9kv_engine5blockNtB2_5Block10encode_ref
FN:102,_RNvMNtCs9G0t2qE8rAk_9kv_engine5blockNtB2_5Block15decode_from_vec
FN:67,_RNvMNtCs9G0t2qE8rAk_9kv_engine5blockNtB2_5Block6decode
FN:27,_RNvMNtCs9G0t2qE8rAk_9kv_engine5blockNtB2_5Block6encode
FN:139,_RNvMNtCshcgQatfXnqn_9kv_engine5blockNtB2_5Block10data_sliceB4_
FN:49,_RNvMNtCshcgQatfXnqn_9kv_engine5blockNtB2_5Block10encode_ref
FN:102,_RNvMNtCshcgQatfXnqn_9kv_engine5blockNtB2_5Block15decode_from_vec
FN:67,_RNvMNtCshcgQatfXnqn_9kv_engine5blockNtB2_5Block6decode
FN:27,_RNvMNtCshcgQatfXnqn_9kv_engine5blockNtB2_5Block6encode
FN:60,_RNCNvMNtCshcgQatfXnqn_9kv_engine5blockNtB4_5Block10encode_ref0B6_
FN:122,_RNCNvMNtCshcgQatfXnqn_9kv_engine5blockNtB4_5Block15decode_from_vec0B6_
FN:126,_RNCNvMNtCshcgQatfXnqn_9kv_engine5blockNtB4_5Block15decode_from_vecs0_0B6_
FN:125,_RNCNvMNtCshcgQatfXnqn_9kv_engine5blockNtB4_5Block15decode_from_vecs_0B6_
FN:86,_RNCNvMNtCshcgQatfXnqn_9kv_engine5blockNtB4_5Block6decode0B6_
FN:90,_RNCNvMNtCshcgQatfXnqn_9kv_engine5blockNtB4_5Block6decodes0_0B6_
FN:89,_RNCNvMNtCshcgQatfXnqn_9kv_engine5blockNtB4_5Block6decodes_0B6_
FN:38,_RNCNvMNtCshcgQatfXnqn_9kv_engine5blockNtB4_5Block6encode0B6_
FNDA:0,_RNCNvMNtCs9G0t2qE8rAk_9kv_engine5blockNtB4_5Block10encode_ref0B6_
FNDA:5244,_RNCNvMNtCs9G0t2qE8rAk_9kv_engine5blockNtB4_5Block15decode_from_vec0B6_
FNDA:5244,_RNCNvMNtCs9G0t2qE8rAk_9kv_engine5blockNtB4_5Block15decode_from_vecs0_0B6_
FNDA:2395,_RNCNvMNtCs9G0t2qE8rAk_9kv_engine5blockNtB4_5Block15decode_from_vecs_0B6_
FNDA:103,_RNCNvMNtCs9G0t2qE8rAk_9kv_engine5blockNtB4_5Block6decode0B6_
FNDA:103,_RNCNvMNtCs9G0t2qE8rAk_9kv_engine5blockNtB4_5Block6decodes0_0B6_
FNDA:101,_RNCNvMNtCs9G0t2qE8rAk_9kv_engine5blockNtB4_5Block6decodes_0B6_
FNDA:0,_RNCNvMNtCs9G0t2qE8rAk_9kv_engine5blockNtB4_5Block6encode0B6_
FNDA:5773,_RNvMNtCs9G0t2qE8rAk_9kv_engine5blockNtB2_5Block10data_sliceB4_
FNDA:4449,_RNvMNtCs9G0t2qE8rAk_9kv_engine5blockNtB2_5Block10encode_ref
FNDA:2853,_RNvMNtCs9G0t2qE8rAk_9kv_engine5blockNtB2_5Block15decode_from_vec
FNDA:5,_RNvMNtCs9G0t2qE8rAk_9kv_engine5blockNtB2_5Block6decode
FNDA:3320,_RNvMNtCs9G0t2qE8rAk_9kv_engine5blockNtB2_5Block6encode
FNDA:0,_RNvMNtCshcgQatfXnqn_9kv_engine5blockNtB2_5Block10data_sliceB4_
FNDA:0,_RNvMNtCshcgQatfXnqn_9kv_engine5blockNtB2_5Block10encode_ref
FNDA:0,_RNvMNtCshcgQatfXnqn_9kv_engine5blockNtB2_5Block15decode_from_vec
FNDA:0,_RNvMNtCshcgQatfXnqn_9kv_engine5blockNtB2_5Block6decode
FNDA:0,_RNvMNtCshcgQatfXnqn_9kv_engine5blockNtB2_5Block6encode
FNDA:0,_RNCNvMNtCshcgQatfXnqn_9kv_engine5blockNtB4_5Block10encode_ref0B6_
FNDA:0,_RNCNvMNtCshcgQatfXnqn_9kv_engine5blockNtB4_5Block15decode_from_vec0B6_
FNDA:0,_RNCNvMNtCshcgQatfXnqn_9kv_engine5blockNtB4_5Block15decode_from_vecs0_0B6_
FNDA:0,_RNCNvMNtCshcgQatfXnqn_9kv_engine5blockNtB4_5Block15decode_from_vecs_0B6_
FNDA:0,_RNCNvMNtCshcgQatfXnqn_9kv_engine5blockNtB4_5Block6decode0B6_
FNDA:0,_RNCNvMNtCshcgQatfXnqn_9kv_engine5blockNtB4_5Block6decodes0_0B6_
FNDA:0,_RNCNvMNtCshcgQatfXnqn_9kv_engine5blockNtB4_5Block6decodes_0B6_
FNDA:0,_RNCNvMNtCshcgQatfXnqn_9kv_engine5blockNtB4_5Block6encode0B6_
FNF:13
FNH:11
DA:27,3320
DA:28,3320
DA:29,3320
DA:30,3320
DA:31,4463
DA:32,4463
DA:33,4463
DA:34,3320
DA:35,3320
DA:36,3320
DA:37,3320
DA:38,3320
DA:39,3320
DA:41,3320
DA:42,3320
DA:49,4449
DA:50,4449
DA:51,4449
DA:52,4449
DA:53,18568
DA:54,18568
DA:55,18568
DA:56,4449
DA:57,4449
DA:58,4449
DA:59,4449
DA:60,4449
DA:61,4449
DA:63,4449
DA:64,4449
DA:67,5
DA:68,5
DA:69,5
DA:72,1
DA:74,4
DA:75,4
DA:76,4
DA:77,4
DA:79,2
DA:81,2
DA:83,2
DA:84,2
DA:85,2
DA:86,103
DA:87,2
DA:88,2
DA:89,101
DA:90,103
DA:94,2
DA:95,2
DA:96,2
DA:97,2
DA:98,5
DA:102,2853
DA:103,2853
DA:104,2853
DA:107,2
DA:109,2851
DA:110,2851
DA:111,2851
DA:112,2851
DA:114,2
DA:116,2849
DA:118,2849
DA:119,2849
DA:120,2849
DA:121,2849
DA:122,5244
DA:123,2849
DA:124,2849
DA:125,2849
DA:126,5244
DA:130,2849
DA:131,2849
DA:132,2849
DA:133,2849
DA:134,2853
DA:139,5773
DA:140,5773
DA:141,5773
BRF:0
BRH:0
LF:88
LH:86
end_of_record
SF:/home/liu/proj/toy-kv-engine/kv-engine/src/block/builder.rs
FN:54,_RNCNvMNtNtCs9G0t2qE8rAk_9kv_engine5block7builderNtB4_12BlockBuilder11overlap_len0B8_
FN:60,_RNCNvMNtNtCs9G0t2qE8rAk_9kv_engine5block7builderNtB4_12BlockBuilder11overlap_lens_0B8_
FN:79,_RNCNvMNtNtCs9G0t2qE8rAk_9kv_engine5block7builderNtB4_12BlockBuilder3add0B8_
FN:92,_RNCNvMNtNtCs9G0t2qE8rAk_9kv_engine5block7builderNtB4_12BlockBuilder3adds0_0B8_
FN:94,_RNCNvMNtNtCs9G0t2qE8rAk_9kv_engine5block7builderNtB4_12BlockBuilder3adds1_0B8_
FN:96,_RNCNvMNtNtCs9G0t2qE8rAk_9kv_engine5block7builderNtB4_12BlockBuilder3adds2_0B8_
FN:90,_RNCNvMNtNtCs9G0t2qE8rAk_9kv_engine5block7builderNtB4_12BlockBuilder3adds_0B8_
FN:149,_RNvMNtNtCs9G0t2qE8rAk_9kv_engine5block7builderNtB2_12BlockBuilder11num_entries
FN:45,_RNvMNtNtCs9G0t2qE8rAk_9kv_engine5block7builderNtB2_12BlockBuilder11overlap_len
FN:39,_RNvMNtNtCs9G0t2qE8rAk_9kv_engine5block7builderNtB2_12BlockBuilder12current_size
FN:68,_RNvMNtNtCs9G0t2qE8rAk_9kv_engine5block7builderNtB2_12BlockBuilder3add
FN:26,_RNvMNtNtCs9G0t2qE8rAk_9kv_engine5block7builderNtB2_12BlockBuilder3new
FN:154,_RNvMNtNtCs9G0t2qE8rAk_9kv_engine5block7builderNtB2_12BlockBuilder5build
FN:119,_RNvMNtNtCs9G0t2qE8rAk_9kv_engine5block7builderNtB2_12BlockBuilder6key_at
FN:144,_RNvMNtNtCs9G0t2qE8rAk_9kv_engine5block7builderNtB2_12BlockBuilder8is_empty
FN:149,_RNvMNtNtCshcgQatfXnqn_9kv_engine5block7builderNtB2_12BlockBuilder11num_entries
FN:45,_RNvMNtNtCshcgQatfXnqn_9kv_engine5block7builderNtB2_12BlockBuilder11overlap_len
FN:39,_RNvMNtNtCshcgQatfXnqn_9kv_engine5block7builderNtB2_12BlockBuilder12current_size
FN:68,_RNvMNtNtCshcgQatfXnqn_9kv_engine5block7builderNtB2_12BlockBuilder3add
FN:26,_RNvMNtNtCshcgQatfXnqn_9kv_engine5block7builderNtB2_12BlockBuilder3new
FN:154,_RNvMNtNtCshcgQatfXnqn_9kv_engine5block7builderNtB2_12BlockBuilder5build
FN:119,_RNvMNtNtCshcgQatfXnqn_9kv_engine5block7builderNtB2_12BlockBuilder6key_at
FN:144,_RNvMNtNtCshcgQatfXnqn_9kv_engine5block7builderNtB2_12BlockBuilder8is_empty
FN:54,_RNCNvMNtNtCshcgQatfXnqn_9kv_engine5block7builderNtB4_12BlockBuilder11overlap_len0B8_
FN:60,_RNCNvMNtNtCshcgQatfXnqn_9kv_engine5block7builderNtB4_12BlockBuilder11overlap_lens_0B8_
FN:79,_RNCNvMNtNtCshcgQatfXnqn_9kv_engine5block7builderNtB4_12BlockBuilder3add0B8_
FN:92,_RNCNvMNtNtCshcgQatfXnqn_9kv_engine5block7builderNtB4_12BlockBuilder3adds0_0B8_
FN:94,_RNCNvMNtNtCshcgQatfXnqn_9kv_engine5block7builderNtB4_12BlockBuilder3adds1_0B8_
FN:96,_RNCNvMNtNtCshcgQatfXnqn_9kv_engine5block7builderNtB4_12BlockBuilder3adds2_0B8_
FN:90,_RNCNvMNtNtCshcgQatfXnqn_9kv_engine5block7builderNtB4_12BlockBuilder3adds_0B8_
FNDA:9,_RNCNvMNtNtCs9G0t2qE8rAk_9kv_engine5block7builderNtB4_12BlockBuilder11overlap_len0B8_
FNDA:70350,_RNCNvMNtNtCs9G0t2qE8rAk_9kv_engine5block7builderNtB4_12BlockBuilder11overlap_lens_0B8_
FNDA:0,_RNCNvMNtNtCs9G0t2qE8rAk_9kv_engine5block7builderNtB4_12BlockBuilder3add0B8_
FNDA:0,_RNCNvMNtNtCs9G0t2qE8rAk_9kv_engine5block7builderNtB4_12BlockBuilder3adds0_0B8_
FNDA:0,_RNCNvMNtNtCs9G0t2qE8rAk_9kv_engine5block7builderNtB4_12BlockBuilder3adds1_0B8_
FNDA:0,_RNCNvMNtNtCs9G0t2qE8rAk_9kv_engine5block7builderNtB4_12BlockBuilder3adds2_0B8_
FNDA:0,_RNCNvMNtNtCs9G0t2qE8rAk_9kv_engine5block7builderNtB4_12BlockBuilder3adds_0B8_
FNDA:23356,_RNvMNtNtCs9G0t2qE8rAk_9kv_engine5block7builderNtB2_12BlockBuilder11num_entries
FNDA:15686,_RNvMNtNtCs9G0t2qE8rAk_9kv_engine5block7builderNtB2_12BlockBuilder11overlap_len
FNDA:23173,_RNvMNtNtCs9G0t2qE8rAk_9kv_engine5block7builderNtB2_12BlockBuilder12current_size
FNDA:30935,_RNvMNtNtCs9G0t2qE8rAk_9kv_engine5block7builderNtB2_12BlockBuilder3add
FNDA:7786,_RNvMNtNtCs9G0t2qE8rAk_9kv_engine5block7builderNtB2_12BlockBuilder3new
FNDA:7775,_RNvMNtNtCs9G0t2qE8rAk_9kv_engine5block7builderNtB2_12BlockBuilder5build
FNDA:15609,_RNvMNtNtCs9G0t2qE8rAk_9kv_engine5block7builderNtB2_12BlockBuilder6key_at
FNDA:54383,_RNvMNtNtCs9G0t2qE8rAk_9kv_engine5block7builderNtB2_12BlockBuilder8is_empty
FNDA:0,_RNvMNtNtCshcgQatfXnqn_9kv_engine5block7builderNtB2_12BlockBuilder11num_entries
FNDA:0,_RNvMNtNtCshcgQatfXnqn_9kv_engine5block7builderNtB2_12BlockBuilder11overlap_len
FNDA:0,_RNvMNtNtCshcgQatfXnqn_9kv_engine5block7builderNtB2_12BlockBuilder12current_size
FNDA:0,_RNvMNtNtCshcgQatfXnqn_9kv_engine5block7builderNtB2_12BlockBuilder3add
FNDA:0,_RNvMNtNtCshcgQatfXnqn_9kv_engine5block7builderNtB2_12BlockBuilder3new
FNDA:0,_RNvMNtNtCshcgQatfXnqn_9kv_engine5block7builderNtB2_12BlockBuilder5build
FNDA:0,_RNvMNtNtCshcgQatfXnqn_9kv_engine5block7builderNtB2_12BlockBuilder6key_at
FNDA:0,_RNvMNtNtCshcgQatfXnqn_9kv_engine5block7builderNtB2_12BlockBuilder8is_empty
FNDA:0,_RNCNvMNtNtCshcgQatfXnqn_9kv_engine5block7builderNtB4_12BlockBuilder11overlap_len0B8_
FNDA:0,_RNCNvMNtNtCshcgQatfXnqn_9kv_engine5block7builderNtB4_12BlockBuilder11overlap_lens_0B8_
FNDA:0,_RNCNvMNtNtCshcgQatfXnqn_9kv_engine5block7builderNtB4_12BlockBuilder3add0B8_
FNDA:0,_RNCNvMNtNtCshcgQatfXnqn_9kv_engine5block7builderNtB4_12BlockBuilder3adds0_0B8_
FNDA:0,_RNCNvMNtNtCshcgQatfXnqn_9kv_engine5block7builderNtB4_12BlockBuilder3adds1_0B8_
FNDA:0,_RNCNvMNtNtCshcgQatfXnqn_9kv_engine5block7builderNtB4_12BlockBuilder3adds2_0B8_
FNDA:0,_RNCNvMNtNtCshcgQatfXnqn_9kv_engine5block7builderNtB4_12BlockBuilder3adds_0B8_
FNF:15
FNH:10
DA:26,7786
DA:27,7786
DA:28,7786
DA:29,7786
DA:30,7786
DA:31,7786
DA:32,7786
DA:33,7786
DA:34,7786
DA:35,7786
DA:36,7786
DA:37,7786
DA:39,23173
DA:40,23173
DA:42,23173
DA:45,15686
DA:46,15686
DA:47,15686
DA:49,15686
DA:50,15686
DA:51,15686
DA:52,15686
DA:54,15686
DA:55,15686
DA:56,15686
DA:58,15686
DA:59,15686
DA:60,70350
DA:61,15686
DA:62,15686
DA:68,30935
DA:70,30935
DA:71,23173
DA:73,7487
DA:74,23448
DA:78,23448
DA:79,23448
DA:80,0
DA:81,0
DA:83,23448
DA:84,7762
DA:86,15686
DA:88,23448
DA:89,23448
DA:90,23448
DA:91,23448
DA:92,23448
DA:93,23448
DA:94,23448
DA:95,23448
DA:96,23448
DA:99,23448
DA:100,23448
DA:101,23448
DA:102,23448
DA:103,23448
DA:104,23448
DA:106,23448
DA:107,7762
DA:108,7762
DA:109,7762
DA:110,7762
DA:111,15686
DA:113,23448
DA:114,30935
DA:119,15609
DA:120,15609
DA:122,15608
DA:123,15608
DA:124,15608
DA:125,15608
DA:126,15608
DA:127,15608
DA:128,15608
DA:129,15608
DA:131,15608
DA:132,13433
DA:134,2175
DA:135,2175
DA:136,2175
DA:137,2175
DA:138,2175
DA:139,2175
DA:141,15608
DA:144,54383
DA:145,54383
DA:146,54383
DA:149,23356
DA:150,23356
DA:151,23356
DA:154,7775
DA:155,7775
DA:156,7775
DA:157,7775
DA:158,7775
DA:159,7775
BRF:0
BRH:0
LF:104
LH:96
end_of_record
SF:/home/liu/proj/toy-kv-engine/kv-engine/src/block/iterator.rs
FN:78,_RNvMNtNtCs9G0t2qE8rAk_9kv_engine5block8iteratorNtB2_13BlockIterator9raw_value
FN:94,_RNvMNtNtCs9G0t2qE8rAk_9kv_engine5block8iteratorNtB2_13BlockIterator11seek_to_idx
FN:172,_RNvMNtNtCs9G0t2qE8rAk_9kv_engine5block8iteratorNtB2_13BlockIterator11seek_to_key
FN:72,_RNvMNtNtCs9G0t2qE8rAk_9kv_engine5block8iteratorNtB2_13BlockIterator11value_bytes
FN:129,_RNvMNtNtCs9G0t2qE8rAk_9kv_engine5block8iteratorNtB2_13BlockIterator12cmp_entry_at
FN:35,_RNvMNtNtCs9G0t2qE8rAk_9kv_engine5block8iteratorNtB2_13BlockIterator13get_first_key
FN:89,_RNvMNtNtCs9G0t2qE8rAk_9kv_engine5block8iteratorNtB2_13BlockIterator13seek_to_first
FN:52,_RNvMNtNtCs9G0t2qE8rAk_9kv_engine5block8iteratorNtB2_13BlockIterator22create_and_seek_to_key
FN:44,_RNvMNtNtCs9G0t2qE8rAk_9kv_engine5block8iteratorNtB2_13BlockIterator24create_and_seek_to_first
FN:60,_RNvMNtNtCs9G0t2qE8rAk_9kv_engine5block8iteratorNtB2_13BlockIterator3key
FN:23,_RNvMNtNtCs9G0t2qE8rAk_9kv_engine5block8iteratorNtB2_13BlockIterator3new
FN:120,_RNvMNtNtCs9G0t2qE8rAk_9kv_engine5block8iteratorNtB2_13BlockIterator4next
FN:65,_RNvMNtNtCs9G0t2qE8rAk_9kv_engine5block8iteratorNtB2_13BlockIterator5value
FN:84,_RNvMNtNtCs9G0t2qE8rAk_9kv_engine5block8iteratorNtB2_13BlockIterator8is_valid
FN:94,_RNvMNtNtCshcgQatfXnqn_9kv_engine5block8iteratorNtB2_13BlockIterator11seek_to_idx
FN:172,_RNvMNtNtCshcgQatfXnqn_9kv_engine5block8iteratorNtB2_13BlockIterator11seek_to_key
FN:72,_RNvMNtNtCshcgQatfXnqn_9kv_engine5block8iteratorNtB2_13BlockIterator11value_bytes
FN:129,_RNvMNtNtCshcgQatfXnqn_9kv_engine5block8iteratorNtB2_13BlockIterator12cmp_entry_at
FN:35,_RNvMNtNtCshcgQatfXnqn_9kv_engine5block8iteratorNtB2_13BlockIterator13get_first_key
FN:89,_RNvMNtNtCshcgQatfXnqn_9kv_engine5block8iteratorNtB2_13BlockIterator13seek_to_first
FN:52,_RNvMNtNtCshcgQatfXnqn_9kv_engine5block8iteratorNtB2_13BlockIterator22create_and_seek_to_key
FN:44,_RNvMNtNtCshcgQatfXnqn_9kv_engine5block8iteratorNtB2_13BlockIterator24create_and_seek_to_first
FN:60,_RNvMNtNtCshcgQatfXnqn_9kv_engine5block8iteratorNtB2_13BlockIterator3key
FN:23,_RNvMNtNtCshcgQatfXnqn_9kv_engine5block8iteratorNtB2_13BlockIterator3new
FN:120,_RNvMNtNtCshcgQatfXnqn_9kv_engine5block8iteratorNtB2_13BlockIterator4next
FN:65,_RNvMNtNtCshcgQatfXnqn_9kv_engine5block8iteratorNtB2_13BlockIterator5value
FN:84,_RNvMNtNtCshcgQatfXnqn_9kv_engine5block8iteratorNtB2_13BlockIterator8is_valid
FN:78,_RNvMNtNtCshcgQatfXnqn_9kv_engine5block8iteratorNtB2_13BlockIterator9raw_value
FNDA:0,_RNvMNtNtCs9G0t2qE8rAk_9kv_engine5block8iteratorNtB2_13BlockIterator9raw_value
FNDA:15866,_RNvMNtNtCs9G0t2qE8rAk_9kv_engine5block8iteratorNtB2_13BlockIterator11seek_to_idx
FNDA:6976,_RNvMNtNtCs9G0t2qE8rAk_9kv_engine5block8iteratorNtB2_13BlockIterator11seek_to_key
FNDA:5773,_RNvMNtNtCs9G0t2qE8rAk_9kv_engine5block8iteratorNtB2_13BlockIterator11value_bytes
FNDA:16261,_RNvMNtNtCs9G0t2qE8rAk_9kv_engine5block8iteratorNtB2_13BlockIterator12cmp_entry_at
FNDA:10267,_RNvMNtNtCs9G0t2qE8rAk_9kv_engine5block8iteratorNtB2_13BlockIterator13get_first_key
FNDA:3801,_RNvMNtNtCs9G0t2qE8rAk_9kv_engine5block8iteratorNtB2_13BlockIterator13seek_to_first
FNDA:6471,_RNvMNtNtCs9G0t2qE8rAk_9kv_engine5block8iteratorNtB2_13BlockIterator22create_and_seek_to_key
FNDA:3796,_RNvMNtNtCs9G0t2qE8rAk_9kv_engine5block8iteratorNtB2_13BlockIterator24create_and_seek_to_first
FNDA:58607,_RNvMNtNtCs9G0t2qE8rAk_9kv_engine5block8iteratorNtB2_13BlockIterator3key
FNDA:10267,_RNvMNtNtCs9G0t2qE8rAk_9kv_engine5block8iteratorNtB2_13BlockIterator3new
FNDA:5089,_RNvMNtNtCs9G0t2qE8rAk_9kv_engine5block8iteratorNtB2_13BlockIterator4next
FNDA:10051,_RNvMNtNtCs9G0t2qE8rAk_9kv_engine5block8iteratorNtB2_13BlockIterator5value
FNDA:30177,_RNvMNtNtCs9G0t2qE8rAk_9kv_engine5block8iteratorNtB2_13BlockIterator8is_valid
FNDA:0,_RNvMNtNtCshcgQatfXnqn_9kv_engine5block8iteratorNtB2_13BlockIterator11seek_to_idx
FNDA:0,_RNvMNtNtCshcgQatfXnqn_9kv_engine5block8iteratorNtB2_13BlockIterator11seek_to_key
FNDA:0,_RNvMNtNtCshcgQatfXnqn_9kv_engine5block8iteratorNtB2_13BlockIterator11value_bytes
FNDA:0,_RNvMNtNtCshcgQatfXnqn_9kv_engine5block8iteratorNtB2_13BlockIterator12cmp_entry_at
FNDA:0,_RNvMNtNtCshcgQatfXnqn_9kv_engine5block8iteratorNtB2_13BlockIterator13get_first_key
FNDA:0,_RNvMNtNtCshcgQatfXnqn_9kv_engine5block8iteratorNtB2_13BlockIterator13seek_to_first
FNDA:0,_RNvMNtNtCshcgQatfXnqn_9kv_engine5block8iteratorNtB2_13BlockIterator22create_and_seek_to_key
FNDA:0,_RNvMNtNtCshcgQatfXnqn_9kv_engine5block8iteratorNtB2_13BlockIterator24create_and_seek_to_first
FNDA:0,_RNvMNtNtCshcgQatfXnqn_9kv_engine5block8iteratorNtB2_13BlockIterator3key
FNDA:0,_RNvMNtNtCshcgQatfXnqn_9kv_engine5block8iteratorNtB2_13BlockIterator3new
FNDA:0,_RNvMNtNtCshcgQatfXnqn_9kv_engine5block8iteratorNtB2_13BlockIterator4next
FNDA:0,_RNvMNtNtCshcgQatfXnqn_9kv_engine5block8iteratorNtB2_13BlockIterator5value
FNDA:0,_RNvMNtNtCshcgQatfXnqn_9kv_engine5block8iteratorNtB2_13BlockIterator8is_valid
FNDA:0,_RNvMNtNtCshcgQatfXnqn_9kv_engine5block8iteratorNtB2_13BlockIterator9raw_value
FNF:14
FNH:13
DA:23,10267
DA:24,10267
DA:26,10267
DA:27,10267
DA:28,10267
DA:29,10267
DA:30,10267
DA:31,10267
DA:32,10267
DA:33,10267
DA:35,10267
DA:36,10267
DA:37,10267
DA:38,10267
DA:40,10267
DA:41,10267
DA:44,3796
DA:45,3796
DA:46,3796
DA:48,3796
DA:49,3796
DA:52,6471
DA:53,6471
DA:54,6471
DA:56,6471
DA:57,6471
DA:60,58607
DA:61,58607
DA:62,58607
DA:65,10051
DA:66,10051
DA:67,10051
DA:72,5773
DA:73,5773
DA:74,5773
DA:75,5773
DA:78,0
DA:79,0
DA:80,0
DA:84,30177
DA:85,30177
DA:86,30177
DA:89,3801
DA:90,3801
DA:91,3801
DA:94,15866
DA:95,15866
DA:97,15866
DA:98,3813
DA:99,3813
DA:100,3813
DA:101,12053
DA:103,12053
DA:104,12053
DA:105,12053
DA:106,12053
DA:107,12053
DA:108,12053
DA:109,12053
DA:110,12053
DA:111,12053
DA:112,12053
DA:113,12053
DA:114,12053
DA:115,12053
DA:116,12053
DA:117,15866
DA:120,5089
DA:121,5089
DA:122,5089
DA:123,5089
DA:129,16261
DA:130,16261
DA:131,16261
DA:132,16261
DA:133,16261
DA:135,0
DA:136,0
DA:138,16261
DA:139,16261
DA:140,16261
DA:141,16261
DA:142,16261
DA:144,0
DA:146,16261
DA:152,16261
DA:153,16261
DA:154,16261
DA:155,16261
DA:156,15833
DA:157,428
DA:161,15833
DA:162,30
DA:163,15803
DA:166,15803
DA:167,16261
DA:172,6976
DA:173,6976
DA:174,6976
DA:175,6976
DA:176,6976
DA:177,22825
DA:178,16261
DA:179,16261
DA:180,5373
DA:181,10476
DA:183,412
DA:184,412
DA:189,6976
DA:190,6976
BRF:0
BRH:0
LF:110
LH:104
end_of_record
SF:/home/liu/proj/toy-kv-engine/kv-engine/src/cache.rs
FN:314,_RNvNtNtCs9G0t2qE8rAk_9kv_engine5cache5tests10make_block
FN:581,_RNvNtNtCs9G0t2qE8rAk_9kv_engine5cache5testss_26value_cache_insert_and_get
FN:398,_RNvNtNtCs9G0t2qE8rAk_9kv_engine5cache5testss_27block_cache_invalidate_ssts
FN:617,_RNvNtNtCs9G0t2qE8rAk_9kv_engine5cache5testss_27value_cache_invalidate_file
FN:368,_RNvNtNtCs9G0t2qE8rAk_9kv_engine5cache5testss_28block_cache_try_get_with_hit
FN:326,_RNvNtNtCs9G0t2qE8rAk_9kv_engine5cache5testss_31block_cache_new_clamps_capacity
FN:548,_RNvNtNtCs9G0t2qE8rAk_9kv_engine5cache5testss_34block_cache_backfill_empty_is_noop
FN:528,_RNvNtNtCs9G0t2qE8rAk_9kv_engine5cache5testss_35block_cache_backfill_inserts_blocks
FN:356,_RNvNtNtCs9G0t2qE8rAk_9kv_engine5cache5testss_38block_cache_different_keys_independent
FN:334,_RNvNtNtCs9G0t2qE8rAk_9kv_engine5cache5testss_38block_cache_get_or_insert_hit_and_miss
FN:417,_RNvNtNtCs9G0t2qE8rAk_9kv_engine5cache5testss_38block_cache_invalidate_unknown_id_noop
FN:607,_RNvNtNtCs9G0t2qE8rAk_9kv_engine5cache5testss_38value_cache_weight_exceeds_u16_skipped
FN:589,_RNvNtNtCs9G0t2qE8rAk_9kv_engine5cache5testss_39value_cache_weight_clamping_small_value
FN:630,_RNvNtNtCs9G0t2qE8rAk_9kv_engine5cache5testss_40value_cache_invalidate_unknown_file_noop
FN:459,_RNvNtNtCs9G0t2qE8rAk_9kv_engine5cache5testss_41block_cache_try_get_with_concurrent_error
FN:380,_RNvNtNtCs9G0t2qE8rAk_9kv_engine5cache5testss_41block_cache_try_get_with_error_propagates
FN:597,_RNvNtNtCs9G0t2qE8rAk_9kv_engine5cache5testss_41value_cache_weight_exceeds_budget_skipped
FN:427,_RNvNtNtCs9G0t2qE8rAk_9kv_engine5cache5testss_42block_cache_single_flight_coalesces_misses
FN:650,_RNvNtNtCs9G0t2qE8rAk_9kv_engine5cache5testss_44value_cache_concurrent_insert_and_invalidate
FN:555,_RNvNtNtCs9G0t2qE8rAk_9kv_engine5cache5testss_45block_cache_entry_count_drifts_after_eviction
FN:497,_RNvNtNtCs9G0t2qE8rAk_9kv_engine5cache5testss_46block_cache_try_get_with_single_flight_success
FN:638,_RNvNtNtCs9G0t2qE8rAk_9kv_engine5cache5testss_47value_cache_duplicate_key_updates_reverse_index
FN:120,_RINvMNtCs9G0t2qE8rAk_9kv_engine5cacheNtB3_10BlockCache12try_get_withNCNCNCNvNtB3_5testss_41block_cache_try_get_with_concurrent_error000ReEB5_
FN:120,_RINvMNtCs9G0t2qE8rAk_9kv_engine5cacheNtB3_10BlockCache12try_get_withNCNCNCNvNtB3_5testss_46block_cache_try_get_with_single_flight_success000ReEB5_
FN:120,_RINvMNtCs9G0t2qE8rAk_9kv_engine5cacheNtB3_10BlockCache12try_get_withNCNvMs1_NtB5_5tableNtB1c_7SsTable17read_block_cached0NtCs9i9VuZPdG6Z_6anyhow5ErrorEB5_
FN:120,_RINvMNtCs9G0t2qE8rAk_9kv_engine5cacheNtB3_10BlockCache12try_get_withNCNvNtB3_5testss_28block_cache_try_get_with_hit0NtNtCs2TrN21NlPz_5alloc6string6StringEB5_
FN:120,_RINvMNtCs9G0t2qE8rAk_9kv_engine5cacheNtB3_10BlockCache12try_get_withNCNvNtB3_5testss_28block_cache_try_get_with_hits_0NtNtCs2TrN21NlPz_5alloc6string6StringEB5_
FN:120,_RINvMNtCs9G0t2qE8rAk_9kv_engine5cacheNtB3_10BlockCache12try_get_withNCNvNtB3_5testss_41block_cache_try_get_with_concurrent_errors_0ReEB5_
FN:120,_RINvMNtCs9G0t2qE8rAk_9kv_engine5cacheNtB3_10BlockCache12try_get_withNCNvNtB3_5testss_41block_cache_try_get_with_error_propagates0ReEB5_
FN:120,_RINvMNtCs9G0t2qE8rAk_9kv_engine5cacheNtB3_10BlockCache12try_get_withNCNvNtB3_5testss_41block_cache_try_get_with_error_propagatess_0ReEB5_
FN:71,_RINvMNtCs9G0t2qE8rAk_9kv_engine5cacheNtB3_10BlockCache13get_or_insertNCNCNCNvNtB3_5testss_42block_cache_single_flight_coalesces_misses000EB5_
FN:71,_RINvMNtCs9G0t2qE8rAk_9kv_engine5cacheNtB3_10BlockCache13get_or_insertNCNvNtB3_5testss_27block_cache_invalidate_ssts0EB5_
FN:71,_RINvMNtCs9G0t2qE8rAk_9kv_engine5cacheNtB3_10BlockCache13get_or_insertNCNvNtB3_5testss_27block_cache_invalidate_sstss0_0EB5_
FN:71,_RINvMNtCs9G0t2qE8rAk_9kv_engine5cacheNtB3_10BlockCache13get_or_insertNCNvNtB3_5testss_27block_cache_invalidate_sstss_0EB5_
FN:71,_RINvMNtCs9G0t2qE8rAk_9kv_engine5cacheNtB3_10BlockCache13get_or_insertNCNvNtB3_5testss_31block_cache_new_clamps_capacity0EB5_
FN:71,_RINvMNtCs9G0t2qE8rAk_9kv_engine5cacheNtB3_10BlockCache13get_or_insertNCNvNtB3_5testss_38block_cache_different_keys_independent0EB5_
FN:71,_RINvMNtCs9G0t2qE8rAk_9kv_engine5cacheNtB3_10BlockCache13get_or_insertNCNvNtB3_5testss_38block_cache_different_keys_independents0_0EB5_
FN:71,_RINvMNtCs9G0t2qE8rAk_9kv_engine5cacheNtB3_10BlockCache13get_or_insertNCNvNtB3_5testss_38block_cache_different_keys_independents_0EB5_
FN:71,_RINvMNtCs9G0t2qE8rAk_9kv_engine5cacheNtB3_10BlockCache13get_or_insertNCNvNtB3_5testss_38block_cache_get_or_insert_hit_and_miss0EB5_
FN:71,_RINvMNtCs9G0t2qE8rAk_9kv_engine5cacheNtB3_10BlockCache13get_or_insertNCNvNtB3_5testss_38block_cache_get_or_insert_hit_and_misss_0EB5_
FN:71,_RINvMNtCs9G0t2qE8rAk_9kv_engine5cacheNtB3_10BlockCache13get_or_insertNCNvNtB3_5testss_38block_cache_invalidate_unknown_id_noop0EB5_
FN:71,_RINvMNtCs9G0t2qE8rAk_9kv_engine5cacheNtB3_10BlockCache13get_or_insertNCNvNtB3_5testss_45block_cache_entry_count_drifts_after_eviction0EB5_
FN:136,_RNCINvMNtCs9G0t2qE8rAk_9kv_engine5cacheNtB5_10BlockCache12try_get_withNCNCNCNvNtB5_5testss_41block_cache_try_get_with_concurrent_error000ReE0B7_
FN:151,_RNCINvMNtCs9G0t2qE8rAk_9kv_engine5cacheNtB5_10BlockCache12try_get_withNCNCNCNvNtB5_5testss_41block_cache_try_get_with_concurrent_error000ReEs_0B7_
FN:136,_RNCINvMNtCs9G0t2qE8rAk_9kv_engine5cacheNtB5_10BlockCache12try_get_withNCNCNCNvNtB5_5testss_46block_cache_try_get_with_single_flight_success000ReE0B7_
FN:151,_RNCINvMNtCs9G0t2qE8rAk_9kv_engine5cacheNtB5_10BlockCache12try_get_withNCNCNCNvNtB5_5testss_46block_cache_try_get_with_single_flight_success000ReEs_0B7_
FN:136,_RNCINvMNtCs9G0t2qE8rAk_9kv_engine5cacheNtB5_10BlockCache12try_get_withNCNvMs1_NtB7_5tableNtB1e_7SsTable17read_block_cached0NtCs9i9VuZPdG6Z_6anyhow5ErrorE0B7_
FN:151,_RNCINvMNtCs9G0t2qE8rAk_9kv_engine5cacheNtB5_10BlockCache12try_get_withNCNvMs1_NtB7_5tableNtB1e_7SsTable17read_block_cached0NtCs9i9VuZPdG6Z_6anyhow5ErrorEs_0B7_
FN:136,_RNCINvMNtCs9G0t2qE8rAk_9kv_engine5cacheNtB5_10BlockCache12try_get_withNCNvNtB5_5testss_28block_cache_try_get_with_hit0NtNtCs2TrN21NlPz_5alloc6string6StringE0B7_
FN:151,_RNCINvMNtCs9G0t2qE8rAk_9kv_engine5cacheNtB5_10BlockCache12try_get_withNCNvNtB5_5testss_28block_cache_try_get_with_hit0NtNtCs2TrN21NlPz_5alloc6string6StringEs_0B7_
FN:136,_RNCINvMNtCs9G0t2qE8rAk_9kv_engine5cacheNtB5_10BlockCache12try_get_withNCNvNtB5_5testss_28block_cache_try_get_with_hits_0NtNtCs2TrN21NlPz_5alloc6string6StringE0B7_
FN:151,_RNCINvMNtCs9G0t2qE8rAk_9kv_engine5cacheNtB5_10BlockCache12try_get_withNCNvNtB5_5testss_28block_cache_try_get_with_hits_0NtNtCs2TrN21NlPz_5alloc6string6StringEs_0B7_
FN:136,_RNCINvMNtCs9G0t2qE8rAk_9kv_engine5cacheNtB5_10BlockCache12try_get_withNCNvNtB5_5testss_41block_cache_try_get_with_concurrent_errors_0ReE0B7_
FN:151,_RNCINvMNtCs9G0t2qE8rAk_9kv_engine5cacheNtB5_10BlockCache12try_get_withNCNvNtB5_5testss_41block_cache_try_get_with_concurrent_errors_0ReEs_0B7_
FN:136,_RNCINvMNtCs9G0t2qE8rAk_9kv_engine5cacheNtB5_10BlockCache12try_get_withNCNvNtB5_5testss_41block_cache_try_get_with_error_propagates0ReE0B7_
FN:151,_RNCINvMNtCs9G0t2qE8rAk_9kv_engine5cacheNtB5_10BlockCache12try_get_withNCNvNtB5_5testss_41block_cache_try_get_with_error_propagates0ReEs_0B7_
FN:136,_RNCINvMNtCs9G0t2qE8rAk_9kv_engine5cacheNtB5_10BlockCache12try_get_withNCNvNtB5_5testss_41block_cache_try_get_with_error_propagatess_0ReE0B7_
FN:151,_RNCINvMNtCs9G0t2qE8rAk_9kv_engine5cacheNtB5_10BlockCache12try_get_withNCNvNtB5_5testss_41block_cache_try_get_with_error_propagatess_0ReEs_0B7_
FN:89,_RNCINvMNtCs9G0t2qE8rAk_9kv_engine5cacheNtB5_10BlockCache13get_or_insertNCNCNCNvNtB5_5testss_42block_cache_single_flight_coalesces_misses000E0B7_
FN:104,_RNCINvMNtCs9G0t2qE8rAk_9kv_engine5cacheNtB5_10BlockCache13get_or_insertNCNCNCNvNtB5_5testss_42block_cache_single_flight_coalesces_misses000Es_0B7_
FN:89,_RNCINvMNtCs9G0t2qE8rAk_9kv_engine5cacheNtB5_10BlockCache13get_or_insertNCNvNtB5_5testss_27block_cache_invalidate_ssts0E0B7_
FN:104,_RNCINvMNtCs9G0t2qE8rAk_9kv_engine5cacheNtB5_10BlockCache13get_or_insertNCNvNtB5_5testss_27block_cache_invalidate_ssts0Es_0B7_
FN:89,_RNCINvMNtCs9G0t2qE8rAk_9kv_engine5cacheNtB5_10BlockCache13get_or_insertNCNvNtB5_5testss_27block_cache_invalidate_sstss0_0E0B7_
FN:104,_RNCINvMNtCs9G0t2qE8rAk_9kv_engine5cacheNtB5_10BlockCache13get_or_insertNCNvNtB5_5testss_27block_cache_invalidate_sstss0_0Es_0B7_
FN:89,_RNCINvMNtCs9G0t2qE8rAk_9kv_engine5cacheNtB5_10BlockCache13get_or_insertNCNvNtB5_5testss_27block_cache_invalidate_sstss_0E0B7_
FN:104,_RNCINvMNtCs9G0t2qE8rAk_9kv_engine5cacheNtB5_10BlockCache13get_or_insertNCNvNtB5_5testss_27block_cache_invalidate_sstss_0Es_0B7_
FN:89,_RNCINvMNtCs9G0t2qE8rAk_9kv_engine5cacheNtB5_10BlockCache13get_or_insertNCNvNtB5_5testss_31block_cache_new_clamps_capacity0E0B7_
FN:104,_RNCINvMNtCs9G0t2qE8rAk_9kv_engine5cacheNtB5_10BlockCache13get_or_insertNCNvNtB5_5testss_31block_cache_new_clamps_capacity0Es_0B7_
FN:89,_RNCINvMNtCs9G0t2qE8rAk_9kv_engine5cacheNtB5_10BlockCache13get_or_insertNCNvNtB5_5testss_38block_cache_different_keys_independent0E0B7_
FN:104,_RNCINvMNtCs9G0t2qE8rAk_9kv_engine5cacheNtB5_10BlockCache13get_or_insertNCNvNtB5_5testss_38block_cache_different_keys_independent0Es_0B7_
FN:89,_RNCINvMNtCs9G0t2qE8rAk_9kv_engine5cacheNtB5_10BlockCache13get_or_insertNCNvNtB5_5testss_38block_cache_different_keys_independents0_0E0B7_
FN:104,_RNCINvMNtCs9G0t2qE8rAk_9kv_engine5cacheNtB5_10BlockCache13get_or_insertNCNvNtB5_5testss_38block_cache_different_keys_independents0_0Es_0B7_
FN:89,_RNCINvMNtCs9G0t2qE8rAk_9kv_engine5cacheNtB5_10BlockCache13get_or_insertNCNvNtB5_5testss_38block_cache_different_keys_independents_0E0B7_
FN:104,_RNCINvMNtCs9G0t2qE8rAk_9kv_engine5cacheNtB5_10BlockCache13get_or_insertNCNvNtB5_5testss_38block_cache_different_keys_independents_0Es_0B7_
FN:89,_RNCINvMNtCs9G0t2qE8rAk_9kv_engine5cacheNtB5_10BlockCache13get_or_insertNCNvNtB5_5testss_38block_cache_get_or_insert_hit_and_miss0E0B7_
FN:104,_RNCINvMNtCs9G0t2qE8rAk_9kv_engine5cacheNtB5_10BlockCache13get_or_insertNCNvNtB5_5testss_38block_cache_get_or_insert_hit_and_miss0Es_0B7_
FN:89,_RNCINvMNtCs9G0t2qE8rAk_9kv_engine5cacheNtB5_10BlockCache13get_or_insertNCNvNtB5_5testss_38block_cache_get_or_insert_hit_and_misss_0E0B7_
FN:104,_RNCINvMNtCs9G0t2qE8rAk_9kv_engine5cacheNtB5_10BlockCache13get_or_insertNCNvNtB5_5testss_38block_cache_get_or_insert_hit_and_misss_0Es_0B7_
FN:89,_RNCINvMNtCs9G0t2qE8rAk_9kv_engine5cacheNtB5_10BlockCache13get_or_insertNCNvNtB5_5testss_38block_cache_invalidate_unknown_id_noop0E0B7_
FN:104,_RNCINvMNtCs9G0t2qE8rAk_9kv_engine5cacheNtB5_10BlockCache13get_or_insertNCNvNtB5_5testss_38block_cache_invalidate_unknown_id_noop0Es_0B7_
FN:89,_RNCINvMNtCs9G0t2qE8rAk_9kv_engine5cacheNtB5_10BlockCache13get_or_insertNCNvNtB5_5testss_45block_cache_entry_count_drifts_after_eviction0E0B7_
FN:104,_RNCINvMNtCs9G0t2qE8rAk_9kv_engine5cacheNtB5_10BlockCache13get_or_insertNCNvNtB5_5testss_45block_cache_entry_count_drifts_after_eviction0Es_0B7_
FN:169,_RNCNvMNtCs9G0t2qE8rAk_9kv_engine5cacheNtB4_10BlockCache15invalidate_ssts0B6_
FN:220,_RNCNvMNtCs9G0t2qE8rAk_9kv_engine5cacheNtB4_10BlockCache8backfill0B6_
FN:471,_RNCNCNCNvNtNtCs9G0t2qE8rAk_9kv_engine5cache5testss_41block_cache_try_get_with_concurrent_error000Bb_
FN:439,_RNCNCNCNvNtNtCs9G0t2qE8rAk_9kv_engine5cache5testss_42block_cache_single_flight_coalesces_misses000Bb_
FN:509,_RNCNCNCNvNtNtCs9G0t2qE8rAk_9kv_engine5cache5testss_46block_cache_try_get_with_single_flight_success000Bb_
FN:469,_RNCNCNvNtNtCs9G0t2qE8rAk_9kv_engine5cache5testss_41block_cache_try_get_with_concurrent_error00B9_
FN:437,_RNCNCNvNtNtCs9G0t2qE8rAk_9kv_engine5cache5testss_42block_cache_single_flight_coalesces_misses00B9_
FN:658,_RNCNCNvNtNtCs9G0t2qE8rAk_9kv_engine5cache5testss_44value_cache_concurrent_insert_and_invalidate00B9_
FN:507,_RNCNCNvNtNtCs9G0t2qE8rAk_9kv_engine5cache5testss_46block_cache_try_get_with_single_flight_success00B9_
FN:400,_RNCNvNtNtCs9G0t2qE8rAk_9kv_engine5cache5testss_27block_cache_invalidate_ssts0B7_
FN:402,_RNCNvNtNtCs9G0t2qE8rAk_9kv_engine5cache5testss_27block_cache_invalidate_sstss0_0B7_
FN:401,_RNCNvNtNtCs9G0t2qE8rAk_9kv_engine5cache5testss_27block_cache_invalidate_sstss_0B7_
FN:370,_RNCNvNtNtCs9G0t2qE8rAk_9kv_engine5cache5testss_28block_cache_try_get_with_hit0B7_
FN:375,_RNCNvNtNtCs9G0t2qE8rAk_9kv_engine5cache5testss_28block_cache_try_get_with_hits_0B7_
FN:329,_RNCNvNtNtCs9G0t2qE8rAk_9kv_engine5cache5testss_31block_cache_new_clamps_capacity0B7_
FN:530,_RNCNvNtNtCs9G0t2qE8rAk_9kv_engine5cache5testss_35block_cache_backfill_inserts_blocks0B7_
FN:358,_RNCNvNtNtCs9G0t2qE8rAk_9kv_engine5cache5testss_38block_cache_different_keys_independent0B7_
FN:360,_RNCNvNtNtCs9G0t2qE8rAk_9kv_engine5cache5testss_38block_cache_different_keys_independents0_0B7_
FN:359,_RNCNvNtNtCs9G0t2qE8rAk_9kv_engine5cache5testss_38block_cache_different_keys_independents_0B7_
FN:339,_RNCNvNtNtCs9G0t2qE8rAk_9kv_engine5cache5testss_38block_cache_get_or_insert_hit_and_miss0B7_
FN:347,_RNCNvNtNtCs9G0t2qE8rAk_9kv_engine5cache5testss_38block_cache_get_or_insert_hit_and_misss_0B7_
FN:419,_RNCNvNtNtCs9G0t2qE8rAk_9kv_engine5cache5testss_38block_cache_invalidate_unknown_id_noop0B7_
FN:465,_RNCNvNtNtCs9G0t2qE8rAk_9kv_engine5cache5testss_41block_cache_try_get_with_concurrent_error0B7_
FN:491,_RNCNvNtNtCs9G0t2qE8rAk_9kv_engine5cache5testss_41block_cache_try_get_with_concurrent_errors_0B7_
FN:392,_RNCNvNtNtCs9G0t2qE8rAk_9kv_engine5cache5testss_41block_cache_try_get_with_error_propagatess_0B7_
FN:433,_RNCNvNtNtCs9G0t2qE8rAk_9kv_engine5cache5testss_42block_cache_single_flight_coalesces_misses0B7_
FN:655,_RNCNvNtNtCs9G0t2qE8rAk_9kv_engine5cache5testss_44value_cache_concurrent_insert_and_invalidate0B7_
FN:560,_RNCNvNtNtCs9G0t2qE8rAk_9kv_engine5cache5testss_45block_cache_entry_count_drifts_after_eviction0B7_
FN:568,_RNCNvNtNtCs9G0t2qE8rAk_9kv_engine5cache5testss_45block_cache_entry_count_drifts_after_evictions_0B7_
FN:503,_RNCNvNtNtCs9G0t2qE8rAk_9kv_engine5cache5testss_46block_cache_try_get_with_single_flight_success0B7_
FN:193,_RNvMNtCs9G0t2qE8rAk_9kv_engine5cacheNtB2_10BlockCache11entry_count
FN:164,_RNvMNtCs9G0t2qE8rAk_9kv_engine5cacheNtB2_10BlockCache15invalidate_ssts
FN:56,_RNvMNtCs9G0t2qE8rAk_9kv_engine5cacheNtB2_10BlockCache3new
FN:203,_RNvMNtCs9G0t2qE8rAk_9kv_engine5cacheNtB2_10BlockCache8backfill
FN:269,_RNvMs_NtCs9G0t2qE8rAk_9kv_engine5cacheNtB4_10ValueCache12value_weight
FN:297,_RNvMs_NtCs9G0t2qE8rAk_9kv_engine5cacheNtB4_10ValueCache15invalidate_file
FN:278,_RNvMs_NtCs9G0t2qE8rAk_9kv_engine5cacheNtB4_10ValueCache3get
FN:251,_RNvMs_NtCs9G0t2qE8rAk_9kv_engine5cacheNtB4_10ValueCache3new
FN:285,_RNvMs_NtCs9G0t2qE8rAk_9kv_engine5cacheNtB4_10ValueCache6insert
FN:193,_RNvMNtCshcgQatfXnqn_9kv_engine5cacheNtB2_10BlockCache11entry_count
FN:164,_RNvMNtCshcgQatfXnqn_9kv_engine5cacheNtB2_10BlockCache15invalidate_ssts
FN:56,_RNvMNtCshcgQatfXnqn_9kv_engine5cacheNtB2_10BlockCache3new
FN:203,_RNvMNtCshcgQatfXnqn_9kv_engine5cacheNtB2_10BlockCache8backfill
FN:269,_RNvMs_NtCshcgQatfXnqn_9kv_engine5cacheNtB4_10ValueCache12value_weight
FN:297,_RNvMs_NtCshcgQatfXnqn_9kv_engine5cacheNtB4_10ValueCache15invalidate_file
FN:278,_RNvMs_NtCshcgQatfXnqn_9kv_engine5cacheNtB4_10ValueCache3get
FN:251,_RNvMs_NtCshcgQatfXnqn_9kv_engine5cacheNtB4_10ValueCache3new
FN:285,_RNvMs_NtCshcgQatfXnqn_9kv_engine5cacheNtB4_10ValueCache6insert
FN:71,_RINvMNtCshcgQatfXnqn_9kv_engine5cacheNtB3_10BlockCache13get_or_insertpEB5_
FN:89,_RNCINvMNtCshcgQatfXnqn_9kv_engine5cacheNtB5_10BlockCache13get_or_insertpE0B7_
FN:104,_RNCINvMNtCshcgQatfXnqn_9kv_engine5cacheNtB5_10BlockCache13get_or_insertpEs_0B7_
FN:120,_RINvMNtCshcgQatfXnqn_9kv_engine5cacheNtB3_10BlockCache12try_get_withNCNvMs1_NtB5_5tableNtB1c_7SsTable17read_block_cached0NtCs9i9VuZPdG6Z_6anyhow5ErrorEB5_
FN:136,_RNCINvMNtCshcgQatfXnqn_9kv_engine5cacheNtB5_10BlockCache12try_get_withNCNvMs1_NtB7_5tableNtB1e_7SsTable17read_block_cached0NtCs9i9VuZPdG6Z_6anyhow5ErrorE0B7_
FN:151,_RNCINvMNtCshcgQatfXnqn_9kv_engine5cacheNtB5_10BlockCache12try_get_withNCNvMs1_NtB7_5tableNtB1e_7SsTable17read_block_cached0NtCs9i9VuZPdG6Z_6anyhow5ErrorEs_0B7_
FN:169,_RNCNvMNtCshcgQatfXnqn_9kv_engine5cacheNtB4_10BlockCache15invalidate_ssts0B6_
FN:220,_RNCNvMNtCshcgQatfXnqn_9kv_engine5cacheNtB4_10BlockCache8backfill0B6_
FNDA:27,_RNvNtNtCs9G0t2qE8rAk_9kv_engine5cache5tests10make_block
FNDA:1,_RNvNtNtCs9G0t2qE8rAk_9kv_engine5cache5testss_26value_cache_insert_and_get
FNDA:1,_RNvNtNtCs9G0t2qE8rAk_9kv_engine5cache5testss_27block_cache_invalidate_ssts
FNDA:1,_RNvNtNtCs9G0t2qE8rAk_9kv_engine5cache5testss_27value_cache_invalidate_file
FNDA:1,_RNvNtNtCs9G0t2qE8rAk_9kv_engine5cache5testss_28block_cache_try_get_with_hit
FNDA:1,_RNvNtNtCs9G0t2qE8rAk_9kv_engine5cache5testss_31block_cache_new_clamps_capacity
FNDA:1,_RNvNtNtCs9G0t2qE8rAk_9kv_engine5cache5testss_34block_cache_backfill_empty_is_noop
FNDA:1,_RNvNtNtCs9G0t2qE8rAk_9kv_engine5cache5testss_35block_cache_backfill_inserts_blocks
FNDA:1,_RNvNtNtCs9G0t2qE8rAk_9kv_engine5cache5testss_38block_cache_different_keys_independent
FNDA:1,_RNvNtNtCs9G0t2qE8rAk_9kv_engine5cache5testss_38block_cache_get_or_insert_hit_and_miss
FNDA:1,_RNvNtNtCs9G0t2qE8rAk_9kv_engine5cache5testss_38block_cache_invalidate_unknown_id_noop
FNDA:1,_RNvNtNtCs9G0t2qE8rAk_9kv_engine5cache5testss_38value_cache_weight_exceeds_u16_skipped
FNDA:1,_RNvNtNtCs9G0t2qE8rAk_9kv_engine5cache5testss_39value_cache_weight_clamping_small_value
FNDA:1,_RNvNtNtCs9G0t2qE8rAk_9kv_engine5cache5testss_40value_cache_invalidate_unknown_file_noop
FNDA:1,_RNvNtNtCs9G0t2qE8rAk_9kv_engine5cache5testss_41block_cache_try_get_with_concurrent_error
FNDA:1,_RNvNtNtCs9G0t2qE8rAk_9kv_engine5cache5testss_41block_cache_try_get_with_error_propagates
FNDA:1,_RNvNtNtCs9G0t2qE8rAk_9kv_engine5cache5testss_41value_cache_weight_exceeds_budget_skipped
FNDA:1,_RNvNtNtCs9G0t2qE8rAk_9kv_engine5cache5testss_42block_cache_single_flight_coalesces_misses
FNDA:1,_RNvNtNtCs9G0t2qE8rAk_9kv_engine5cache5testss_44value_cache_concurrent_insert_and_invalidate
FNDA:1,_RNvNtNtCs9G0t2qE8rAk_9kv_engine5cache5testss_45block_cache_entry_count_drifts_after_eviction
FNDA:1,_RNvNtNtCs9G0t2qE8rAk_9kv_engine5cache5testss_46block_cache_try_get_with_single_flight_success
FNDA:1,_RNvNtNtCs9G0t2qE8rAk_9kv_engine5cache5testss_47value_cache_duplicate_key_updates_reverse_index
FNDA:4,_RINvMNtCs9G0t2qE8rAk_9kv_engine5cacheNtB3_10BlockCache12try_get_withNCNCNCNvNtB3_5testss_41block_cache_try_get_with_concurrent_error000ReEB5_
FNDA:4,_RINvMNtCs9G0t2qE8rAk_9kv_engine5cacheNtB3_10BlockCache12try_get_withNCNCNCNvNtB3_5testss_46block_cache_try_get_with_single_flight_success000ReEB5_
FNDA:9463,_RINvMNtCs9G0t2qE8rAk_9kv_engine5cacheNtB3_10BlockCache12try_get_withNCNvMs1_NtB5_5tableNtB1c_7SsTable17read_block_cached0NtCs9i9VuZPdG6Z_6anyhow5ErrorEB5_
FNDA:1,_RINvMNtCs9G0t2qE8rAk_9kv_engine5cacheNtB3_10BlockCache12try_get_withNCNvNtB3_5testss_28block_cache_try_get_with_hit0NtNtCs2TrN21NlPz_5alloc6string6StringEB5_
FNDA:1,_RINvMNtCs9G0t2qE8rAk_9kv_engine5cacheNtB3_10BlockCache12try_get_withNCNvNtB3_5testss_28block_cache_try_get_with_hits_0NtNtCs2TrN21NlPz_5alloc6string6StringEB5_
FNDA:1,_RINvMNtCs9G0t2qE8rAk_9kv_engine5cacheNtB3_10BlockCache12try_get_withNCNvNtB3_5testss_41block_cache_try_get_with_concurrent_errors_0ReEB5_
FNDA:1,_RINvMNtCs9G0t2qE8rAk_9kv_engine5cacheNtB3_10BlockCache12try_get_withNCNvNtB3_5testss_41block_cache_try_get_with_error_propagates0ReEB5_
FNDA:1,_RINvMNtCs9G0t2qE8rAk_9kv_engine5cacheNtB3_10BlockCache12try_get_withNCNvNtB3_5testss_41block_cache_try_get_with_error_propagatess_0ReEB5_
FNDA:4,_RINvMNtCs9G0t2qE8rAk_9kv_engine5cacheNtB3_10BlockCache13get_or_insertNCNCNCNvNtB3_5testss_42block_cache_single_flight_coalesces_misses000EB5_
FNDA:1,_RINvMNtCs9G0t2qE8rAk_9kv_engine5cacheNtB3_10BlockCache13get_or_insertNCNvNtB3_5testss_27block_cache_invalidate_ssts0EB5_
FNDA:1,_RINvMNtCs9G0t2qE8rAk_9kv_engine5cacheNtB3_10BlockCache13get_or_insertNCNvNtB3_5testss_27block_cache_invalidate_sstss0_0EB5_
FNDA:1,_RINvMNtCs9G0t2qE8rAk_9kv_engine5cacheNtB3_10BlockCache13get_or_insertNCNvNtB3_5testss_27block_cache_invalidate_sstss_0EB5_
FNDA:1,_RINvMNtCs9G0t2qE8rAk_9kv_engine5cacheNtB3_10BlockCache13get_or_insertNCNvNtB3_5testss_31block_cache_new_clamps_capacity0EB5_
FNDA:1,_RINvMNtCs9G0t2qE8rAk_9kv_engine5cacheNtB3_10BlockCache13get_or_insertNCNvNtB3_5testss_38block_cache_different_keys_independent0EB5_
FNDA:1,_RINvMNtCs9G0t2qE8rAk_9kv_engine5cacheNtB3_10BlockCache13get_or_insertNCNvNtB3_5testss_38block_cache_different_keys_independents0_0EB5_
FNDA:1,_RINvMNtCs9G0t2qE8rAk_9kv_engine5cacheNtB3_10BlockCache13get_or_insertNCNvNtB3_5testss_38block_cache_different_keys_independents_0EB5_
FNDA:1,_RINvMNtCs9G0t2qE8rAk_9kv_engine5cacheNtB3_10BlockCache13get_or_insertNCNvNtB3_5testss_38block_cache_get_or_insert_hit_and_miss0EB5_
FNDA:1,_RINvMNtCs9G0t2qE8rAk_9kv_engine5cacheNtB3_10BlockCache13get_or_insertNCNvNtB3_5testss_38block_cache_get_or_insert_hit_and_misss_0EB5_
FNDA:1,_RINvMNtCs9G0t2qE8rAk_9kv_engine5cacheNtB3_10BlockCache13get_or_insertNCNvNtB3_5testss_38block_cache_invalidate_unknown_id_noop0EB5_
FNDA:10,_RINvMNtCs9G0t2qE8rAk_9kv_engine5cacheNtB3_10BlockCache13get_or_insertNCNvNtB3_5testss_45block_cache_entry_count_drifts_after_eviction0EB5_
FNDA:0,_RNCINvMNtCs9G0t2qE8rAk_9kv_engine5cacheNtB5_10BlockCache12try_get_withNCNCNCNvNtB5_5testss_41block_cache_try_get_with_concurrent_error000ReE0B7_
FNDA:0,_RNCINvMNtCs9G0t2qE8rAk_9kv_engine5cacheNtB5_10BlockCache12try_get_withNCNCNCNvNtB5_5testss_41block_cache_try_get_with_concurrent_error000ReEs_0B7_
FNDA:0,_RNCINvMNtCs9G0t2qE8rAk_9kv_engine5cacheNtB5_10BlockCache12try_get_withNCNCNCNvNtB5_5testss_46block_cache_try_get_with_single_flight_success000ReE0B7_
FNDA:1,_RNCINvMNtCs9G0t2qE8rAk_9kv_engine5cacheNtB5_10BlockCache12try_get_withNCNCNCNvNtB5_5testss_46block_cache_try_get_with_single_flight_success000ReEs_0B7_
FNDA:0,_RNCINvMNtCs9G0t2qE8rAk_9kv_engine5cacheNtB5_10BlockCache12try_get_withNCNvMs1_NtB7_5tableNtB1e_7SsTable17read_block_cached0NtCs9i9VuZPdG6Z_6anyhow5ErrorE0B7_
FNDA:2048,_RNCINvMNtCs9G0t2qE8rAk_9kv_engine5cacheNtB5_10BlockCache12try_get_withNCNvMs1_NtB7_5tableNtB1e_7SsTable17read_block_cached0NtCs9i9VuZPdG6Z_6anyhow5ErrorEs_0B7_
FNDA:0,_RNCINvMNtCs9G0t2qE8rAk_9kv_engine5cacheNtB5_10BlockCache12try_get_withNCNvNtB5_5testss_28block_cache_try_get_with_hit0NtNtCs2TrN21NlPz_5alloc6string6StringE0B7_
FNDA:1,_RNCINvMNtCs9G0t2qE8rAk_9kv_engine5cacheNtB5_10BlockCache12try_get_withNCNvNtB5_5testss_28block_cache_try_get_with_hit0NtNtCs2TrN21NlPz_5alloc6string6StringEs_0B7_
FNDA:0,_RNCINvMNtCs9G0t2qE8rAk_9kv_engine5cacheNtB5_10BlockCache12try_get_withNCNvNtB5_5testss_28block_cache_try_get_with_hits_0NtNtCs2TrN21NlPz_5alloc6string6StringE0B7_
FNDA:0,_RNCINvMNtCs9G0t2qE8rAk_9kv_engine5cacheNtB5_10BlockCache12try_get_withNCNvNtB5_5testss_28block_cache_try_get_with_hits_0NtNtCs2TrN21NlPz_5alloc6string6StringEs_0B7_
FNDA:0,_RNCINvMNtCs9G0t2qE8rAk_9kv_engine5cacheNtB5_10BlockCache12try_get_withNCNvNtB5_5testss_41block_cache_try_get_with_concurrent_errors_0ReE0B7_
FNDA:1,_RNCINvMNtCs9G0t2qE8rAk_9kv_engine5cacheNtB5_10BlockCache12try_get_withNCNvNtB5_5testss_41block_cache_try_get_with_concurrent_errors_0ReEs_0B7_
FNDA:0,_RNCINvMNtCs9G0t2qE8rAk_9kv_engine5cacheNtB5_10BlockCache12try_get_withNCNvNtB5_5testss_41block_cache_try_get_with_error_propagates0ReE0B7_
FNDA:0,_RNCINvMNtCs9G0t2qE8rAk_9kv_engine5cacheNtB5_10BlockCache12try_get_withNCNvNtB5_5testss_41block_cache_try_get_with_error_propagates0ReEs_0B7_
FNDA:0,_RNCINvMNtCs9G0t2qE8rAk_9kv_engine5cacheNtB5_10BlockCache12try_get_withNCNvNtB5_5testss_41block_cache_try_get_with_error_propagatess_0ReE0B7_
FNDA:1,_RNCINvMNtCs9G0t2qE8rAk_9kv_engine5cacheNtB5_10BlockCache12try_get_withNCNvNtB5_5testss_41block_cache_try_get_with_error_propagatess_0ReEs_0B7_
FNDA:0,_RNCINvMNtCs9G0t2qE8rAk_9kv_engine5cacheNtB5_10BlockCache13get_or_insertNCNCNCNvNtB5_5testss_42block_cache_single_flight_coalesces_misses000E0B7_
FNDA:1,_RNCINvMNtCs9G0t2qE8rAk_9kv_engine5cacheNtB5_10BlockCache13get_or_insertNCNCNCNvNtB5_5testss_42block_cache_single_flight_coalesces_misses000Es_0B7_
FNDA:0,_RNCINvMNtCs9G0t2qE8rAk_9kv_engine5cacheNtB5_10BlockCache13get_or_insertNCNvNtB5_5testss_27block_cache_invalidate_ssts0E0B7_
FNDA:1,_RNCINvMNtCs9G0t2qE8rAk_9kv_engine5cacheNtB5_10BlockCache13get_or_insertNCNvNtB5_5testss_27block_cache_invalidate_ssts0Es_0B7_
FNDA:0,_RNCINvMNtCs9G0t2qE8rAk_9kv_engine5cacheNtB5_10BlockCache13get_or_insertNCNvNtB5_5testss_27block_cache_invalidate_sstss0_0E0B7_
FNDA:1,_RNCINvMNtCs9G0t2qE8rAk_9kv_engine5cacheNtB5_10BlockCache13get_or_insertNCNvNtB5_5testss_27block_cache_invalidate_sstss0_0Es_0B7_
FNDA:0,_RNCINvMNtCs9G0t2qE8rAk_9kv_engine5cacheNtB5_10BlockCache13get_or_insertNCNvNtB5_5testss_27block_cache_invalidate_sstss_0E0B7_
FNDA:1,_RNCINvMNtCs9G0t2qE8rAk_9kv_engine5cacheNtB5_10BlockCache13get_or_insertNCNvNtB5_5testss_27block_cache_invalidate_sstss_0Es_0B7_
FNDA:0,_RNCINvMNtCs9G0t2qE8rAk_9kv_engine5cacheNtB5_10BlockCache13get_or_insertNCNvNtB5_5testss_31block_cache_new_clamps_capacity0E0B7_
FNDA:1,_RNCINvMNtCs9G0t2qE8rAk_9kv_engine5cacheNtB5_10BlockCache13get_or_insertNCNvNtB5_5testss_31block_cache_new_clamps_capacity0Es_0B7_
FNDA:0,_RNCINvMNtCs9G0t2qE8rAk_9kv_engine5cacheNtB5_10BlockCache13get_or_insertNCNvNtB5_5testss_38block_cache_different_keys_independent0E0B7_
FNDA:1,_RNCINvMNtCs9G0t2qE8rAk_9kv_engine5cacheNtB5_10BlockCache13get_or_insertNCNvNtB5_5testss_38block_cache_different_keys_independent0Es_0B7_
FNDA:0,_RNCINvMNtCs9G0t2qE8rAk_9kv_engine5cacheNtB5_10BlockCache13get_or_insertNCNvNtB5_5testss_38block_cache_different_keys_independents0_0E0B7_
FNDA:1,_RNCINvMNtCs9G0t2qE8rAk_9kv_engine5cacheNtB5_10BlockCache13get_or_insertNCNvNtB5_5testss_38block_cache_different_keys_independents0_0Es_0B7_
FNDA:0,_RNCINvMNtCs9G0t2qE8rAk_9kv_engine5cacheNtB5_10BlockCache13get_or_insertNCNvNtB5_5testss_38block_cache_different_keys_independents_0E0B7_
FNDA:1,_RNCINvMNtCs9G0t2qE8rAk_9kv_engine5cacheNtB5_10BlockCache13get_or_insertNCNvNtB5_5testss_38block_cache_different_keys_independents_0Es_0B7_
FNDA:0,_RNCINvMNtCs9G0t2qE8rAk_9kv_engine5cacheNtB5_10BlockCache13get_or_insertNCNvNtB5_5testss_38block_cache_get_or_insert_hit_and_miss0E0B7_
FNDA:1,_RNCINvMNtCs9G0t2qE8rAk_9kv_engine5cacheNtB5_10BlockCache13get_or_insertNCNvNtB5_5testss_38block_cache_get_or_insert_hit_and_miss0Es_0B7_
FNDA:0,_RNCINvMNtCs9G0t2qE8rAk_9kv_engine5cacheNtB5_10BlockCache13get_or_insertNCNvNtB5_5testss_38block_cache_get_or_insert_hit_and_misss_0E0B7_
FNDA:0,_RNCINvMNtCs9G0t2qE8rAk_9kv_engine5cacheNtB5_10BlockCache13get_or_insertNCNvNtB5_5testss_38block_cache_get_or_insert_hit_and_misss_0Es_0B7_
FNDA:0,_RNCINvMNtCs9G0t2qE8rAk_9kv_engine5cacheNtB5_10BlockCache13get_or_insertNCNvNtB5_5testss_38block_cache_invalidate_unknown_id_noop0E0B7_
FNDA:1,_RNCINvMNtCs9G0t2qE8rAk_9kv_engine5cacheNtB5_10BlockCache13get_or_insertNCNvNtB5_5testss_38block_cache_invalidate_unknown_id_noop0Es_0B7_
FNDA:0,_RNCINvMNtCs9G0t2qE8rAk_9kv_engine5cacheNtB5_10BlockCache13get_or_insertNCNvNtB5_5testss_45block_cache_entry_count_drifts_after_eviction0E0B7_
FNDA:10,_RNCINvMNtCs9G0t2qE8rAk_9kv_engine5cacheNtB5_10BlockCache13get_or_insertNCNvNtB5_5testss_45block_cache_entry_count_drifts_after_eviction0Es_0B7_
FNDA:95,_RNCNvMNtCs9G0t2qE8rAk_9kv_engine5cacheNtB4_10BlockCache15invalidate_ssts0B6_
FNDA:187,_RNCNvMNtCs9G0t2qE8rAk_9kv_engine5cacheNtB4_10BlockCache8backfill0B6_
FNDA:4,_RNCNCNCNvNtNtCs9G0t2qE8rAk_9kv_engine5cache5testss_41block_cache_try_get_with_concurrent_error000Bb_
FNDA:1,_RNCNCNCNvNtNtCs9G0t2qE8rAk_9kv_engine5cache5testss_42block_cache_single_flight_coalesces_misses000Bb_
FNDA:1,_RNCNCNCNvNtNtCs9G0t2qE8rAk_9kv_engine5cache5testss_46block_cache_try_get_with_single_flight_success000Bb_
FNDA:4,_RNCNCNvNtNtCs9G0t2qE8rAk_9kv_engine5cache5testss_41block_cache_try_get_with_concurrent_error00B9_
FNDA:4,_RNCNCNvNtNtCs9G0t2qE8rAk_9kv_engine5cache5testss_42block_cache_single_flight_coalesces_misses00B9_
FNDA:4,_RNCNCNvNtNtCs9G0t2qE8rAk_9kv_engine5cache5testss_44value_cache_concurrent_insert_and_invalidate00B9_
FNDA:4,_RNCNCNvNtNtCs9G0t2qE8rAk_9kv_engine5cache5testss_46block_cache_try_get_with_single_flight_success00B9_
FNDA:1,_RNCNvNtNtCs9G0t2qE8rAk_9kv_engine5cache5testss_27block_cache_invalidate_ssts0B7_
FNDA:1,_RNCNvNtNtCs9G0t2qE8rAk_9kv_engine5cache5testss_27block_cache_invalidate_sstss0_0B7_
FNDA:1,_RNCNvNtNtCs9G0t2qE8rAk_9kv_engine5cache5testss_27block_cache_invalidate_sstss_0B7_
FNDA:1,_RNCNvNtNtCs9G0t2qE8rAk_9kv_engine5cache5testss_28block_cache_try_get_with_hit0B7_
FNDA:0,_RNCNvNtNtCs9G0t2qE8rAk_9kv_engine5cache5testss_28block_cache_try_get_with_hits_0B7_
FNDA:1,_RNCNvNtNtCs9G0t2qE8rAk_9kv_engine5cache5testss_31block_cache_new_clamps_capacity0B7_
FNDA:3,_RNCNvNtNtCs9G0t2qE8rAk_9kv_engine5cache5testss_35block_cache_backfill_inserts_blocks0B7_
FNDA:1,_RNCNvNtNtCs9G0t2qE8rAk_9kv_engine5cache5testss_38block_cache_different_keys_independent0B7_
FNDA:1,_RNCNvNtNtCs9G0t2qE8rAk_9kv_engine5cache5testss_38block_cache_different_keys_independents0_0B7_
FNDA:1,_RNCNvNtNtCs9G0t2qE8rAk_9kv_engine5cache5testss_38block_cache_different_keys_independents_0B7_
FNDA:1,_RNCNvNtNtCs9G0t2qE8rAk_9kv_engine5cache5testss_38block_cache_get_or_insert_hit_and_miss0B7_
FNDA:0,_RNCNvNtNtCs9G0t2qE8rAk_9kv_engine5cache5testss_38block_cache_get_or_insert_hit_and_misss_0B7_
FNDA:1,_RNCNvNtNtCs9G0t2qE8rAk_9kv_engine5cache5testss_38block_cache_invalidate_unknown_id_noop0B7_
FNDA:4,_RNCNvNtNtCs9G0t2qE8rAk_9kv_engine5cache5testss_41block_cache_try_get_with_concurrent_error0B7_
FNDA:1,_RNCNvNtNtCs9G0t2qE8rAk_9kv_engine5cache5testss_41block_cache_try_get_with_concurrent_errors_0B7_
FNDA:1,_RNCNvNtNtCs9G0t2qE8rAk_9kv_engine5cache5testss_41block_cache_try_get_with_error_propagatess_0B7_
FNDA:4,_RNCNvNtNtCs9G0t2qE8rAk_9kv_engine5cache5testss_42block_cache_single_flight_coalesces_misses0B7_
FNDA:4,_RNCNvNtNtCs9G0t2qE8rAk_9kv_engine5cache5testss_44value_cache_concurrent_insert_and_invalidate0B7_
FNDA:10,_RNCNvNtNtCs9G0t2qE8rAk_9kv_engine5cache5testss_45block_cache_entry_count_drifts_after_eviction0B7_
FNDA:10,_RNCNvNtNtCs9G0t2qE8rAk_9kv_engine5cache5testss_45block_cache_entry_count_drifts_after_evictions_0B7_
FNDA:4,_RNCNvNtNtCs9G0t2qE8rAk_9kv_engine5cache5testss_46block_cache_try_get_with_single_flight_success0B7_
FNDA:18,_RNvMNtCs9G0t2qE8rAk_9kv_engine5cacheNtB2_10BlockCache11entry_count
FNDA:48,_RNvMNtCs9G0t2qE8rAk_9kv_engine5cacheNtB2_10BlockCache15invalidate_ssts
FNDA:282,_RNvMNtCs9G0t2qE8rAk_9kv_engine5cacheNtB2_10BlockCache3new
FNDA:206,_RNvMNtCs9G0t2qE8rAk_9kv_engine5cacheNtB2_10BlockCache8backfill
FNDA:336,_RNvMs_NtCs9G0t2qE8rAk_9kv_engine5cacheNtB4_10ValueCache12value_weight
FNDA:13,_RNvMs_NtCs9G0t2qE8rAk_9kv_engine5cacheNtB4_10ValueCache15invalidate_file
FNDA:326,_RNvMs_NtCs9G0t2qE8rAk_9kv_engine5cacheNtB4_10ValueCache3get
FNDA:60,_RNvMs_NtCs9G0t2qE8rAk_9kv_engine5cacheNtB4_10ValueCache3new
FNDA:336,_RNvMs_NtCs9G0t2qE8rAk_9kv_engine5cacheNtB4_10ValueCache6insert
FNDA:0,_RNvMNtCshcgQatfXnqn_9kv_engine5cacheNtB2_10BlockCache11entry_count
FNDA:0,_RNvMNtCshcgQatfXnqn_9kv_engine5cacheNtB2_10BlockCache15invalidate_ssts
FNDA:0,_RNvMNtCshcgQatfXnqn_9kv_engine5cacheNtB2_10BlockCache3new
FNDA:0,_RNvMNtCshcgQatfXnqn_9kv_engine5cacheNtB2_10BlockCache8backfill
FNDA:0,_RNvMs_NtCshcgQatfXnqn_9kv_engine5cacheNtB4_10ValueCache12value_weight
FNDA:0,_RNvMs_NtCshcgQatfXnqn_9kv_engine5cacheNtB4_10ValueCache15invalidate_file
FNDA:0,_RNvMs_NtCshcgQatfXnqn_9kv_engine5cacheNtB4_10ValueCache3get
FNDA:0,_RNvMs_NtCshcgQatfXnqn_9kv_engine5cacheNtB4_10ValueCache3new
FNDA:0,_RNvMs_NtCshcgQatfXnqn_9kv_engine5cacheNtB4_10ValueCache6insert
FNDA:0,_RINvMNtCshcgQatfXnqn_9kv_engine5cacheNtB3_10BlockCache13get_or_insertpEB5_
FNDA:0,_RNCINvMNtCshcgQatfXnqn_9kv_engine5cacheNtB5_10BlockCache13get_or_insertpE0B7_
FNDA:0,_RNCINvMNtCshcgQatfXnqn_9kv_engine5cacheNtB5_10BlockCache13get_or_insertpEs_0B7_
FNDA:0,_RINvMNtCshcgQatfXnqn_9kv_engine5cacheNtB3_10BlockCache12try_get_withNCNvMs1_NtB5_5tableNtB1c_7SsTable17read_block_cached0NtCs9i9VuZPdG6Z_6anyhow5ErrorEB5_
FNDA:0,_RNCINvMNtCshcgQatfXnqn_9kv_engine5cacheNtB5_10BlockCache12try_get_withNCNvMs1_NtB7_5tableNtB1e_7SsTable17read_block_cached0NtCs9i9VuZPdG6Z_6anyhow5ErrorE0B7_
FNDA:0,_RNCINvMNtCshcgQatfXnqn_9kv_engine5cacheNtB5_10BlockCache12try_get_withNCNvMs1_NtB7_5tableNtB1e_7SsTable17read_block_cached0NtCs9i9VuZPdG6Z_6anyhow5ErrorEs_0B7_
FNDA:0,_RNCNvMNtCshcgQatfXnqn_9kv_engine5cacheNtB4_10BlockCache15invalidate_ssts0B6_
FNDA:0,_RNCNvMNtCshcgQatfXnqn_9kv_engine5cacheNtB4_10BlockCache8backfill0B6_
FNF:67
FNH:63
DA:56,282
DA:57,282
DA:58,282
DA:59,282
DA:60,282
DA:61,282
DA:62,282
DA:63,282
DA:64,282
DA:71,24
DA:72,24
DA:73,24
DA:75,24
DA:76,24
DA:77,1
DA:78,23
DA:80,23
DA:81,23
DA:82,23
DA:84,23
DA:86,23
DA:88,3
DA:89,3
DA:90,0
DA:91,3
DA:92,3
DA:93,20
DA:94,20
DA:95,20
DA:96,20
DA:97,20
DA:98,20
DA:99,20
DA:100,20
DA:101,20
DA:103,20
DA:104,20
DA:105,20
DA:106,20
DA:109,20
DA:110,24
DA:120,9476
DA:121,9476
DA:122,9476
DA:124,9476
DA:125,9476
DA:126,7411
DA:127,2065
DA:128,2065
DA:129,2065
DA:130,2065
DA:132,2065
DA:134,2065
DA:135,8
DA:136,8
DA:137,0
DA:138,8
DA:139,8
DA:140,2057
DA:141,2057
DA:142,2052
DA:143,2052
DA:144,2052
DA:145,2052
DA:146,2052
DA:147,2052
DA:148,2052
DA:150,2052
DA:151,2052
DA:152,2052
DA:153,2052
DA:156,2052
DA:157,9476
DA:164,48
DA:165,48
DA:166,48
DA:167,48
DA:168,48
DA:169,95
DA:170,48
DA:172,48
DA:173,3582
DA:174,3582
DA:175,3582
DA:178,48
DA:179,3582
DA:180,3582
DA:181,3582
DA:183,48
DA:184,48
DA:193,18
DA:194,18
DA:195,18
DA:203,206
DA:204,206
DA:205,19
DA:206,187
DA:207,187
DA:210,187
DA:211,4452
DA:212,4452
DA:213,4452
DA:214,4452
DA:215,4452
DA:216,187
DA:217,187
DA:218,187
DA:219,187
DA:220,187
DA:221,187
DA:222,206
DA:251,60
DA:252,60
DA:253,60
DA:254,60
DA:255,60
DA:257,60
DA:258,60
DA:259,60
DA:260,60
DA:261,60
DA:262,60
DA:263,60
DA:269,336
DA:270,336
DA:271,336
DA:272,2
DA:273,334
DA:274,334
DA:275,336
DA:278,326
DA:279,326
DA:280,326
DA:285,336
DA:286,336
DA:287,2
DA:289,334
DA:290,334
DA:291,336
DA:297,13
DA:298,13
DA:299,13
DA:300,13
DA:302,202
DA:303,202
DA:304,202
DA:305,13
DA:314,27
DA:315,27
DA:316,27
DA:317,27
DA:318,27
DA:319,27
DA:326,1
DA:327,1
DA:329,1
DA:330,1
DA:331,1
DA:334,1
DA:335,1
DA:336,1
DA:339,1
DA:340,1
DA:341,1
DA:342,1
DA:343,1
DA:344,1
DA:347,1
DA:348,0
DA:349,0
DA:350,0
DA:351,1
DA:352,1
DA:353,1
DA:356,1
DA:357,1
DA:358,1
DA:359,1
DA:360,1
DA:361,1
DA:362,1
DA:363,1
DA:364,1
DA:365,1
DA:368,1
DA:369,1
DA:370,1
DA:371,1
DA:372,1
DA:375,1
DA:376,1
DA:377,1
DA:380,1
DA:381,1
DA:382,1
DA:383,1
DA:384,1
DA:385,0
DA:389,1
DA:392,1
DA:393,1
DA:394,1
DA:395,1
DA:398,1
DA:399,1
DA:400,1
DA:401,1
DA:402,1
DA:403,1
DA:405,1
DA:406,1
DA:407,1
DA:410,1
DA:411,1
DA:412,1
DA:413,1
DA:414,1
DA:417,1
DA:418,1
DA:419,1
DA:420,1
DA:421,1
DA:422,1
DA:423,1
DA:424,1
DA:427,1
DA:428,1
DA:429,1
DA:430,1
DA:432,1
DA:433,4
DA:434,4
DA:435,4
DA:436,4
DA:437,4
DA:438,4
DA:439,4
DA:440,1
DA:442,1
DA:443,1
DA:444,1
DA:445,4
DA:446,4
DA:447,1
DA:449,4
DA:450,4
DA:451,4
DA:454,1
DA:455,1
DA:456,1
DA:459,1
DA:460,1
DA:461,1
DA:462,1
DA:464,1
DA:465,4
DA:466,4
DA:467,4
DA:468,4
DA:469,4
DA:470,4
DA:471,4
DA:472,4
DA:473,4
DA:474,4
DA:475,4
DA:476,4
DA:477,4
DA:478,1
DA:480,4
DA:481,4
DA:482,4
DA:486,1
DA:488,1
DA:491,1
DA:492,1
DA:493,1
DA:494,1
DA:497,1
DA:498,1
DA:499,1
DA:500,1
DA:502,1
DA:503,4
DA:504,4
DA:505,4
DA:506,4
DA:507,4
DA:508,4
DA:509,4
DA:510,1
DA:511,1
DA:512,1
DA:513,1
DA:514,4
DA:515,4
DA:516,1
DA:518,4
DA:519,4
DA:520,4
DA:523,1
DA:524,1
DA:525,1
DA:528,1
DA:529,1
DA:530,3
DA:532,1
DA:535,1
DA:536,3
DA:537,3
DA:538,3
DA:539,3
DA:543,1
DA:544,1
DA:545,1
DA:548,1
DA:549,1
DA:550,1
DA:551,1
DA:552,1
DA:555,1
DA:557,1
DA:559,10
DA:560,10
DA:564,1
DA:567,1
DA:568,10
DA:569,1
DA:570,1
DA:571,1
DA:574,1
DA:581,1
DA:582,1
DA:583,1
DA:584,1
DA:585,1
DA:586,1
DA:589,1
DA:590,1
DA:592,1
DA:593,1
DA:594,1
DA:597,1
DA:599,1
DA:601,1
DA:602,1
DA:603,1
DA:604,1
DA:607,1
DA:609,1
DA:611,1
DA:612,1
DA:613,1
DA:614,1
DA:617,1
DA:618,1
DA:619,1
DA:620,1
DA:621,1
DA:623,1
DA:624,1
DA:625,1
DA:626,1
DA:627,1
DA:630,1
DA:631,1
DA:632,1
DA:633,1
DA:634,1
DA:635,1
DA:638,1
DA:639,1
DA:640,1
DA:641,1
DA:642,1
DA:645,1
DA:646,1
DA:647,1
DA:650,1
DA:651,1
DA:652,1
DA:654,1
DA:655,4
DA:656,4
DA:657,4
DA:658,4
DA:659,4
DA:661,4
DA:662,200
DA:663,200
DA:664,200
DA:666,4
DA:667,4
DA:668,4
DA:669,1
DA:671,4
DA:672,4
DA:673,4
DA:675,4
DA:676,200
DA:677,200
DA:680,1
BRF:0
BRH:0
LF:436
LH:425
end_of_record
SF:/home/liu/proj/toy-kv-engine/kv-engine/src/compact.rs
FN:310,_RINvMs1_NtCs9G0t2qE8rAk_9kv_engine7compactNtNtB8_11lsm_storage15LsmStorageInner17compact_from_iterINtNtNtB8_9iterators14merge_iterator13MergeIteratorNtNtB1D_15concat_iterator17SstConcatIteratorEEB8_
FN:310,_RINvMs1_NtCs9G0t2qE8rAk_9kv_engine7compactNtNtB8_11lsm_storage15LsmStorageInner17compact_from_iterINtNtNtB8_9iterators18two_merge_iterator16TwoMergeIteratorINtNtB1D_14merge_iterator13MergeIteratorNtNtNtB8_5table8iterator15SsTableIteratorENtNtB1D_15concat_iterator17SstConcatIteratorEEB8_
FN:310,_RINvMs1_NtCs9G0t2qE8rAk_9kv_engine7compactNtNtB8_11lsm_storage15LsmStorageInner17compact_from_iterINtNtNtB8_9iterators18two_merge_iterator16TwoMergeIteratorNtNtB1D_15concat_iterator17SstConcatIteratorB2u_EEB8_
FN:544,_RINvMs1_NtCs9G0t2qE8rAk_9kv_engine7compactNtNtB8_11lsm_storage15LsmStorageInner18compact_from_itersINtNtNtB8_9iterators14merge_iterator13MergeIteratorNtNtNtB8_5table8iterator15SsTableIteratorENtNtB1E_15concat_iterator17SstConcatIteratorEB8_
FN:544,_RINvMs1_NtCs9G0t2qE8rAk_9kv_engine7compactNtNtB8_11lsm_storage15LsmStorageInner18compact_from_itersNtNtNtB8_9iterators15concat_iterator17SstConcatIteratorB1z_EB8_
FN:86,_RNvNtNtCs9G0t2qE8rAk_9kv_engine7compact5testss_28test_compact_to_bottom_level
FN:134,_RNvNtNtCs9G0t2qE8rAk_9kv_engine7compact5testss_30test_is_upper_level_compaction
FN:207,_RNvNtNtCs9G0t2qE8rAk_9kv_engine7compact5testss_38test_compaction_controller_flush_to_l0
FN:56,_RNvMNtCs9G0t2qE8rAk_9kv_engine7compactNtB2_14CompactionTask23compact_to_bottom_level
FN:68,_RNvMNtCs9G0t2qE8rAk_9kv_engine7compactNtB2_14CompactionTask25is_upper_level_compaction
FN:288,_RNvMs0_NtCs9G0t2qE8rAk_9kv_engine7compactNtB5_20CompactionController11flush_to_l0
FN:235,_RNvMs_NtCs9G0t2qE8rAk_9kv_engine7compactNtB4_20CompactionController23apply_compaction_result
FN:220,_RNvMs_NtCs9G0t2qE8rAk_9kv_engine7compactNtB4_20CompactionController24generate_compaction_task
FN:335,_RNCINvMs1_NtCs9G0t2qE8rAk_9kv_engine7compactNtNtBa_11lsm_storage15LsmStorageInner17compact_from_iterINtNtNtBa_9iterators14merge_iterator13MergeIteratorNtNtB1F_15concat_iterator17SstConcatIteratorEE0Ba_
FN:455,_RNCINvMs1_NtCs9G0t2qE8rAk_9kv_engine7compactNtNtBa_11lsm_storage15LsmStorageInner17compact_from_iterINtNtNtBa_9iterators14merge_iterator13MergeIteratorNtNtB1F_15concat_iterator17SstConcatIteratorEEs0_0Ba_
FN:478,_RNCINvMs1_NtCs9G0t2qE8rAk_9kv_engine7compactNtNtBa_11lsm_storage15LsmStorageInner17compact_from_iterINtNtNtBa_9iterators14merge_iterator13MergeIteratorNtNtB1F_15concat_iterator17SstConcatIteratorEEs1_0Ba_
FN:342,_RNCINvMs1_NtCs9G0t2qE8rAk_9kv_engine7compactNtNtBa_11lsm_storage15LsmStorageInner17compact_from_iterINtNtNtBa_9iterators14merge_iterator13MergeIteratorNtNtB1F_15concat_iterator17SstConcatIteratorEEs_0Ba_
FN:335,_RNCINvMs1_NtCs9G0t2qE8rAk_9kv_engine7compactNtNtBa_11lsm_storage15LsmStorageInner17compact_from_iterINtNtNtBa_9iterators18two_merge_iterator16TwoMergeIteratorINtNtB1F_14merge_iterator13MergeIteratorNtNtNtBa_5table8iterator15SsTableIteratorENtNtB1F_15concat_iterator17SstConcatIteratorEE0Ba_
FN:455,_RNCINvMs1_NtCs9G0t2qE8rAk_9kv_engine7compactNtNtBa_11lsm_storage15LsmStorageInner17compact_from_iterINtNtNtBa_9iterators18two_merge_iterator16TwoMergeIteratorINtNtB1F_14merge_iterator13MergeIteratorNtNtNtBa_5table8iterator15SsTableIteratorENtNtB1F_15concat_iterator17SstConcatIteratorEEs0_0Ba_
FN:478,_RNCINvMs1_NtCs9G0t2qE8rAk_9kv_engine7compactNtNtBa_11lsm_storage15LsmStorageInner17compact_from_iterINtNtNtBa_9iterators18two_merge_iterator16TwoMergeIteratorINtNtB1F_14merge_iterator13MergeIteratorNtNtNtBa_5table8iterator15SsTableIteratorENtNtB1F_15concat_iterator17SstConcatIteratorEEs1_0Ba_
FN:342,_RNCINvMs1_NtCs9G0t2qE8rAk_9kv_engine7compactNtNtBa_11lsm_storage15LsmStorageInner17compact_from_iterINtNtNtBa_9iterators18two_merge_iterator16TwoMergeIteratorINtNtB1F_14merge_iterator13MergeIteratorNtNtNtBa_5table8iterator15SsTableIteratorENtNtB1F_15concat_iterator17SstConcatIteratorEEs_0Ba_
FN:335,_RNCINvMs1_NtCs9G0t2qE8rAk_9kv_engine7compactNtNtBa_11lsm_storage15LsmStorageInner17compact_from_iterINtNtNtBa_9iterators18two_merge_iterator16TwoMergeIteratorNtNtB1F_15concat_iterator17SstConcatIteratorB2w_EE0Ba_
FN:455,_RNCINvMs1_NtCs9G0t2qE8rAk_9kv_engine7compactNtNtBa_11lsm_storage15LsmStorageInner17compact_from_iterINtNtNtBa_9iterators18two_merge_iterator16TwoMergeIteratorNtNtB1F_15concat_iterator17SstConcatIteratorB2w_EEs0_0Ba_
FN:478,_RNCINvMs1_NtCs9G0t2qE8rAk_9kv_engine7compactNtNtBa_11lsm_storage15LsmStorageInner17compact_from_iterINtNtNtBa_9iterators18two_merge_iterator16TwoMergeIteratorNtNtB1F_15concat_iterator17SstConcatIteratorB2w_EEs1_0Ba_
FN:342,_RNCINvMs1_NtCs9G0t2qE8rAk_9kv_engine7compactNtNtBa_11lsm_storage15LsmStorageInner17compact_from_iterINtNtNtBa_9iterators18two_merge_iterator16TwoMergeIteratorNtNtB1F_15concat_iterator17SstConcatIteratorB2w_EEs_0Ba_
FN:646,_RNCNCNvMs1_NtCs9G0t2qE8rAk_9kv_engine7compactNtNtBb_11lsm_storage15LsmStorageInner24collect_merged_fragments00Bb_
FN:267,_RNCNCNvMs_NtCs9G0t2qE8rAk_9kv_engine7compactNtB8_20CompactionController23apply_compaction_results0_00Ba_
FN:268,_RNCNCNvMs_NtCs9G0t2qE8rAk_9kv_engine7compactNtB8_20CompactionController23apply_compaction_results0_0s_0Ba_
FN:1042,_RNCNvMs1_NtCs9G0t2qE8rAk_9kv_engine7compactNtNtB9_11lsm_storage15LsmStorageInner18post_compaction_gc0B9_
FN:1075,_RNCNvMs1_NtCs9G0t2qE8rAk_9kv_engine7compactNtNtB9_11lsm_storage15LsmStorageInner18post_compaction_gcs_0B9_
FN:1362,_RNCNvMs1_NtCs9G0t2qE8rAk_9kv_engine7compactNtNtB9_11lsm_storage15LsmStorageInner18spawn_flush_thread0B9_
FN:1116,_RNCNvMs1_NtCs9G0t2qE8rAk_9kv_engine7compactNtNtB9_11lsm_storage15LsmStorageInner18trigger_compaction0B9_
FN:1150,_RNCNvMs1_NtCs9G0t2qE8rAk_9kv_engine7compactNtNtB9_11lsm_storage15LsmStorageInner18trigger_compactions0_0B9_
FN:1182,_RNCNvMs1_NtCs9G0t2qE8rAk_9kv_engine7compactNtNtB9_11lsm_storage15LsmStorageInner18trigger_compactions1_0B9_
FN:1191,_RNCNvMs1_NtCs9G0t2qE8rAk_9kv_engine7compactNtNtB9_11lsm_storage15LsmStorageInner18trigger_compactions2_0B9_
FN:1212,_RNCNvMs1_NtCs9G0t2qE8rAk_9kv_engine7compactNtNtB9_11lsm_storage15LsmStorageInner18trigger_compactions3_0B9_
FN:1262,_RNCNvMs1_NtCs9G0t2qE8rAk_9kv_engine7compactNtNtB9_11lsm_storage15LsmStorageInner18trigger_compactions4_0B9_
FN:1265,_RNCNvMs1_NtCs9G0t2qE8rAk_9kv_engine7compactNtNtB9_11lsm_storage15LsmStorageInner18trigger_compactions5_0B9_
FN:1118,_RNCNvMs1_NtCs9G0t2qE8rAk_9kv_engine7compactNtNtB9_11lsm_storage15LsmStorageInner18trigger_compactions_0B9_
FN:916,_RNCNvMs1_NtCs9G0t2qE8rAk_9kv_engine7compactNtNtB9_11lsm_storage15LsmStorageInner21force_full_compaction0B9_
FN:951,_RNCNvMs1_NtCs9G0t2qE8rAk_9kv_engine7compactNtNtB9_11lsm_storage15LsmStorageInner21force_full_compactions0_0B9_
FN:961,_RNCNvMs1_NtCs9G0t2qE8rAk_9kv_engine7compactNtNtB9_11lsm_storage15LsmStorageInner21force_full_compactions1_0B9_
FN:967,_RNCNvMs1_NtCs9G0t2qE8rAk_9kv_engine7compactNtNtB9_11lsm_storage15LsmStorageInner21force_full_compactions2_0B9_
FN:972,_RNCNvMs1_NtCs9G0t2qE8rAk_9kv_engine7compactNtNtB9_11lsm_storage15LsmStorageInner21force_full_compactions3_0B9_
FN:981,_RNCNvMs1_NtCs9G0t2qE8rAk_9kv_engine7compactNtNtB9_11lsm_storage15LsmStorageInner21force_full_compactions4_0B9_
FN:987,_RNCNvMs1_NtCs9G0t2qE8rAk_9kv_engine7compactNtNtB9_11lsm_storage15LsmStorageInner21force_full_compactions5_0B9_
FN:944,_RNCNvMs1_NtCs9G0t2qE8rAk_9kv_engine7compactNtNtB9_11lsm_storage15LsmStorageInner21force_full_compactions_0B9_
FN:1331,_RNCNvMs1_NtCs9G0t2qE8rAk_9kv_engine7compactNtNtB9_11lsm_storage15LsmStorageInner23spawn_compaction_thread0B9_
FN:646,_RNCNvMs1_NtCs9G0t2qE8rAk_9kv_engine7compactNtNtB9_11lsm_storage15LsmStorageInner24collect_merged_fragments0B9_
FN:668,_RNCNvMs1_NtCs9G0t2qE8rAk_9kv_engine7compactNtNtB9_11lsm_storage15LsmStorageInner24collect_merged_fragmentss0_0B9_
FN:647,_RNCNvMs1_NtCs9G0t2qE8rAk_9kv_engine7compactNtNtB9_11lsm_storage15LsmStorageInner24collect_merged_fragmentss_0B9_
FN:262,_RNCNvMs_NtCs9G0t2qE8rAk_9kv_engine7compactNtB6_20CompactionController23apply_compaction_result0B8_
FN:266,_RNCNvMs_NtCs9G0t2qE8rAk_9kv_engine7compactNtB6_20CompactionController23apply_compaction_results0_0B8_
FN:264,_RNCNvMs_NtCs9G0t2qE8rAk_9kv_engine7compactNtB6_20CompactionController23apply_compaction_results_0B8_
FN:1348,_RNvMs1_NtCs9G0t2qE8rAk_9kv_engine7compactNtNtB7_11lsm_storage15LsmStorageInner13trigger_flush
FN:562,_RNvMs1_NtCs9G0t2qE8rAk_9kv_engine7compactNtNtB7_11lsm_storage15LsmStorageInner18compact_from_l0_l1
FN:1032,_RNvMs1_NtCs9G0t2qE8rAk_9kv_engine7compactNtNtB7_11lsm_storage15LsmStorageInner18post_compaction_gc
FN:1357,_RNvMs1_NtCs9G0t2qE8rAk_9kv_engine7compactNtNtB7_11lsm_storage15LsmStorageInner18spawn_flush_thread
FN:1108,_RNvMs1_NtCs9G0t2qE8rAk_9kv_engine7compactNtNtB7_11lsm_storage15LsmStorageInner18trigger_compaction
FN:600,_RNvMs1_NtCs9G0t2qE8rAk_9kv_engine7compactNtNtB7_11lsm_storage15LsmStorageInner21build_range_only_ssts
FN:878,_RNvMs1_NtCs9G0t2qE8rAk_9kv_engine7compactNtNtB7_11lsm_storage15LsmStorageInner21force_full_compaction
FN:1322,_RNvMs1_NtCs9G0t2qE8rAk_9kv_engine7compactNtNtB7_11lsm_storage15LsmStorageInner23spawn_compaction_thread
FN:638,_RNvMs1_NtCs9G0t2qE8rAk_9kv_engine7compactNtNtB7_11lsm_storage15LsmStorageInner24collect_merged_fragments
FN:687,_RNvMs1_NtCs9G0t2qE8rAk_9kv_engine7compactNtNtB7_11lsm_storage15LsmStorageInner7compact
FN:56,_RNvMNtCshcgQatfXnqn_9kv_engine7compactNtB2_14CompactionTask23compact_to_bottom_level
FN:68,_RNvMNtCshcgQatfXnqn_9kv_engine7compactNtB2_14CompactionTask25is_upper_level_compaction
FN:288,_RNvMs0_NtCshcgQatfXnqn_9kv_engine7compactNtB5_20CompactionController11flush_to_l0
FN:235,_RNvMs_NtCshcgQatfXnqn_9kv_engine7compactNtB4_20CompactionController23apply_compaction_result
FN:220,_RNvMs_NtCshcgQatfXnqn_9kv_engine7compactNtB4_20CompactionController24generate_compaction_task
FN:1348,_RNvMs1_NtCshcgQatfXnqn_9kv_engine7compactNtNtB7_11lsm_storage15LsmStorageInner13trigger_flush
FN:562,_RNvMs1_NtCshcgQatfXnqn_9kv_engine7compactNtNtB7_11lsm_storage15LsmStorageInner18compact_from_l0_l1
FN:1032,_RNvMs1_NtCshcgQatfXnqn_9kv_engine7compactNtNtB7_11lsm_storage15LsmStorageInner18post_compaction_gc
FN:1357,_RNvMs1_NtCshcgQatfXnqn_9kv_engine7compactNtNtB7_11lsm_storage15LsmStorageInner18spawn_flush_thread
FN:1108,_RNvMs1_NtCshcgQatfXnqn_9kv_engine7compactNtNtB7_11lsm_storage15LsmStorageInner18trigger_compaction
FN:600,_RNvMs1_NtCshcgQatfXnqn_9kv_engine7compactNtNtB7_11lsm_storage15LsmStorageInner21build_range_only_ssts
FN:878,_RNvMs1_NtCshcgQatfXnqn_9kv_engine7compactNtNtB7_11lsm_storage15LsmStorageInner21force_full_compaction
FN:1322,_RNvMs1_NtCshcgQatfXnqn_9kv_engine7compactNtNtB7_11lsm_storage15LsmStorageInner23spawn_compaction_thread
FN:638,_RNvMs1_NtCshcgQatfXnqn_9kv_engine7compactNtNtB7_11lsm_storage15LsmStorageInner24collect_merged_fragments
FN:687,_RNvMs1_NtCshcgQatfXnqn_9kv_engine7compactNtNtB7_11lsm_storage15LsmStorageInner7compact
FN:310,_RINvMs1_NtCshcgQatfXnqn_9kv_engine7compactNtNtB8_11lsm_storage15LsmStorageInner17compact_from_iterINtNtNtB8_9iterators14merge_iterator13MergeIteratorNtNtB1D_15concat_iterator17SstConcatIteratorEEB8_
FN:310,_RINvMs1_NtCshcgQatfXnqn_9kv_engine7compactNtNtB8_11lsm_storage15LsmStorageInner17compact_from_iterINtNtNtB8_9iterators18two_merge_iterator16TwoMergeIteratorINtNtB1D_14merge_iterator13MergeIteratorNtNtNtB8_5table8iterator15SsTableIteratorENtNtB1D_15concat_iterator17SstConcatIteratorEEB8_
FN:310,_RINvMs1_NtCshcgQatfXnqn_9kv_engine7compactNtNtB8_11lsm_storage15LsmStorageInner17compact_from_iterINtNtNtB8_9iterators18two_merge_iterator16TwoMergeIteratorNtNtB1D_15concat_iterator17SstConcatIteratorB2u_EEB8_
FN:544,_RINvMs1_NtCshcgQatfXnqn_9kv_engine7compactNtNtB8_11lsm_storage15LsmStorageInner18compact_from_itersINtNtNtB8_9iterators14merge_iterator13MergeIteratorNtNtNtB8_5table8iterator15SsTableIteratorENtNtB1E_15concat_iterator17SstConcatIteratorEB8_
FN:544,_RINvMs1_NtCshcgQatfXnqn_9kv_engine7compactNtNtB8_11lsm_storage15LsmStorageInner18compact_from_itersNtNtNtB8_9iterators15concat_iterator17SstConcatIteratorB1z_EB8_
FN:335,_RNCINvMs1_NtCshcgQatfXnqn_9kv_engine7compactNtNtBa_11lsm_storage15LsmStorageInner17compact_from_iterINtNtNtBa_9iterators14merge_iterator13MergeIteratorNtNtB1F_15concat_iterator17SstConcatIteratorEE0Ba_
FN:455,_RNCINvMs1_NtCshcgQatfXnqn_9kv_engine7compactNtNtBa_11lsm_storage15LsmStorageInner17compact_from_iterINtNtNtBa_9iterators14merge_iterator13MergeIteratorNtNtB1F_15concat_iterator17SstConcatIteratorEEs0_0Ba_
FN:478,_RNCINvMs1_NtCshcgQatfXnqn_9kv_engine7compactNtNtBa_11lsm_storage15LsmStorageInner17compact_from_iterINtNtNtBa_9iterators14merge_iterator13MergeIteratorNtNtB1F_15concat_iterator17SstConcatIteratorEEs1_0Ba_
FN:342,_RNCINvMs1_NtCshcgQatfXnqn_9kv_engine7compactNtNtBa_11lsm_storage15LsmStorageInner17compact_from_iterINtNtNtBa_9iterators14merge_iterator13MergeIteratorNtNtB1F_15concat_iterator17SstConcatIteratorEEs_0Ba_
FN:335,_RNCINvMs1_NtCshcgQatfXnqn_9kv_engine7compactNtNtBa_11lsm_storage15LsmStorageInner17compact_from_iterINtNtNtBa_9iterators18two_merge_iterator16TwoMergeIteratorINtNtB1F_14merge_iterator13MergeIteratorNtNtNtBa_5table8iterator15SsTableIteratorENtNtB1F_15concat_iterator17SstConcatIteratorEE0Ba_
FN:455,_RNCINvMs1_NtCshcgQatfXnqn_9kv_engine7compactNtNtBa_11lsm_storage15LsmStorageInner17compact_from_iterINtNtNtBa_9iterators18two_merge_iterator16TwoMergeIteratorINtNtB1F_14merge_iterator13MergeIteratorNtNtNtBa_5table8iterator15SsTableIteratorENtNtB1F_15concat_iterator17SstConcatIteratorEEs0_0Ba_
FN:478,_RNCINvMs1_NtCshcgQatfXnqn_9kv_engine7compactNtNtBa_11lsm_storage15LsmStorageInner17compact_from_iterINtNtNtBa_9iterators18two_merge_iterator16TwoMergeIteratorINtNtB1F_14merge_iterator13MergeIteratorNtNtNtBa_5table8iterator15SsTableIteratorENtNtB1F_15concat_iterator17SstConcatIteratorEEs1_0Ba_
FN:342,_RNCINvMs1_NtCshcgQatfXnqn_9kv_engine7compactNtNtBa_11lsm_storage15LsmStorageInner17compact_from_iterINtNtNtBa_9iterators18two_merge_iterator16TwoMergeIteratorINtNtB1F_14merge_iterator13MergeIteratorNtNtNtBa_5table8iterator15SsTableIteratorENtNtB1F_15concat_iterator17SstConcatIteratorEEs_0Ba_
FN:335,_RNCINvMs1_NtCshcgQatfXnqn_9kv_engine7compactNtNtBa_11lsm_storage15LsmStorageInner17compact_from_iterINtNtNtBa_9iterators18two_merge_iterator16TwoMergeIteratorNtNtB1F_15concat_iterator17SstConcatIteratorB2w_EE0Ba_
FN:455,_RNCINvMs1_NtCshcgQatfXnqn_9kv_engine7compactNtNtBa_11lsm_storage15LsmStorageInner17compact_from_iterINtNtNtBa_9iterators18two_merge_iterator16TwoMergeIteratorNtNtB1F_15concat_iterator17SstConcatIteratorB2w_EEs0_0Ba_
FN:478,_RNCINvMs1_NtCshcgQatfXnqn_9kv_engine7compactNtNtBa_11lsm_storage15LsmStorageInner17compact_from_iterINtNtNtBa_9iterators18two_merge_iterator16TwoMergeIteratorNtNtB1F_15concat_iterator17SstConcatIteratorB2w_EEs1_0Ba_
FN:342,_RNCINvMs1_NtCshcgQatfXnqn_9kv_engine7compactNtNtBa_11lsm_storage15LsmStorageInner17compact_from_iterINtNtNtBa_9iterators18two_merge_iterator16TwoMergeIteratorNtNtB1F_15concat_iterator17SstConcatIteratorB2w_EEs_0Ba_
FN:646,_RNCNCNvMs1_NtCshcgQatfXnqn_9kv_engine7compactNtNtBb_11lsm_storage15LsmStorageInner24collect_merged_fragments00Bb_
FN:267,_RNCNCNvMs_NtCshcgQatfXnqn_9kv_engine7compactNtB8_20CompactionController23apply_compaction_results0_00Ba_
FN:268,_RNCNCNvMs_NtCshcgQatfXnqn_9kv_engine7compactNtB8_20CompactionController23apply_compaction_results0_0s_0Ba_
FN:1042,_RNCNvMs1_NtCshcgQatfXnqn_9kv_engine7compactNtNtB9_11lsm_storage15LsmStorageInner18post_compaction_gc0B9_
FN:1075,_RNCNvMs1_NtCshcgQatfXnqn_9kv_engine7compactNtNtB9_11lsm_storage15LsmStorageInner18post_compaction_gcs_0B9_
FN:1362,_RNCNvMs1_NtCshcgQatfXnqn_9kv_engine7compactNtNtB9_11lsm_storage15LsmStorageInner18spawn_flush_thread0B9_
FN:1116,_RNCNvMs1_NtCshcgQatfXnqn_9kv_engine7compactNtNtB9_11lsm_storage15LsmStorageInner18trigger_compaction0B9_
FN:1150,_RNCNvMs1_NtCshcgQatfXnqn_9kv_engine7compactNtNtB9_11lsm_storage15LsmStorageInner18trigger_compactions0_0B9_
FN:1182,_RNCNvMs1_NtCshcgQatfXnqn_9kv_engine7compactNtNtB9_11lsm_storage15LsmStorageInner18trigger_compactions1_0B9_
FN:1191,_RNCNvMs1_NtCshcgQatfXnqn_9kv_engine7compactNtNtB9_11lsm_storage15LsmStorageInner18trigger_compactions2_0B9_
FN:1212,_RNCNvMs1_NtCshcgQatfXnqn_9kv_engine7compactNtNtB9_11lsm_storage15LsmStorageInner18trigger_compactions3_0B9_
FN:1262,_RNCNvMs1_NtCshcgQatfXnqn_9kv_engine7compactNtNtB9_11lsm_storage15LsmStorageInner18trigger_compactions4_0B9_
FN:1265,_RNCNvMs1_NtCshcgQatfXnqn_9kv_engine7compactNtNtB9_11lsm_storage15LsmStorageInner18trigger_compactions5_0B9_
FN:1118,_RNCNvMs1_NtCshcgQatfXnqn_9kv_engine7compactNtNtB9_11lsm_storage15LsmStorageInner18trigger_compactions_0B9_
FN:916,_RNCNvMs1_NtCshcgQatfXnqn_9kv_engine7compactNtNtB9_11lsm_storage15LsmStorageInner21force_full_compaction0B9_
FN:951,_RNCNvMs1_NtCshcgQatfXnqn_9kv_engine7compactNtNtB9_11lsm_storage15LsmStorageInner21force_full_compactions0_0B9_
FN:961,_RNCNvMs1_NtCshcgQatfXnqn_9kv_engine7compactNtNtB9_11lsm_storage15LsmStorageInner21force_full_compactions1_0B9_
FN:967,_RNCNvMs1_NtCshcgQatfXnqn_9kv_engine7compactNtNtB9_11lsm_storage15LsmStorageInner21force_full_compactions2_0B9_
FN:972,_RNCNvMs1_NtCshcgQatfXnqn_9kv_engine7compactNtNtB9_11lsm_storage15LsmStorageInner21force_full_compactions3_0B9_
FN:981,_RNCNvMs1_NtCshcgQatfXnqn_9kv_engine7compactNtNtB9_11lsm_storage15LsmStorageInner21force_full_compactions4_0B9_
FN:987,_RNCNvMs1_NtCshcgQatfXnqn_9kv_engine7compactNtNtB9_11lsm_storage15LsmStorageInner21force_full_compactions5_0B9_
FN:944,_RNCNvMs1_NtCshcgQatfXnqn_9kv_engine7compactNtNtB9_11lsm_storage15LsmStorageInner21force_full_compactions_0B9_
FN:1331,_RNCNvMs1_NtCshcgQatfXnqn_9kv_engine7compactNtNtB9_11lsm_storage15LsmStorageInner23spawn_compaction_thread0B9_
FN:646,_RNCNvMs1_NtCshcgQatfXnqn_9kv_engine7compactNtNtB9_11lsm_storage15LsmStorageInner24collect_merged_fragments0B9_
FN:668,_RNCNvMs1_NtCshcgQatfXnqn_9kv_engine7compactNtNtB9_11lsm_storage15LsmStorageInner24collect_merged_fragmentss0_0B9_
FN:647,_RNCNvMs1_NtCshcgQatfXnqn_9kv_engine7compactNtNtB9_11lsm_storage15LsmStorageInner24collect_merged_fragmentss_0B9_
FN:262,_RNCNvMs_NtCshcgQatfXnqn_9kv_engine7compactNtB6_20CompactionController23apply_compaction_result0B8_
FN:266,_RNCNvMs_NtCshcgQatfXnqn_9kv_engine7compactNtB6_20CompactionController23apply_compaction_results0_0B8_
FN:264,_RNCNvMs_NtCshcgQatfXnqn_9kv_engine7compactNtB6_20CompactionController23apply_compaction_results_0B8_
FNDA:0,_RINvMs1_NtCs9G0t2qE8rAk_9kv_engine7compactNtNtB8_11lsm_storage15LsmStorageInner17compact_from_iterINtNtNtB8_9iterators14merge_iterator13MergeIteratorNtNtB1D_15concat_iterator17SstConcatIteratorEEB8_
FNDA:43,_RINvMs1_NtCs9G0t2qE8rAk_9kv_engine7compactNtNtB8_11lsm_storage15LsmStorageInner17compact_from_iterINtNtNtB8_9iterators18two_merge_iterator16TwoMergeIteratorINtNtB1D_14merge_iterator13MergeIteratorNtNtNtB8_5table8iterator15SsTableIteratorENtNtB1D_15concat_iterator17SstConcatIteratorEEB8_
FNDA:3,_RINvMs1_NtCs9G0t2qE8rAk_9kv_engine7compactNtNtB8_11lsm_storage15LsmStorageInner17compact_from_iterINtNtNtB8_9iterators18two_merge_iterator16TwoMergeIteratorNtNtB1D_15concat_iterator17SstConcatIteratorB2u_EEB8_
FNDA:43,_RINvMs1_NtCs9G0t2qE8rAk_9kv_engine7compactNtNtB8_11lsm_storage15LsmStorageInner18compact_from_itersINtNtNtB8_9iterators14merge_iterator13MergeIteratorNtNtNtB8_5table8iterator15SsTableIteratorENtNtB1E_15concat_iterator17SstConcatIteratorEB8_
FNDA:3,_RINvMs1_NtCs9G0t2qE8rAk_9kv_engine7compactNtNtB8_11lsm_storage15LsmStorageInner18compact_from_itersNtNtNtB8_9iterators15concat_iterator17SstConcatIteratorB1z_EB8_
FNDA:1,_RNvNtNtCs9G0t2qE8rAk_9kv_engine7compact5testss_28test_compact_to_bottom_level
FNDA:1,_RNvNtNtCs9G0t2qE8rAk_9kv_engine7compact5testss_30test_is_upper_level_compaction
FNDA:1,_RNvNtNtCs9G0t2qE8rAk_9kv_engine7compact5testss_38test_compaction_controller_flush_to_l0
FNDA:52,_RNvMNtCs9G0t2qE8rAk_9kv_engine7compactNtB2_14CompactionTask23compact_to_bottom_level
FNDA:54,_RNvMNtCs9G0t2qE8rAk_9kv_engine7compactNtB2_14CompactionTask25is_upper_level_compaction
FNDA:213,_RNvMs0_NtCs9G0t2qE8rAk_9kv_engine7compactNtB5_20CompactionController11flush_to_l0
FNDA:12,_RNvMs_NtCs9G0t2qE8rAk_9kv_engine7compactNtB4_20CompactionController23apply_compaction_result
FNDA:17,_RNvMs_NtCs9G0t2qE8rAk_9kv_engine7compactNtB4_20CompactionController24generate_compaction_task
FNDA:0,_RNCINvMs1_NtCs9G0t2qE8rAk_9kv_engine7compactNtNtBa_11lsm_storage15LsmStorageInner17compact_from_iterINtNtNtBa_9iterators14merge_iterator13MergeIteratorNtNtB1F_15concat_iterator17SstConcatIteratorEE0Ba_
FNDA:0,_RNCINvMs1_NtCs9G0t2qE8rAk_9kv_engine7compactNtNtBa_11lsm_storage15LsmStorageInner17compact_from_iterINtNtNtBa_9iterators14merge_iterator13MergeIteratorNtNtB1F_15concat_iterator17SstConcatIteratorEEs0_0Ba_
FNDA:0,_RNCINvMs1_NtCs9G0t2qE8rAk_9kv_engine7compactNtNtBa_11lsm_storage15LsmStorageInner17compact_from_iterINtNtNtBa_9iterators14merge_iterator13MergeIteratorNtNtB1F_15concat_iterator17SstConcatIteratorEEs1_0Ba_
FNDA:0,_RNCINvMs1_NtCs9G0t2qE8rAk_9kv_engine7compactNtNtBa_11lsm_storage15LsmStorageInner17compact_from_iterINtNtNtBa_9iterators14merge_iterator13MergeIteratorNtNtB1F_15concat_iterator17SstConcatIteratorEEs_0Ba_
FNDA:43,_RNCINvMs1_NtCs9G0t2qE8rAk_9kv_engine7compactNtNtBa_11lsm_storage15LsmStorageInner17compact_from_iterINtNtNtBa_9iterators18two_merge_iterator16TwoMergeIteratorINtNtB1F_14merge_iterator13MergeIteratorNtNtNtBa_5table8iterator15SsTableIteratorENtNtB1F_15concat_iterator17SstConcatIteratorEE0Ba_
FNDA:9,_RNCINvMs1_NtCs9G0t2qE8rAk_9kv_engine7compactNtNtBa_11lsm_storage15LsmStorageInner17compact_from_iterINtNtNtBa_9iterators18two_merge_iterator16TwoMergeIteratorINtNtB1F_14merge_iterator13MergeIteratorNtNtNtBa_5table8iterator15SsTableIteratorENtNtB1F_15concat_iterator17SstConcatIteratorEEs0_0Ba_
FNDA:10,_RNCINvMs1_NtCs9G0t2qE8rAk_9kv_engine7compactNtNtBa_11lsm_storage15LsmStorageInner17compact_from_iterINtNtNtBa_9iterators18two_merge_iterator16TwoMergeIteratorINtNtB1F_14merge_iterator13MergeIteratorNtNtNtBa_5table8iterator15SsTableIteratorENtNtB1F_15concat_iterator17SstConcatIteratorEEs1_0Ba_
FNDA:5,_RNCINvMs1_NtCs9G0t2qE8rAk_9kv_engine7compactNtNtBa_11lsm_storage15LsmStorageInner17compact_from_iterINtNtNtBa_9iterators18two_merge_iterator16TwoMergeIteratorINtNtB1F_14merge_iterator13MergeIteratorNtNtNtBa_5table8iterator15SsTableIteratorENtNtB1F_15concat_iterator17SstConcatIteratorEEs_0Ba_
FNDA:3,_RNCINvMs1_NtCs9G0t2qE8rAk_9kv_engine7compactNtNtBa_11lsm_storage15LsmStorageInner17compact_from_iterINtNtNtBa_9iterators18two_merge_iterator16TwoMergeIteratorNtNtB1F_15concat_iterator17SstConcatIteratorB2w_EE0Ba_
FNDA:0,_RNCINvMs1_NtCs9G0t2qE8rAk_9kv_engine7compactNtNtBa_11lsm_storage15LsmStorageInner17compact_from_iterINtNtNtBa_9iterators18two_merge_iterator16TwoMergeIteratorNtNtB1F_15concat_iterator17SstConcatIteratorB2w_EEs0_0Ba_
FNDA:0,_RNCINvMs1_NtCs9G0t2qE8rAk_9kv_engine7compactNtNtBa_11lsm_storage15LsmStorageInner17compact_from_iterINtNtNtBa_9iterators18two_merge_iterator16TwoMergeIteratorNtNtB1F_15concat_iterator17SstConcatIteratorB2w_EEs1_0Ba_
FNDA:0,_RNCINvMs1_NtCs9G0t2qE8rAk_9kv_engine7compactNtNtBa_11lsm_storage15LsmStorageInner17compact_from_iterINtNtNtBa_9iterators18two_merge_iterator16TwoMergeIteratorNtNtB1F_15concat_iterator17SstConcatIteratorB2w_EEs_0Ba_
FNDA:35,_RNCNCNvMs1_NtCs9G0t2qE8rAk_9kv_engine7compactNtNtBb_11lsm_storage15LsmStorageInner24collect_merged_fragments00Bb_
FNDA:0,_RNCNCNvMs_NtCs9G0t2qE8rAk_9kv_engine7compactNtB8_20CompactionController23apply_compaction_results0_00Ba_
FNDA:0,_RNCNCNvMs_NtCs9G0t2qE8rAk_9kv_engine7compactNtB8_20CompactionController23apply_compaction_results0_0s_0Ba_
FNDA:13,_RNCNvMs1_NtCs9G0t2qE8rAk_9kv_engine7compactNtNtB9_11lsm_storage15LsmStorageInner18post_compaction_gc0B9_
FNDA:0,_RNCNvMs1_NtCs9G0t2qE8rAk_9kv_engine7compactNtNtB9_11lsm_storage15LsmStorageInner18post_compaction_gcs_0B9_
FNDA:182,_RNCNvMs1_NtCs9G0t2qE8rAk_9kv_engine7compactNtNtB9_11lsm_storage15LsmStorageInner18spawn_flush_thread0B9_
FNDA:11,_RNCNvMs1_NtCs9G0t2qE8rAk_9kv_engine7compactNtNtB9_11lsm_storage15LsmStorageInner18trigger_compaction0B9_
FNDA:0,_RNCNvMs1_NtCs9G0t2qE8rAk_9kv_engine7compactNtNtB9_11lsm_storage15LsmStorageInner18trigger_compactions0_0B9_
FNDA:14,_RNCNvMs1_NtCs9G0t2qE8rAk_9kv_engine7compactNtNtB9_11lsm_storage15LsmStorageInner18trigger_compactions1_0B9_
FNDA:0,_RNCNvMs1_NtCs9G0t2qE8rAk_9kv_engine7compactNtNtB9_11lsm_storage15LsmStorageInner18trigger_compactions2_0B9_
FNDA:0,_RNCNvMs1_NtCs9G0t2qE8rAk_9kv_engine7compactNtNtB9_11lsm_storage15LsmStorageInner18trigger_compactions3_0B9_
FNDA:14,_RNCNvMs1_NtCs9G0t2qE8rAk_9kv_engine7compactNtNtB9_11lsm_storage15LsmStorageInner18trigger_compactions4_0B9_
FNDA:0,_RNCNvMs1_NtCs9G0t2qE8rAk_9kv_engine7compactNtNtB9_11lsm_storage15LsmStorageInner18trigger_compactions5_0B9_
FNDA:0,_RNCNvMs1_NtCs9G0t2qE8rAk_9kv_engine7compactNtNtB9_11lsm_storage15LsmStorageInner18trigger_compactions_0B9_
FNDA:4,_RNCNvMs1_NtCs9G0t2qE8rAk_9kv_engine7compactNtNtB9_11lsm_storage15LsmStorageInner21force_full_compaction0B9_
FNDA:35,_RNCNvMs1_NtCs9G0t2qE8rAk_9kv_engine7compactNtNtB9_11lsm_storage15LsmStorageInner21force_full_compactions0_0B9_
FNDA:31,_RNCNvMs1_NtCs9G0t2qE8rAk_9kv_engine7compactNtNtB9_11lsm_storage15LsmStorageInner21force_full_compactions1_0B9_
FNDA:5,_RNCNvMs1_NtCs9G0t2qE8rAk_9kv_engine7compactNtNtB9_11lsm_storage15LsmStorageInner21force_full_compactions2_0B9_
FNDA:4,_RNCNvMs1_NtCs9G0t2qE8rAk_9kv_engine7compactNtNtB9_11lsm_storage15LsmStorageInner21force_full_compactions3_0B9_
FNDA:76,_RNCNvMs1_NtCs9G0t2qE8rAk_9kv_engine7compactNtNtB9_11lsm_storage15LsmStorageInner21force_full_compactions4_0B9_
FNDA:5,_RNCNvMs1_NtCs9G0t2qE8rAk_9kv_engine7compactNtNtB9_11lsm_storage15LsmStorageInner21force_full_compactions5_0B9_
FNDA:78,_RNCNvMs1_NtCs9G0t2qE8rAk_9kv_engine7compactNtNtB9_11lsm_storage15LsmStorageInner21force_full_compactions_0B9_
FNDA:21,_RNCNvMs1_NtCs9G0t2qE8rAk_9kv_engine7compactNtNtB9_11lsm_storage15LsmStorageInner23spawn_compaction_thread0B9_
FNDA:35,_RNCNvMs1_NtCs9G0t2qE8rAk_9kv_engine7compactNtNtB9_11lsm_storage15LsmStorageInner24collect_merged_fragments0B9_
FNDA:35,_RNCNvMs1_NtCs9G0t2qE8rAk_9kv_engine7compactNtNtB9_11lsm_storage15LsmStorageInner24collect_merged_fragmentss0_0B9_
FNDA:35,_RNCNvMs1_NtCs9G0t2qE8rAk_9kv_engine7compactNtNtB9_11lsm_storage15LsmStorageInner24collect_merged_fragmentss_0B9_
FNDA:1,_RNCNvMs_NtCs9G0t2qE8rAk_9kv_engine7compactNtB6_20CompactionController23apply_compaction_result0B8_
FNDA:0,_RNCNvMs_NtCs9G0t2qE8rAk_9kv_engine7compactNtB6_20CompactionController23apply_compaction_results0_0B8_
FNDA:0,_RNCNvMs_NtCs9G0t2qE8rAk_9kv_engine7compactNtB6_20CompactionController23apply_compaction_results_0B8_
FNDA:75,_RNvMs1_NtCs9G0t2qE8rAk_9kv_engine7compactNtNtB7_11lsm_storage15LsmStorageInner13trigger_flush
FNDA:43,_RNvMs1_NtCs9G0t2qE8rAk_9kv_engine7compactNtNtB7_11lsm_storage15LsmStorageInner18compact_from_l0_l1
FNDA:13,_RNvMs1_NtCs9G0t2qE8rAk_9kv_engine7compactNtNtB7_11lsm_storage15LsmStorageInner18post_compaction_gc
FNDA:182,_RNvMs1_NtCs9G0t2qE8rAk_9kv_engine7compactNtNtB7_11lsm_storage15LsmStorageInner18spawn_flush_thread
FNDA:17,_RNvMs1_NtCs9G0t2qE8rAk_9kv_engine7compactNtNtB7_11lsm_storage15LsmStorageInner18trigger_compaction
FNDA:4,_RNvMs1_NtCs9G0t2qE8rAk_9kv_engine7compactNtNtB7_11lsm_storage15LsmStorageInner21build_range_only_ssts
FNDA:35,_RNvMs1_NtCs9G0t2qE8rAk_9kv_engine7compactNtNtB7_11lsm_storage15LsmStorageInner21force_full_compaction
FNDA:182,_RNvMs1_NtCs9G0t2qE8rAk_9kv_engine7compactNtNtB7_11lsm_storage15LsmStorageInner23spawn_compaction_thread
FNDA:46,_RNvMs1_NtCs9G0t2qE8rAk_9kv_engine7compactNtNtB7_11lsm_storage15LsmStorageInner24collect_merged_fragments
FNDA:46,_RNvMs1_NtCs9G0t2qE8rAk_9kv_engine7compactNtNtB7_11lsm_storage15LsmStorageInner7compact
FNDA:0,_RNvMNtCshcgQatfXnqn_9kv_engine7compactNtB2_14CompactionTask23compact_to_bottom_level
FNDA:0,_RNvMNtCshcgQatfXnqn_9kv_engine7compactNtB2_14CompactionTask25is_upper_level_compaction
FNDA:0,_RNvMs0_NtCshcgQatfXnqn_9kv_engine7compactNtB5_20CompactionController11flush_to_l0
FNDA:0,_RNvMs_NtCshcgQatfXnqn_9kv_engine7compactNtB4_20CompactionController23apply_compaction_result
FNDA:0,_RNvMs_NtCshcgQatfXnqn_9kv_engine7compactNtB4_20CompactionController24generate_compaction_task
FNDA:0,_RNvMs1_NtCshcgQatfXnqn_9kv_engine7compactNtNtB7_11lsm_storage15LsmStorageInner13trigger_flush
FNDA:0,_RNvMs1_NtCshcgQatfXnqn_9kv_engine7compactNtNtB7_11lsm_storage15LsmStorageInner18compact_from_l0_l1
FNDA:0,_RNvMs1_NtCshcgQatfXnqn_9kv_engine7compactNtNtB7_11lsm_storage15LsmStorageInner18post_compaction_gc
FNDA:0,_RNvMs1_NtCshcgQatfXnqn_9kv_engine7compactNtNtB7_11lsm_storage15LsmStorageInner18spawn_flush_thread
FNDA:0,_RNvMs1_NtCshcgQatfXnqn_9kv_engine7compactNtNtB7_11lsm_storage15LsmStorageInner18trigger_compaction
FNDA:0,_RNvMs1_NtCshcgQatfXnqn_9kv_engine7compactNtNtB7_11lsm_storage15LsmStorageInner21build_range_only_ssts
FNDA:0,_RNvMs1_NtCshcgQatfXnqn_9kv_engine7compactNtNtB7_11lsm_storage15LsmStorageInner21force_full_compaction
FNDA:0,_RNvMs1_NtCshcgQatfXnqn_9kv_engine7compactNtNtB7_11lsm_storage15LsmStorageInner23spawn_compaction_thread
FNDA:0,_RNvMs1_NtCshcgQatfXnqn_9kv_engine7compactNtNtB7_11lsm_storage15LsmStorageInner24collect_merged_fragments
FNDA:0,_RNvMs1_NtCshcgQatfXnqn_9kv_engine7compactNtNtB7_11lsm_storage15LsmStorageInner7compact
FNDA:0,_RINvMs1_NtCshcgQatfXnqn_9kv_engine7compactNtNtB8_11lsm_storage15LsmStorageInner17compact_from_iterINtNtNtB8_9iterators14merge_iterator13MergeIteratorNtNtB1D_15concat_iterator17SstConcatIteratorEEB8_
FNDA:0,_RINvMs1_NtCshcgQatfXnqn_9kv_engine7compactNtNtB8_11lsm_storage15LsmStorageInner17compact_from_iterINtNtNtB8_9iterators18two_merge_iterator16TwoMergeIteratorINtNtB1D_14merge_iterator13MergeIteratorNtNtNtB8_5table8iterator15SsTableIteratorENtNtB1D_15concat_iterator17SstConcatIteratorEEB8_
FNDA:0,_RINvMs1_NtCshcgQatfXnqn_9kv_engine7compactNtNtB8_11lsm_storage15LsmStorageInner17compact_from_iterINtNtNtB8_9iterators18two_merge_iterator16TwoMergeIteratorNtNtB1D_15concat_iterator17SstConcatIteratorB2u_EEB8_
FNDA:0,_RINvMs1_NtCshcgQatfXnqn_9kv_engine7compactNtNtB8_11lsm_storage15LsmStorageInner18compact_from_itersINtNtNtB8_9iterators14merge_iterator13MergeIteratorNtNtNtB8_5table8iterator15SsTableIteratorENtNtB1E_15concat_iterator17SstConcatIteratorEB8_
FNDA:0,_RINvMs1_NtCshcgQatfXnqn_9kv_engine7compactNtNtB8_11lsm_storage15LsmStorageInner18compact_from_itersNtNtNtB8_9iterators15concat_iterator17SstConcatIteratorB1z_EB8_
FNDA:0,_RNCINvMs1_NtCshcgQatfXnqn_9kv_engine7compactNtNtBa_11lsm_storage15LsmStorageInner17compact_from_iterINtNtNtBa_9iterators14merge_iterator13MergeIteratorNtNtB1F_15concat_iterator17SstConcatIteratorEE0Ba_
FNDA:0,_RNCINvMs1_NtCshcgQatfXnqn_9kv_engine7compactNtNtBa_11lsm_storage15LsmStorageInner17compact_from_iterINtNtNtBa_9iterators14merge_iterator13MergeIteratorNtNtB1F_15concat_iterator17SstConcatIteratorEEs0_0Ba_
FNDA:0,_RNCINvMs1_NtCshcgQatfXnqn_9kv_engine7compactNtNtBa_11lsm_storage15LsmStorageInner17compact_from_iterINtNtNtBa_9iterators14merge_iterator13MergeIteratorNtNtB1F_15concat_iterator17SstConcatIteratorEEs1_0Ba_
FNDA:0,_RNCINvMs1_NtCshcgQatfXnqn_9kv_engine7compactNtNtBa_11lsm_storage15LsmStorageInner17compact_from_iterINtNtNtBa_9iterators14merge_iterator13MergeIteratorNtNtB1F_15concat_iterator17SstConcatIteratorEEs_0Ba_
FNDA:0,_RNCINvMs1_NtCshcgQatfXnqn_9kv_engine7compactNtNtBa_11lsm_storage15LsmStorageInner17compact_from_iterINtNtNtBa_9iterators18two_merge_iterator16TwoMergeIteratorINtNtB1F_14merge_iterator13MergeIteratorNtNtNtBa_5table8iterator15SsTableIteratorENtNtB1F_15concat_iterator17SstConcatIteratorEE0Ba_
FNDA:0,_RNCINvMs1_NtCshcgQatfXnqn_9kv_engine7compactNtNtBa_11lsm_storage15LsmStorageInner17compact_from_iterINtNtNtBa_9iterators18two_merge_iterator16TwoMergeIteratorINtNtB1F_14merge_iterator13MergeIteratorNtNtNtBa_5table8iterator15SsTableIteratorENtNtB1F_15concat_iterator17SstConcatIteratorEEs0_0Ba_
FNDA:0,_RNCINvMs1_NtCshcgQatfXnqn_9kv_engine7compactNtNtBa_11lsm_storage15LsmStorageInner17compact_from_iterINtNtNtBa_9iterators18two_merge_iterator16TwoMergeIteratorINtNtB1F_14merge_iterator13MergeIteratorNtNtNtBa_5table8iterator15SsTableIteratorENtNtB1F_15concat_iterator17SstConcatIteratorEEs1_0Ba_
FNDA:0,_RNCINvMs1_NtCshcgQatfXnqn_9kv_engine7compactNtNtBa_11lsm_storage15LsmStorageInner17compact_from_iterINtNtNtBa_9iterators18two_merge_iterator16TwoMergeIteratorINtNtB1F_14merge_iterator13MergeIteratorNtNtNtBa_5table8iterator15SsTableIteratorENtNtB1F_15concat_iterator17SstConcatIteratorEEs_0Ba_
FNDA:0,_RNCINvMs1_NtCshcgQatfXnqn_9kv_engine7compactNtNtBa_11lsm_storage15LsmStorageInner17compact_from_iterINtNtNtBa_9iterators18two_merge_iterator16TwoMergeIteratorNtNtB1F_15concat_iterator17SstConcatIteratorB2w_EE0Ba_
FNDA:0,_RNCINvMs1_NtCshcgQatfXnqn_9kv_engine7compactNtNtBa_11lsm_storage15LsmStorageInner17compact_from_iterINtNtNtBa_9iterators18two_merge_iterator16TwoMergeIteratorNtNtB1F_15concat_iterator17SstConcatIteratorB2w_EEs0_0Ba_
FNDA:0,_RNCINvMs1_NtCshcgQatfXnqn_9kv_engine7compactNtNtBa_11lsm_storage15LsmStorageInner17compact_from_iterINtNtNtBa_9iterators18two_merge_iterator16TwoMergeIteratorNtNtB1F_15concat_iterator17SstConcatIteratorB2w_EEs1_0Ba_
FNDA:0,_RNCINvMs1_NtCshcgQatfXnqn_9kv_engine7compactNtNtBa_11lsm_storage15LsmStorageInner17compact_from_iterINtNtNtBa_9iterators18two_merge_iterator16TwoMergeIteratorNtNtB1F_15concat_iterator17SstConcatIteratorB2w_EEs_0Ba_
FNDA:0,_RNCNCNvMs1_NtCshcgQatfXnqn_9kv_engine7compactNtNtBb_11lsm_storage15LsmStorageInner24collect_merged_fragments00Bb_
FNDA:0,_RNCNCNvMs_NtCshcgQatfXnqn_9kv_engine7compactNtB8_20CompactionController23apply_compaction_results0_00Ba_
FNDA:0,_RNCNCNvMs_NtCshcgQatfXnqn_9kv_engine7compactNtB8_20CompactionController23apply_compaction_results0_0s_0Ba_
FNDA:0,_RNCNvMs1_NtCshcgQatfXnqn_9kv_engine7compactNtNtB9_11lsm_storage15LsmStorageInner18post_compaction_gc0B9_
FNDA:0,_RNCNvMs1_NtCshcgQatfXnqn_9kv_engine7compactNtNtB9_11lsm_storage15LsmStorageInner18post_compaction_gcs_0B9_
FNDA:0,_RNCNvMs1_NtCshcgQatfXnqn_9kv_engine7compactNtNtB9_11lsm_storage15LsmStorageInner18spawn_flush_thread0B9_
FNDA:0,_RNCNvMs1_NtCshcgQatfXnqn_9kv_engine7compactNtNtB9_11lsm_storage15LsmStorageInner18trigger_compaction0B9_
FNDA:0,_RNCNvMs1_NtCshcgQatfXnqn_9kv_engine7compactNtNtB9_11lsm_storage15LsmStorageInner18trigger_compactions0_0B9_
FNDA:0,_RNCNvMs1_NtCshcgQatfXnqn_9kv_engine7compactNtNtB9_11lsm_storage15LsmStorageInner18trigger_compactions1_0B9_
FNDA:0,_RNCNvMs1_NtCshcgQatfXnqn_9kv_engine7compactNtNtB9_11lsm_storage15LsmStorageInner18trigger_compactions2_0B9_
FNDA:0,_RNCNvMs1_NtCshcgQatfXnqn_9kv_engine7compactNtNtB9_11lsm_storage15LsmStorageInner18trigger_compactions3_0B9_
FNDA:0,_RNCNvMs1_NtCshcgQatfXnqn_9kv_engine7compactNtNtB9_11lsm_storage15LsmStorageInner18trigger_compactions4_0B9_
FNDA:0,_RNCNvMs1_NtCshcgQatfXnqn_9kv_engine7compactNtNtB9_11lsm_storage15LsmStorageInner18trigger_compactions5_0B9_
FNDA:0,_RNCNvMs1_NtCshcgQatfXnqn_9kv_engine7compactNtNtB9_11lsm_storage15LsmStorageInner18trigger_compactions_0B9_
FNDA:0,_RNCNvMs1_NtCshcgQatfXnqn_9kv_engine7compactNtNtB9_11lsm_storage15LsmStorageInner21force_full_compaction0B9_
FNDA:0,_RNCNvMs1_NtCshcgQatfXnqn_9kv_engine7compactNtNtB9_11lsm_storage15LsmStorageInner21force_full_compactions0_0B9_
FNDA:0,_RNCNvMs1_NtCshcgQatfXnqn_9kv_engine7compactNtNtB9_11lsm_storage15LsmStorageInner21force_full_compactions1_0B9_
FNDA:0,_RNCNvMs1_NtCshcgQatfXnqn_9kv_engine7compactNtNtB9_11lsm_storage15LsmStorageInner21force_full_compactions2_0B9_
FNDA:0,_RNCNvMs1_NtCshcgQatfXnqn_9kv_engine7compactNtNtB9_11lsm_storage15LsmStorageInner21force_full_compactions3_0B9_
FNDA:0,_RNCNvMs1_NtCshcgQatfXnqn_9kv_engine7compactNtNtB9_11lsm_storage15LsmStorageInner21force_full_compactions4_0B9_
FNDA:0,_RNCNvMs1_NtCshcgQatfXnqn_9kv_engine7compactNtNtB9_11lsm_storage15LsmStorageInner21force_full_compactions5_0B9_
FNDA:0,_RNCNvMs1_NtCshcgQatfXnqn_9kv_engine7compactNtNtB9_11lsm_storage15LsmStorageInner21force_full_compactions_0B9_
FNDA:0,_RNCNvMs1_NtCshcgQatfXnqn_9kv_engine7compactNtNtB9_11lsm_storage15LsmStorageInner23spawn_compaction_thread0B9_
FNDA:0,_RNCNvMs1_NtCshcgQatfXnqn_9kv_engine7compactNtNtB9_11lsm_storage15LsmStorageInner24collect_merged_fragments0B9_
FNDA:0,_RNCNvMs1_NtCshcgQatfXnqn_9kv_engine7compactNtNtB9_11lsm_storage15LsmStorageInner24collect_merged_fragmentss0_0B9_
FNDA:0,_RNCNvMs1_NtCshcgQatfXnqn_9kv_engine7compactNtNtB9_11lsm_storage15LsmStorageInner24collect_merged_fragmentss_0B9_
FNDA:0,_RNCNvMs_NtCshcgQatfXnqn_9kv_engine7compactNtB6_20CompactionController23apply_compaction_result0B8_
FNDA:0,_RNCNvMs_NtCshcgQatfXnqn_9kv_engine7compactNtB6_20CompactionController23apply_compaction_results0_0B8_
FNDA:0,_RNCNvMs_NtCshcgQatfXnqn_9kv_engine7compactNtB6_20CompactionController23apply_compaction_results_0B8_
FNF:53
FNH:43
DA:56,52
DA:57,52
DA:58,36
DA:59,13
DA:60,1
DA:61,2
DA:63,52
DA:68,54
DA:69,54
DA:70,36
DA:71,14
DA:72,2
DA:76,2
DA:78,54
DA:86,1
DA:87,1
DA:88,1
DA:89,1
DA:90,1
DA:91,1
DA:93,1
DA:94,1
DA:95,1
DA:96,1
DA:97,1
DA:98,1
DA:99,1
DA:100,1
DA:102,1
DA:103,1
DA:104,1
DA:105,1
DA:106,1
DA:107,1
DA:108,1
DA:109,1
DA:111,1
DA:112,1
DA:113,1
DA:114,1
DA:115,1
DA:116,1
DA:117,1
DA:118,1
DA:120,1
DA:121,1
DA:122,1
DA:123,1
DA:124,1
DA:126,1
DA:127,1
DA:128,1
DA:129,1
DA:130,1
DA:131,1
DA:134,1
DA:135,1
DA:136,1
DA:137,1
DA:138,1
DA:139,1
DA:142,1
DA:143,1
DA:144,1
DA:145,1
DA:146,1
DA:147,1
DA:148,1
DA:149,1
DA:152,1
DA:153,1
DA:154,1
DA:155,1
DA:156,1
DA:157,1
DA:158,1
DA:159,1
DA:162,1
DA:163,1
DA:164,1
DA:165,1
DA:166,1
DA:167,1
DA:168,1
DA:169,1
DA:172,1
DA:173,1
DA:174,1
DA:175,1
DA:176,1
DA:177,1
DA:178,1
DA:179,1
DA:182,1
DA:183,1
DA:184,1
DA:185,1
DA:186,1
DA:187,1
DA:188,1
DA:189,1
DA:192,1
DA:193,1
DA:194,1
DA:195,1
DA:196,1
DA:199,1
DA:200,1
DA:201,1
DA:202,1
DA:203,1
DA:204,1
DA:207,1
DA:208,1
DA:209,1
DA:220,17
DA:221,17
DA:222,17
DA:223,17
DA:224,17
DA:225,0
DA:226,0
DA:227,0
DA:228,0
DA:229,0
DA:230,0
DA:231,0
DA:233,17
DA:235,12
DA:236,12
DA:237,12
DA:238,12
DA:239,12
DA:240,12
DA:241,12
DA:242,11
DA:243,11
DA:245,0
DA:246,0
DA:248,0
DA:249,0
DA:256,1
DA:257,1
DA:260,1
DA:262,1
DA:264,1
DA:265,1
DA:266,1
DA:267,0
DA:268,0
DA:269,0
DA:270,0
DA:271,0
DA:273,0
DA:274,1
DA:275,1
DA:276,1
DA:277,1
DA:281,0
DA:284,12
DA:288,213
DA:289,0
DA:290,213
DA:293,213
DA:310,46
DA:311,46
DA:312,46
DA:313,46
DA:314,46
DA:315,46
DA:316,46
DA:325,46
DA:326,46
DA:327,46
DA:328,46
DA:329,46
DA:330,46
DA:335,46
DA:336,46
DA:337,46
DA:338,35
DA:339,5
DA:340,5
DA:341,5
DA:342,5
DA:353,46
DA:354,35
DA:356,11
DA:358,46
DA:359,35
DA:360,35
DA:361,35
DA:362,35
DA:363,35
DA:365,0
DA:368,11
DA:375,46
DA:376,46
DA:377,46
DA:381,46
DA:382,46
DA:383,46
DA:385,4005
DA:386,3959
DA:388,0
DA:389,0
DA:391,0
DA:392,0
DA:393,0
DA:394,0
DA:396,0
DA:397,0
DA:398,0
DA:399,0
DA:400,0
DA:401,0
DA:402,0
DA:403,0
DA:405,0
DA:406,0
DA:407,0
DA:408,0
DA:409,0
DA:410,0
DA:411,0
DA:412,0
DA:413,0
DA:414,0
DA:415,0
DA:416,0
DA:417,0
DA:418,0
DA:419,3959
DA:422,3959
DA:423,3959
DA:428,3959
DA:429,3959
DA:430,3959
DA:431,3959
DA:432,3959
DA:434,3959
DA:436,3959
DA:437,3916
DA:438,3916
DA:439,3916
DA:440,3916
DA:442,3959
DA:444,23
DA:445,3936
DA:449,3908
DA:450,3908
DA:451,9
DA:452,3899
DA:453,395
DA:454,13
DA:455,13
DA:458,8
DA:459,8
DA:461,3891
DA:465,28
DA:469,0
DA:472,3959
DA:473,3959
DA:475,10
DA:476,10
DA:477,10
DA:478,10
DA:481,3959
DA:485,3910
DA:486,42
DA:487,3868
DA:488,3910
DA:489,3868
DA:490,3868
DA:491,3868
DA:492,42
DA:493,42
DA:495,3910
DA:496,49
DA:497,4
DA:498,4
DA:499,45
DA:500,3959
DA:504,46
DA:505,42
DA:506,42
DA:508,42
DA:509,42
DA:510,42
DA:511,42
DA:513,42
DA:514,42
DA:515,0
DA:516,42
DA:517,42
DA:518,0
DA:520,42
DA:521,42
DA:522,42
DA:523,42
DA:524,42
DA:525,42
DA:526,0
DA:527,42
DA:528,7
DA:529,35
DA:530,42
DA:531,4
DA:533,46
DA:534,46
DA:535,46
DA:536,46
DA:537,46
DA:538,46
DA:539,46
DA:540,46
DA:541,46
DA:542,46
DA:544,46
DA:545,46
DA:546,46
DA:547,46
DA:548,46
DA:549,46
DA:550,46
DA:551,46
DA:552,46
DA:554,46
DA:555,46
DA:556,46
DA:557,46
DA:558,46
DA:560,46
DA:562,43
DA:563,43
DA:564,43
DA:565,43
DA:566,43
DA:567,43
DA:568,43
DA:569,43
DA:570,43
DA:571,43
DA:572,88
DA:573,88
DA:575,88
DA:576,5
DA:577,83
DA:578,83
DA:579,83
DA:581,43
DA:583,43
DA:584,43
DA:585,2
DA:586,2
DA:587,2
DA:588,43
DA:590,43
DA:591,43
DA:592,43
DA:593,43
DA:594,43
DA:595,43
DA:597,43
DA:600,4
DA:601,4
DA:602,4
DA:603,4
DA:604,4
DA:607,4
DA:608,0
DA:609,4
DA:611,4
DA:612,4
DA:614,4
DA:615,4
DA:617,4
DA:618,4
DA:619,4
DA:620,0
DA:621,4
DA:623,4
DA:624,4
DA:625,4
DA:626,4
DA:627,4
DA:628,4
DA:629,4
DA:630,0
DA:631,4
DA:634,4
DA:635,4
DA:638,46
DA:639,46
DA:640,46
DA:641,46
DA:642,46
DA:643,46
DA:644,46
DA:645,46
DA:646,46
DA:647,46
DA:648,46
DA:649,46
DA:650,46
DA:653,93
DA:654,93
DA:655,93
DA:656,6
DA:657,6
DA:658,6
DA:659,87
DA:667,46
DA:668,35
DA:670,35
DA:671,0
DA:672,0
DA:673,0
DA:674,0
DA:675,0
DA:676,0
DA:678,11
DA:680,46
DA:681,41
DA:683,5
DA:685,46
DA:687,46
DA:688,46
DA:691,46
DA:694,11
DA:695,11
DA:696,11
DA:704,11
DA:705,11
DA:706,11
DA:707,11
DA:708,11
DA:710,11
DA:714,0
DA:715,0
DA:716,0
DA:723,0
DA:724,0
DA:725,0
DA:726,0
DA:727,0
DA:729,0
DA:732,35
DA:733,35
DA:735,35
DA:736,35
DA:737,35
DA:739,0
DA:740,0
DA:741,0
DA:742,0
DA:743,0
DA:744,0
DA:745,0
DA:746,0
DA:747,0
DA:748,0
DA:749,0
DA:752,0
DA:753,0
DA:755,0
DA:757,0
DA:762,46
DA:765,0
DA:766,0
DA:768,0
DA:772,11
DA:773,11
DA:775,11
DA:778,11
DA:779,8
DA:780,8
DA:781,8
DA:782,8
DA:783,8
DA:784,8
DA:785,0
DA:787,3
DA:788,3
DA:789,3
DA:790,3
DA:791,3
DA:792,3
DA:794,3
DA:795,3
DA:796,0
DA:797,0
DA:798,0
DA:799,3
DA:801,3
DA:802,3
DA:803,3
DA:804,3
DA:805,3
DA:806,3
DA:807,0
DA:811,35
DA:812,35
DA:813,35
DA:814,35
DA:815,35
DA:816,35
DA:817,35
DA:818,35
DA:819,0
DA:820,0
DA:821,0
DA:822,0
DA:823,0
DA:824,0
DA:825,0
DA:826,0
DA:827,0
DA:828,0
DA:829,0
DA:830,0
DA:832,0
DA:833,0
DA:834,0
DA:835,0
DA:836,0
DA:837,0
DA:838,0
DA:850,46
DA:851,41
DA:852,5
DA:855,1
DA:856,1
DA:857,1
DA:858,1
DA:859,1
DA:860,1
DA:861,1
DA:862,0
DA:863,1
DA:865,4
DA:871,46
DA:872,1
DA:873,45
DA:875,46
DA:876,46
DA:878,35
DA:879,35
DA:880,35
DA:881,35
DA:882,35
DA:883,35
DA:884,35
DA:886,35
DA:887,35
DA:890,35
DA:891,13
DA:892,28
DA:893,28
DA:894,28
DA:895,28
DA:897,13
DA:898,13
DA:899,13
DA:901,22
DA:906,35
DA:912,35
DA:913,4
DA:914,4
DA:915,4
DA:916,4
DA:920,0
DA:921,0
DA:922,0
DA:923,0
DA:924,35
DA:926,35
DA:929,35
DA:930,28
DA:931,28
DA:932,28
DA:935,13
DA:936,12
DA:937,12
DA:938,22
DA:940,35
DA:941,35
DA:942,35
DA:943,35
DA:944,78
DA:945,78
DA:946,78
DA:948,35
DA:949,35
DA:950,35
DA:951,35
DA:953,35
DA:955,0
DA:957,35
DA:958,0
DA:959,0
DA:961,35
DA:962,35
DA:963,36
DA:964,36
DA:965,36
DA:967,35
DA:968,35
DA:969,4
DA:970,4
DA:971,4
DA:972,4
DA:973,4
DA:974,4
DA:975,4
DA:976,0
DA:977,0
DA:978,31
DA:979,35
DA:981,76
DA:983,35
DA:985,35
DA:986,35
DA:987,35
DA:988,35
DA:989,35
DA:990,35
DA:991,35
DA:992,35
DA:993,35
DA:994,35
DA:995,35
DA:996,35
DA:997,35
DA:998,35
DA:1001,35
DA:1002,35
DA:1003,35
DA:1004,35
DA:1005,35
DA:1006,35
DA:1007,35
DA:1008,78
DA:1009,78
DA:1012,78
DA:1013,78
DA:1014,0
DA:1015,0
DA:1019,35
DA:1022,35
DA:1023,13
DA:1024,22
DA:1026,35
DA:1027,35
DA:1032,13
DA:1033,13
DA:1034,13
DA:1035,13
DA:1036,13
DA:1038,13
DA:1039,13
DA:1041,13
DA:1042,13
DA:1043,28
DA:1046,28
DA:1047,1
DA:1049,27
DA:1050,27
DA:1051,10
DA:1052,10
DA:1053,10
DA:1054,10
DA:1055,10
DA:1056,10
DA:1057,10
DA:1058,10
DA:1059,10
DA:1060,10
DA:1061,10
DA:1063,17
DA:1064,0
DA:1065,0
DA:1069,13
DA:1070,0
DA:1071,13
DA:1072,13
DA:1074,13
DA:1075,13
DA:1076,13
DA:1077,13
DA:1081,0
DA:1082,0
DA:1083,0
DA:1084,0
DA:1085,0
DA:1086,0
DA:1087,0
DA:1088,0
DA:1089,0
DA:1090,0
DA:1091,0
DA:1092,0
DA:1093,0
DA:1094,0
DA:1096,0
DA:1097,0
DA:1098,0
DA:1102,0
DA:1103,0
DA:1104,0
DA:1106,13
DA:1108,17
DA:1109,17
DA:1110,17
DA:1111,17
DA:1112,17
DA:1113,6
DA:1115,11
DA:1116,11
DA:1117,11
DA:1118,11
DA:1121,11
DA:1123,0
DA:1124,0
DA:1125,0
DA:1126,0
DA:1127,0
DA:1128,0
DA:1129,0
DA:1131,11
DA:1132,11
DA:1134,11
DA:1135,11
DA:1136,11
DA:1137,11
DA:1138,11
DA:1140,0
DA:1141,0
DA:1143,0
DA:1144,0
DA:1145,0
DA:1146,0
DA:1147,0
DA:1148,0
DA:1149,0
DA:1150,0
DA:1151,0
DA:1155,11
DA:1156,0
DA:1157,0
DA:1158,0
DA:1159,0
DA:1160,0
DA:1162,0
DA:1163,0
DA:1164,0
DA:1166,11
DA:1170,11
DA:1171,11
DA:1172,0
DA:1173,11
DA:1175,0
DA:1176,0
DA:1180,11
DA:1181,11
DA:1182,14
DA:1183,11
DA:1187,0
DA:1189,11
DA:1190,11
DA:1191,11
DA:1192,11
DA:1193,11
DA:1196,0
DA:1199,0
DA:1202,11
DA:1203,11
DA:1208,11
DA:1209,0
DA:1210,0
DA:1211,0
DA:1212,0
DA:1216,0
DA:1217,0
DA:1218,0
DA:1219,0
DA:1220,11
DA:1222,11
DA:1224,11
DA:1225,11
DA:1226,11
DA:1227,11
DA:1228,11
DA:1229,11
DA:1232,11
DA:1233,0
DA:1234,0
DA:1235,0
DA:1239,0
DA:1240,0
DA:1241,0
DA:1242,11
DA:1244,11
DA:1246,11
DA:1247,15
DA:1248,15
DA:1249,15
DA:1251,11
DA:1252,0
DA:1253,0
DA:1254,11
DA:1255,11
DA:1258,11
DA:1259,11
DA:1260,11
DA:1261,11
DA:1262,14
DA:1265,11
DA:1267,11
DA:1268,0
DA:1269,0
DA:1270,0
DA:1271,0
DA:1272,0
DA:1273,0
DA:1274,0
DA:1275,0
DA:1277,11
DA:1279,11
DA:1280,11
DA:1281,11
DA:1282,11
DA:1283,11
DA:1284,11
DA:1285,11
DA:1286,11
DA:1287,11
DA:1288,11
DA:1289,11
DA:1290,11
DA:1291,11
DA:1293,11
DA:1296,11
DA:1297,11
DA:1298,11
DA:1299,11
DA:1300,11
DA:1301,15
DA:1302,15
DA:1305,15
DA:1306,15
DA:1307,0
DA:1308,0
DA:1312,11
DA:1315,11
DA:1316,0
DA:1317,11
DA:1319,11
DA:1320,17
DA:1322,182
DA:1323,182
DA:1324,182
DA:1325,182
DA:1328,182
DA:1330,21
DA:1331,21
DA:1332,21
DA:1334,34
DA:1335,34
DA:1336,0
DA:1337,13
DA:1338,34
DA:1341,21
DA:1342,21
DA:1343,161
DA:1345,161
DA:1346,182
DA:1348,75
DA:1349,75
DA:1350,75
DA:1351,5
DA:1352,70
DA:1354,75
DA:1355,75
DA:1357,182
DA:1358,182
DA:1359,182
DA:1360,182
DA:1361,182
DA:1362,182
DA:1363,182
DA:1365,257
DA:1366,257
DA:1367,0
DA:1368,75
DA:1369,257
DA:1372,182
DA:1374,182
DA:1375,182
BRF:0
BRH:0
LF:932
LH:714
end_of_record
SF:/home/liu/proj/toy-kv-engine/kv-engine/src/compact/leveled.rs
FN:33,_RNvMNtNtCs9G0t2qE8rAk_9kv_engine7compact7leveledNtB2_27LeveledCompactionController16level_total_size
FN:56,_RNvMNtNtCs9G0t2qE8rAk_9kv_engine7compact7leveledNtB2_27LeveledCompactionController21find_overlapping_ssts
FN:185,_RNvMNtNtCs9G0t2qE8rAk_9kv_engine7compact7leveledNtB2_27LeveledCompactionController23apply_compaction_result
FN:117,_RNvMNtNtCs9G0t2qE8rAk_9kv_engine7compact7leveledNtB2_27LeveledCompactionController24generate_compaction_task
FN:28,_RNvMNtNtCs9G0t2qE8rAk_9kv_engine7compact7leveledNtB2_27LeveledCompactionController3new
FN:37,_RNCNvMNtNtCs9G0t2qE8rAk_9kv_engine7compact7leveledNtB4_27LeveledCompactionController16level_total_size0B8_
FN:45,_RNCNvMNtNtCs9G0t2qE8rAk_9kv_engine7compact7leveledNtB4_27LeveledCompactionController16level_total_sizes0_0B8_
FN:49,_RNCNvMNtNtCs9G0t2qE8rAk_9kv_engine7compact7leveledNtB4_27LeveledCompactionController16level_total_sizes1_0B8_
FN:50,_RNCNvMNtNtCs9G0t2qE8rAk_9kv_engine7compact7leveledNtB4_27LeveledCompactionController16level_total_sizes2_0B8_
FN:38,_RNCNvMNtNtCs9G0t2qE8rAk_9kv_engine7compact7leveledNtB4_27LeveledCompactionController16level_total_sizes_0B8_
FN:65,_RNCNvMNtNtCs9G0t2qE8rAk_9kv_engine7compact7leveledNtB4_27LeveledCompactionController21find_overlapping_ssts0B8_
FN:101,_RNCNvMNtNtCs9G0t2qE8rAk_9kv_engine7compact7leveledNtB4_27LeveledCompactionController21find_overlapping_sstss0_0B8_
FN:72,_RNCNvMNtNtCs9G0t2qE8rAk_9kv_engine7compact7leveledNtB4_27LeveledCompactionController21find_overlapping_sstss_0B8_
FN:198,_RNCNvMNtNtCs9G0t2qE8rAk_9kv_engine7compact7leveledNtB4_27LeveledCompactionController23apply_compaction_result0B8_
FN:205,_RNCNvMNtNtCs9G0t2qE8rAk_9kv_engine7compact7leveledNtB4_27LeveledCompactionController23apply_compaction_results0_0B8_
FN:207,_RNCNvMNtNtCs9G0t2qE8rAk_9kv_engine7compact7leveledNtB4_27LeveledCompactionController23apply_compaction_results1_0B8_
FN:201,_RNCNvMNtNtCs9G0t2qE8rAk_9kv_engine7compact7leveledNtB4_27LeveledCompactionController23apply_compaction_results_0B8_
FN:33,_RNvMNtNtCshcgQatfXnqn_9kv_engine7compact7leveledNtB2_27LeveledCompactionController16level_total_size
FN:56,_RNvMNtNtCshcgQatfXnqn_9kv_engine7compact7leveledNtB2_27LeveledCompactionController21find_overlapping_ssts
FN:185,_RNvMNtNtCshcgQatfXnqn_9kv_engine7compact7leveledNtB2_27LeveledCompactionController23apply_compaction_result
FN:117,_RNvMNtNtCshcgQatfXnqn_9kv_engine7compact7leveledNtB2_27LeveledCompactionController24generate_compaction_task
FN:28,_RNvMNtNtCshcgQatfXnqn_9kv_engine7compact7leveledNtB2_27LeveledCompactionController3new
FN:37,_RNCNvMNtNtCshcgQatfXnqn_9kv_engine7compact7leveledNtB4_27LeveledCompactionController16level_total_size0B8_
FN:45,_RNCNvMNtNtCshcgQatfXnqn_9kv_engine7compact7leveledNtB4_27LeveledCompactionController16level_total_sizes0_0B8_
FN:49,_RNCNvMNtNtCshcgQatfXnqn_9kv_engine7compact7leveledNtB4_27LeveledCompactionController16level_total_sizes1_0B8_
FN:50,_RNCNvMNtNtCshcgQatfXnqn_9kv_engine7compact7leveledNtB4_27LeveledCompactionController16level_total_sizes2_0B8_
FN:38,_RNCNvMNtNtCshcgQatfXnqn_9kv_engine7compact7leveledNtB4_27LeveledCompactionController16level_total_sizes_0B8_
FN:65,_RNCNvMNtNtCshcgQatfXnqn_9kv_engine7compact7leveledNtB4_27LeveledCompactionController21find_overlapping_ssts0B8_
FN:101,_RNCNvMNtNtCshcgQatfXnqn_9kv_engine7compact7leveledNtB4_27LeveledCompactionController21find_overlapping_sstss0_0B8_
FN:72,_RNCNvMNtNtCshcgQatfXnqn_9kv_engine7compact7leveledNtB4_27LeveledCompactionController21find_overlapping_sstss_0B8_
FN:198,_RNCNvMNtNtCshcgQatfXnqn_9kv_engine7compact7leveledNtB4_27LeveledCompactionController23apply_compaction_result0B8_
FN:205,_RNCNvMNtNtCshcgQatfXnqn_9kv_engine7compact7leveledNtB4_27LeveledCompactionController23apply_compaction_results0_0B8_
FN:207,_RNCNvMNtNtCshcgQatfXnqn_9kv_engine7compact7leveledNtB4_27LeveledCompactionController23apply_compaction_results1_0B8_
FN:201,_RNCNvMNtNtCshcgQatfXnqn_9kv_engine7compact7leveledNtB4_27LeveledCompactionController23apply_compaction_results_0B8_
FNDA:21,_RNvMNtNtCs9G0t2qE8rAk_9kv_engine7compact7leveledNtB2_27LeveledCompactionController16level_total_size
FNDA:11,_RNvMNtNtCs9G0t2qE8rAk_9kv_engine7compact7leveledNtB2_27LeveledCompactionController21find_overlapping_ssts
FNDA:11,_RNvMNtNtCs9G0t2qE8rAk_9kv_engine7compact7leveledNtB2_27LeveledCompactionController23apply_compaction_result
FNDA:17,_RNvMNtNtCs9G0t2qE8rAk_9kv_engine7compact7leveledNtB2_27LeveledCompactionController24generate_compaction_task
FNDA:22,_RNvMNtNtCs9G0t2qE8rAk_9kv_engine7compact7leveledNtB2_27LeveledCompactionController3new
FNDA:6,_RNCNvMNtNtCs9G0t2qE8rAk_9kv_engine7compact7leveledNtB4_27LeveledCompactionController16level_total_size0B8_
FNDA:56,_RNCNvMNtNtCs9G0t2qE8rAk_9kv_engine7compact7leveledNtB4_27LeveledCompactionController16level_total_sizes0_0B8_
FNDA:0,_RNCNvMNtNtCs9G0t2qE8rAk_9kv_engine7compact7leveledNtB4_27LeveledCompactionController16level_total_sizes1_0B8_
FNDA:0,_RNCNvMNtNtCs9G0t2qE8rAk_9kv_engine7compact7leveledNtB4_27LeveledCompactionController16level_total_sizes2_0B8_
FNDA:6,_RNCNvMNtNtCs9G0t2qE8rAk_9kv_engine7compact7leveledNtB4_27LeveledCompactionController16level_total_sizes_0B8_
FNDA:15,_RNCNvMNtNtCs9G0t2qE8rAk_9kv_engine7compact7leveledNtB4_27LeveledCompactionController21find_overlapping_ssts0B8_
FNDA:14,_RNCNvMNtNtCs9G0t2qE8rAk_9kv_engine7compact7leveledNtB4_27LeveledCompactionController21find_overlapping_sstss0_0B8_
FNDA:15,_RNCNvMNtNtCs9G0t2qE8rAk_9kv_engine7compact7leveledNtB4_27LeveledCompactionController21find_overlapping_sstss_0B8_
FNDA:16,_RNCNvMNtNtCs9G0t2qE8rAk_9kv_engine7compact7leveledNtB4_27LeveledCompactionController23apply_compaction_result0B8_
FNDA:5,_RNCNvMNtNtCs9G0t2qE8rAk_9kv_engine7compact7leveledNtB4_27LeveledCompactionController23apply_compaction_results0_0B8_
FNDA:5,_RNCNvMNtNtCs9G0t2qE8rAk_9kv_engine7compact7leveledNtB4_27LeveledCompactionController23apply_compaction_results1_0B8_
FNDA:5,_RNCNvMNtNtCs9G0t2qE8rAk_9kv_engine7compact7leveledNtB4_27LeveledCompactionController23apply_compaction_results_0B8_
FNDA:0,_RNvMNtNtCshcgQatfXnqn_9kv_engine7compact7leveledNtB2_27LeveledCompactionController16level_total_size
FNDA:0,_RNvMNtNtCshcgQatfXnqn_9kv_engine7compact7leveledNtB2_27LeveledCompactionController21find_overlapping_ssts
FNDA:0,_RNvMNtNtCshcgQatfXnqn_9kv_engine7compact7leveledNtB2_27LeveledCompactionController23apply_compaction_result
FNDA:0,_RNvMNtNtCshcgQatfXnqn_9kv_engine7compact7leveledNtB2_27LeveledCompactionController24generate_compaction_task
FNDA:0,_RNvMNtNtCshcgQatfXnqn_9kv_engine7compact7leveledNtB2_27LeveledCompactionController3new
FNDA:0,_RNCNvMNtNtCshcgQatfXnqn_9kv_engine7compact7leveledNtB4_27LeveledCompactionController16level_total_size0B8_
FNDA:0,_RNCNvMNtNtCshcgQatfXnqn_9kv_engine7compact7leveledNtB4_27LeveledCompactionController16level_total_sizes0_0B8_
FNDA:0,_RNCNvMNtNtCshcgQatfXnqn_9kv_engine7compact7leveledNtB4_27LeveledCompactionController16level_total_sizes1_0B8_
FNDA:0,_RNCNvMNtNtCshcgQatfXnqn_9kv_engine7compact7leveledNtB4_27LeveledCompactionController16level_total_sizes2_0B8_
FNDA:0,_RNCNvMNtNtCshcgQatfXnqn_9kv_engine7compact7leveledNtB4_27LeveledCompactionController16level_total_sizes_0B8_
FNDA:0,_RNCNvMNtNtCshcgQatfXnqn_9kv_engine7compact7leveledNtB4_27LeveledCompactionController21find_overlapping_ssts0B8_
FNDA:0,_RNCNvMNtNtCshcgQatfXnqn_9kv_engine7compact7leveledNtB4_27LeveledCompactionController21find_overlapping_sstss0_0B8_
FNDA:0,_RNCNvMNtNtCshcgQatfXnqn_9kv_engine7compact7leveledNtB4_27LeveledCompactionController21find_overlapping_sstss_0B8_
FNDA:0,_RNCNvMNtNtCshcgQatfXnqn_9kv_engine7compact7leveledNtB4_27LeveledCompactionController23apply_compaction_result0B8_
FNDA:0,_RNCNvMNtNtCshcgQatfXnqn_9kv_engine7compact7leveledNtB4_27LeveledCompactionController23apply_compaction_results0_0B8_
FNDA:0,_RNCNvMNtNtCshcgQatfXnqn_9kv_engine7compact7leveledNtB4_27LeveledCompactionController23apply_compaction_results1_0B8_
FNDA:0,_RNCNvMNtNtCshcgQatfXnqn_9kv_engine7compact7leveledNtB4_27LeveledCompactionController23apply_compaction_results_0B8_
FNF:17
FNH:15
DA:28,22
DA:29,22
DA:30,22
DA:33,21
DA:34,21
DA:35,21
DA:36,21
DA:37,21
DA:38,21
DA:39,21
DA:41,21
DA:42,21
DA:43,21
DA:44,21
DA:45,56
DA:47,21
DA:48,21
DA:49,21
DA:50,21
DA:51,21
DA:52,0
DA:53,21
DA:54,21
DA:56,11
DA:57,11
DA:58,11
DA:59,11
DA:60,11
DA:61,11
DA:63,11
DA:64,11
DA:65,15
DA:66,11
DA:68,0
DA:70,11
DA:71,11
DA:72,15
DA:73,11
DA:75,0
DA:78,11
DA:79,11
DA:80,5
DA:82,5
DA:83,0
DA:85,5
DA:86,0
DA:87,5
DA:96,11
DA:97,11
DA:98,11
DA:99,11
DA:100,11
DA:101,14
DA:103,11
DA:104,0
DA:105,0
DA:106,0
DA:107,0
DA:108,0
DA:109,0
DA:110,0
DA:112,0
DA:114,11
DA:115,11
DA:117,17
DA:118,17
DA:119,17
DA:120,17
DA:122,17
DA:123,17
DA:124,17
DA:125,34
DA:126,34
DA:127,0
DA:128,34
DA:131,17
DA:132,8
DA:133,24
DA:134,24
DA:135,0
DA:136,0
DA:137,24
DA:140,8
DA:141,8
DA:142,8
DA:143,8
DA:144,8
DA:145,8
DA:146,8
DA:147,8
DA:148,8
DA:149,9
DA:153,9
DA:154,27
DA:155,27
DA:156,23
DA:157,4
DA:158,4
DA:159,4
DA:160,4
DA:161,3
DA:162,3
DA:164,9
DA:165,6
DA:166,3
DA:168,3
DA:170,3
DA:172,3
DA:173,3
DA:174,3
DA:175,3
DA:176,3
DA:177,3
DA:178,3
DA:179,3
DA:180,3
DA:181,3
DA:182,3
DA:183,17
DA:185,11
DA:186,11
DA:187,11
DA:188,11
DA:189,11
DA:190,11
DA:191,11
DA:192,11
DA:194,11
DA:196,8
DA:197,8
DA:198,16
DA:199,3
DA:200,3
DA:201,5
DA:203,11
DA:204,11
DA:205,11
DA:206,11
DA:207,11
DA:208,5
DA:209,5
DA:210,5
DA:211,5
DA:213,11
DA:214,11
DA:215,11
DA:216,11
DA:218,11
DA:219,11
BRF:0
BRH:0
LF:161
LH:143
end_of_record
SF:/home/liu/proj/toy-kv-engine/kv-engine/src/compact/simple_leveled.rs
FN:80,_RNvMNtNtCs9G0t2qE8rAk_9kv_engine7compact14simple_leveledNtB2_33SimpleLeveledCompactionController23apply_compaction_result
FN:35,_RNvMNtNtCs9G0t2qE8rAk_9kv_engine7compact14simple_leveledNtB2_33SimpleLeveledCompactionController24generate_compaction_task
FN:27,_RNvMNtNtCs9G0t2qE8rAk_9kv_engine7compact14simple_leveledNtB2_33SimpleLeveledCompactionController3new
FN:92,_RNCNvMNtNtCs9G0t2qE8rAk_9kv_engine7compact14simple_leveledNtB4_33SimpleLeveledCompactionController23apply_compaction_result0B8_
FN:92,_RNCNvMNtNtCshcgQatfXnqn_9kv_engine7compact14simple_leveledNtB4_33SimpleLeveledCompactionController23apply_compaction_result0B8_
FN:80,_RNvMNtNtCshcgQatfXnqn_9kv_engine7compact14simple_leveledNtB2_33SimpleLeveledCompactionController23apply_compaction_result
FN:35,_RNvMNtNtCshcgQatfXnqn_9kv_engine7compact14simple_leveledNtB2_33SimpleLeveledCompactionController24generate_compaction_task
FN:27,_RNvMNtNtCshcgQatfXnqn_9kv_engine7compact14simple_leveledNtB2_33SimpleLeveledCompactionController3new
FNDA:0,_RNvMNtNtCs9G0t2qE8rAk_9kv_engine7compact14simple_leveledNtB2_33SimpleLeveledCompactionController23apply_compaction_result
FNDA:0,_RNvMNtNtCs9G0t2qE8rAk_9kv_engine7compact14simple_leveledNtB2_33SimpleLeveledCompactionController24generate_compaction_task
FNDA:1,_RNvMNtNtCs9G0t2qE8rAk_9kv_engine7compact14simple_leveledNtB2_33SimpleLeveledCompactionController3new
FNDA:0,_RNCNvMNtNtCs9G0t2qE8rAk_9kv_engine7compact14simple_leveledNtB4_33SimpleLeveledCompactionController23apply_compaction_result0B8_
FNDA:0,_RNCNvMNtNtCshcgQatfXnqn_9kv_engine7compact14simple_leveledNtB4_33SimpleLeveledCompactionController23apply_compaction_result0B8_
FNDA:0,_RNvMNtNtCshcgQatfXnqn_9kv_engine7compact14simple_leveledNtB2_33SimpleLeveledCompactionController23apply_compaction_result
FNDA:0,_RNvMNtNtCshcgQatfXnqn_9kv_engine7compact14simple_leveledNtB2_33SimpleLeveledCompactionController24generate_compaction_task
FNDA:0,_RNvMNtNtCshcgQatfXnqn_9kv_engine7compact14simple_leveledNtB2_33SimpleLeveledCompactionController3new
FNF:4
FNH:1
DA:27,1
DA:28,1
DA:29,1
DA:35,0
DA:36,0
DA:37,0
DA:38,0
DA:39,0
DA:40,0
DA:41,0
DA:42,0
DA:43,0
DA:44,0
DA:45,0
DA:46,0
DA:47,0
DA:49,0
DA:50,0
DA:51,0
DA:52,0
DA:53,0
DA:54,0
DA:58,0
DA:59,0
DA:60,0
DA:61,0
DA:62,0
DA:63,0
DA:64,0
DA:65,0
DA:68,0
DA:69,0
DA:80,0
DA:81,0
DA:82,0
DA:83,0
DA:84,0
DA:85,0
DA:86,0
DA:88,0
DA:90,0
DA:91,0
DA:92,0
DA:93,0
DA:95,0
DA:97,0
DA:98,0
DA:99,0
DA:100,0
DA:102,0
DA:103,0
BRF:0
BRH:0
LF:52
LH:3
end_of_record
SF:/home/liu/proj/toy-kv-engine/kv-engine/src/compact/tiered.rs
FN:80,_RNvMNtNtCs9G0t2qE8rAk_9kv_engine7compact6tieredNtB2_26TieredCompactionController23apply_compaction_result
FN:31,_RNvMNtNtCs9G0t2qE8rAk_9kv_engine7compact6tieredNtB2_26TieredCompactionController24generate_compaction_task
FN:27,_RNvMNtNtCs9G0t2qE8rAk_9kv_engine7compact6tieredNtB2_26TieredCompactionController3new
FN:94,_RNCNvMNtNtCs9G0t2qE8rAk_9kv_engine7compact6tieredNtB4_26TieredCompactionController23apply_compaction_result0B8_
FN:80,_RNvMNtNtCshcgQatfXnqn_9kv_engine7compact6tieredNtB2_26TieredCompactionController23apply_compaction_result
FN:31,_RNvMNtNtCshcgQatfXnqn_9kv_engine7compact6tieredNtB2_26TieredCompactionController24generate_compaction_task
FN:27,_RNvMNtNtCshcgQatfXnqn_9kv_engine7compact6tieredNtB2_26TieredCompactionController3new
FN:94,_RNCNvMNtNtCshcgQatfXnqn_9kv_engine7compact6tieredNtB4_26TieredCompactionController23apply_compaction_result0B8_
FNDA:3,_RNvMNtNtCs9G0t2qE8rAk_9kv_engine7compact6tieredNtB2_26TieredCompactionController23apply_compaction_result
FNDA:5,_RNvMNtNtCs9G0t2qE8rAk_9kv_engine7compact6tieredNtB2_26TieredCompactionController24generate_compaction_task
FNDA:8,_RNvMNtNtCs9G0t2qE8rAk_9kv_engine7compact6tieredNtB2_26TieredCompactionController3new
FNDA:7,_RNCNvMNtNtCs9G0t2qE8rAk_9kv_engine7compact6tieredNtB4_26TieredCompactionController23apply_compaction_result0B8_
FNDA:0,_RNvMNtNtCshcgQatfXnqn_9kv_engine7compact6tieredNtB2_26TieredCompactionController23apply_compaction_result
FNDA:0,_RNvMNtNtCshcgQatfXnqn_9kv_engine7compact6tieredNtB2_26TieredCompactionController24generate_compaction_task
FNDA:0,_RNvMNtNtCshcgQatfXnqn_9kv_engine7compact6tieredNtB2_26TieredCompactionController3new
FNDA:0,_RNCNvMNtNtCshcgQatfXnqn_9kv_engine7compact6tieredNtB4_26TieredCompactionController23apply_compaction_result0B8_
FNF:4
FNH:4
DA:27,8
DA:28,8
DA:29,8
DA:31,5
DA:32,5
DA:33,5
DA:34,5
DA:36,5
DA:37,1
DA:38,4
DA:41,4
DA:42,11
DA:43,11
DA:44,11
DA:45,4
DA:47,4
DA:48,4
DA:50,1
DA:51,1
DA:52,1
DA:53,1
DA:54,3
DA:57,3
DA:58,7
DA:59,7
DA:60,7
DA:62,7
DA:63,7
DA:65,1
DA:66,1
DA:67,1
DA:68,1
DA:69,6
DA:72,2
DA:74,2
DA:75,2
DA:76,2
DA:77,2
DA:78,5
DA:80,3
DA:81,3
DA:82,3
DA:83,3
DA:84,3
DA:85,3
DA:86,3
DA:87,3
DA:90,3
DA:91,3
DA:92,3
DA:93,3
DA:94,7
DA:95,3
DA:96,3
DA:97,3
DA:98,3
DA:100,10
DA:102,10
DA:104,7
DA:105,7
DA:106,3
DA:107,3
DA:108,3
DA:109,3
DA:110,10
DA:111,3
DA:112,3
DA:113,3
DA:114,3
DA:115,3
DA:116,7
DA:118,3
DA:119,0
DA:120,3
DA:121,3
DA:123,3
DA:124,3
BRF:0
BRH:0
LF:78
LH:77
end_of_record
SF:/home/liu/proj/toy-kv-engine/kv-engine/src/debug.rs
FN:4,_RNvMNtCs9G0t2qE8rAk_9kv_engine5debugNtNtB4_11lsm_storage15LsmStorageInner14dump_structure
FN:20,_RNvMs_NtCs9G0t2qE8rAk_9kv_engine5debugNtNtB6_11lsm_storage8KvEngine14dump_structure
FN:4,_RNvMNtCshcgQatfXnqn_9kv_engine5debugNtNtB4_11lsm_storage15LsmStorageInner14dump_structure
FN:20,_RNvMs_NtCshcgQatfXnqn_9kv_engine5debugNtNtB6_11lsm_storage8KvEngine14dump_structure
FNDA:0,_RNvMNtCs9G0t2qE8rAk_9kv_engine5debugNtNtB4_11lsm_storage15LsmStorageInner14dump_structure
FNDA:0,_RNvMs_NtCs9G0t2qE8rAk_9kv_engine5debugNtNtB6_11lsm_storage8KvEngine14dump_structure
FNDA:0,_RNvMNtCshcgQatfXnqn_9kv_engine5debugNtNtB4_11lsm_storage15LsmStorageInner14dump_structure
FNDA:0,_RNvMs_NtCshcgQatfXnqn_9kv_engine5debugNtNtB6_11lsm_storage8KvEngine14dump_structure
FNF:2
FNH:0
DA:4,0
DA:5,0
DA:6,0
DA:7,0
DA:8,0
DA:9,0
DA:10,0
DA:11,0
DA:12,0
DA:13,0
DA:14,0
DA:15,0
DA:16,0
DA:20,0
DA:21,0
DA:22,0
BRF:0
BRH:0
LF:16
LH:0
end_of_record
SF:/home/liu/proj/toy-kv-engine/kv-engine/src/iterators.rs
FN:29,_RNvYNtNtNtCs9G0t2qE8rAk_9kv_engine5tests7harness12MockIteratorNtNtB8_9iterators15StorageIterator20num_active_iteratorsB8_
FN:24,_RNvYNtNtNtCs9G0t2qE8rAk_9kv_engine5tests7harness12MockIteratorNtNtB8_9iterators15StorageIterator9raw_valueB8_
FN:24,_RNvYpNtNtCshcgQatfXnqn_9kv_engine9iterators15StorageIterator9raw_valueB7_
FN:29,_RNvYNtNtNtNtCshcgQatfXnqn_9kv_engine4mvcc3txn33ouroboros_impl_txn_local_iterator16TxnLocalIteratorNtNtBa_9iterators15StorageIterator20num_active_iteratorsBa_
FNDA:1,_RNvYNtNtNtCs9G0t2qE8rAk_9kv_engine5tests7harness12MockIteratorNtNtB8_9iterators15StorageIterator20num_active_iteratorsB8_
FNDA:1,_RNvYNtNtNtCs9G0t2qE8rAk_9kv_engine5tests7harness12MockIteratorNtNtB8_9iterators15StorageIterator9raw_valueB8_
FNDA:0,_RNvYpNtNtCshcgQatfXnqn_9kv_engine9iterators15StorageIterator9raw_valueB7_
FNDA:0,_RNvYNtNtNtNtCshcgQatfXnqn_9kv_engine4mvcc3txn33ouroboros_impl_txn_local_iterator16TxnLocalIteratorNtNtBa_9iterators15StorageIterator20num_active_iteratorsBa_
FNF:2
FNH:2
DA:24,1
DA:25,1
DA:26,1
DA:29,1
DA:30,1
DA:31,1
BRF:0
BRH:0
LF:6
LH:6
end_of_record
SF:/home/liu/proj/toy-kv-engine/kv-engine/src/iterators/concat_iterator.rs
FN:201,_RNvXs_NtNtCs9G0t2qE8rAk_9kv_engine9iterators15concat_iteratorNtB4_17SstConcatIteratorNtB6_15StorageIterator20num_active_iterators
FN:66,_RNvMNtNtCs9G0t2qE8rAk_9kv_engine9iterators15concat_iteratorNtB2_17SstConcatIterator22create_and_seek_to_key
FN:22,_RNvMNtNtCs9G0t2qE8rAk_9kv_engine9iterators15concat_iteratorNtB2_17SstConcatIterator24create_and_seek_to_first
FN:78,_RNvMNtNtCs9G0t2qE8rAk_9kv_engine9iterators15concat_iteratorNtB2_17SstConcatIterator28create_and_seek_to_key_inner
FN:33,_RNvMNtNtCs9G0t2qE8rAk_9kv_engine9iterators15concat_iteratorNtB2_17SstConcatIterator30create_and_seek_to_first_inner
FN:70,_RNvMNtNtCs9G0t2qE8rAk_9kv_engine9iterators15concat_iteratorNtB2_17SstConcatIterator32create_and_seek_to_key_with_vlog
FN:26,_RNvMNtNtCs9G0t2qE8rAk_9kv_engine9iterators15concat_iteratorNtB2_17SstConcatIterator34create_and_seek_to_first_with_vlog
FN:153,_RNvXs_NtNtCs9G0t2qE8rAk_9kv_engine9iterators15concat_iteratorNtB4_17SstConcatIteratorNtB6_15StorageIterator3key
FN:173,_RNvXs_NtNtCs9G0t2qE8rAk_9kv_engine9iterators15concat_iteratorNtB4_17SstConcatIteratorNtB6_15StorageIterator4next
FN:161,_RNvXs_NtNtCs9G0t2qE8rAk_9kv_engine9iterators15concat_iteratorNtB4_17SstConcatIteratorNtB6_15StorageIterator5value
FN:169,_RNvXs_NtNtCs9G0t2qE8rAk_9kv_engine9iterators15concat_iteratorNtB4_17SstConcatIteratorNtB6_15StorageIterator8is_valid
FN:205,_RNvXs_NtNtCs9G0t2qE8rAk_9kv_engine9iterators15concat_iteratorNtB4_17SstConcatIteratorNtB6_15StorageIterator9raw_value
FN:86,_RNCNvMNtNtCs9G0t2qE8rAk_9kv_engine9iterators15concat_iteratorNtB4_17SstConcatIterator28create_and_seek_to_key_inner0B8_
FN:41,_RNCNvMNtNtCs9G0t2qE8rAk_9kv_engine9iterators15concat_iteratorNtB4_17SstConcatIterator30create_and_seek_to_first_inner0B8_
FN:66,_RNvMNtNtCshcgQatfXnqn_9kv_engine9iterators15concat_iteratorNtB2_17SstConcatIterator22create_and_seek_to_key
FN:22,_RNvMNtNtCshcgQatfXnqn_9kv_engine9iterators15concat_iteratorNtB2_17SstConcatIterator24create_and_seek_to_first
FN:78,_RNvMNtNtCshcgQatfXnqn_9kv_engine9iterators15concat_iteratorNtB2_17SstConcatIterator28create_and_seek_to_key_inner
FN:33,_RNvMNtNtCshcgQatfXnqn_9kv_engine9iterators15concat_iteratorNtB2_17SstConcatIterator30create_and_seek_to_first_inner
FN:70,_RNvMNtNtCshcgQatfXnqn_9kv_engine9iterators15concat_iteratorNtB2_17SstConcatIterator32create_and_seek_to_key_with_vlog
FN:26,_RNvMNtNtCshcgQatfXnqn_9kv_engine9iterators15concat_iteratorNtB2_17SstConcatIterator34create_and_seek_to_first_with_vlog
FN:201,_RNvXs_NtNtCshcgQatfXnqn_9kv_engine9iterators15concat_iteratorNtB4_17SstConcatIteratorNtB6_15StorageIterator20num_active_iterators
FN:153,_RNvXs_NtNtCshcgQatfXnqn_9kv_engine9iterators15concat_iteratorNtB4_17SstConcatIteratorNtB6_15StorageIterator3key
FN:173,_RNvXs_NtNtCshcgQatfXnqn_9kv_engine9iterators15concat_iteratorNtB4_17SstConcatIteratorNtB6_15StorageIterator4next
FN:161,_RNvXs_NtNtCshcgQatfXnqn_9kv_engine9iterators15concat_iteratorNtB4_17SstConcatIteratorNtB6_15StorageIterator5value
FN:169,_RNvXs_NtNtCshcgQatfXnqn_9kv_engine9iterators15concat_iteratorNtB4_17SstConcatIteratorNtB6_15StorageIterator8is_valid
FN:205,_RNvXs_NtNtCshcgQatfXnqn_9kv_engine9iterators15concat_iteratorNtB4_17SstConcatIteratorNtB6_15StorageIterator9raw_value
FN:86,_RNCNvMNtNtCshcgQatfXnqn_9kv_engine9iterators15concat_iteratorNtB4_17SstConcatIterator28create_and_seek_to_key_inner0B8_
FN:41,_RNCNvMNtNtCshcgQatfXnqn_9kv_engine9iterators15concat_iteratorNtB4_17SstConcatIterator30create_and_seek_to_first_inner0B8_
FNDA:0,_RNvXs_NtNtCs9G0t2qE8rAk_9kv_engine9iterators15concat_iteratorNtB4_17SstConcatIteratorNtB6_15StorageIterator20num_active_iterators
FNDA:122,_RNvMNtNtCs9G0t2qE8rAk_9kv_engine9iterators15concat_iteratorNtB2_17SstConcatIterator22create_and_seek_to_key
FNDA:51,_RNvMNtNtCs9G0t2qE8rAk_9kv_engine9iterators15concat_iteratorNtB2_17SstConcatIterator24create_and_seek_to_first
FNDA:122,_RNvMNtNtCs9G0t2qE8rAk_9kv_engine9iterators15concat_iteratorNtB2_17SstConcatIterator28create_and_seek_to_key_inner
FNDA:52,_RNvMNtNtCs9G0t2qE8rAk_9kv_engine9iterators15concat_iteratorNtB2_17SstConcatIterator30create_and_seek_to_first_inner
FNDA:0,_RNvMNtNtCs9G0t2qE8rAk_9kv_engine9iterators15concat_iteratorNtB2_17SstConcatIterator32create_and_seek_to_key_with_vlog
FNDA:1,_RNvMNtNtCs9G0t2qE8rAk_9kv_engine9iterators15concat_iteratorNtB2_17SstConcatIterator34create_and_seek_to_first_with_vlog
FNDA:3360,_RNvXs_NtNtCs9G0t2qE8rAk_9kv_engine9iterators15concat_iteratorNtB4_17SstConcatIteratorNtB6_15StorageIterator3key
FNDA:1536,_RNvXs_NtNtCs9G0t2qE8rAk_9kv_engine9iterators15concat_iteratorNtB4_17SstConcatIteratorNtB6_15StorageIterator4next
FNDA:36,_RNvXs_NtNtCs9G0t2qE8rAk_9kv_engine9iterators15concat_iteratorNtB4_17SstConcatIteratorNtB6_15StorageIterator5value
FNDA:11390,_RNvXs_NtNtCs9G0t2qE8rAk_9kv_engine9iterators15concat_iteratorNtB4_17SstConcatIteratorNtB6_15StorageIterator8is_valid
FNDA:3015,_RNvXs_NtNtCs9G0t2qE8rAk_9kv_engine9iterators15concat_iteratorNtB4_17SstConcatIteratorNtB6_15StorageIterator9raw_value
FNDA:1202,_RNCNvMNtNtCs9G0t2qE8rAk_9kv_engine9iterators15concat_iteratorNtB4_17SstConcatIterator28create_and_seek_to_key_inner0B8_
FNDA:17,_RNCNvMNtNtCs9G0t2qE8rAk_9kv_engine9iterators15concat_iteratorNtB4_17SstConcatIterator30create_and_seek_to_first_inner0B8_
FNDA:0,_RNvMNtNtCshcgQatfXnqn_9kv_engine9iterators15concat_iteratorNtB2_17SstConcatIterator22create_and_seek_to_key
FNDA:0,_RNvMNtNtCshcgQatfXnqn_9kv_engine9iterators15concat_iteratorNtB2_17SstConcatIterator24create_and_seek_to_first
FNDA:0,_RNvMNtNtCshcgQatfXnqn_9kv_engine9iterators15concat_iteratorNtB2_17SstConcatIterator28create_and_seek_to_key_inner
FNDA:0,_RNvMNtNtCshcgQatfXnqn_9kv_engine9iterators15concat_iteratorNtB2_17SstConcatIterator30create_and_seek_to_first_inner
FNDA:0,_RNvMNtNtCshcgQatfXnqn_9kv_engine9iterators15concat_iteratorNtB2_17SstConcatIterator32create_and_seek_to_key_with_vlog
FNDA:0,_RNvMNtNtCshcgQatfXnqn_9kv_engine9iterators15concat_iteratorNtB2_17SstConcatIterator34create_and_seek_to_first_with_vlog
FNDA:0,_RNvXs_NtNtCshcgQatfXnqn_9kv_engine9iterators15concat_iteratorNtB4_17SstConcatIteratorNtB6_15StorageIterator20num_active_iterators
FNDA:0,_RNvXs_NtNtCshcgQatfXnqn_9kv_engine9iterators15concat_iteratorNtB4_17SstConcatIteratorNtB6_15StorageIterator3key
FNDA:0,_RNvXs_NtNtCshcgQatfXnqn_9kv_engine9iterators15concat_iteratorNtB4_17SstConcatIteratorNtB6_15StorageIterator4next
FNDA:0,_RNvXs_NtNtCshcgQatfXnqn_9kv_engine9iterators15concat_iteratorNtB4_17SstConcatIteratorNtB6_15StorageIterator5value
FNDA:0,_RNvXs_NtNtCshcgQatfXnqn_9kv_engine9iterators15concat_iteratorNtB4_17SstConcatIteratorNtB6_15StorageIterator8is_valid
FNDA:0,_RNvXs_NtNtCshcgQatfXnqn_9kv_engine9iterators15concat_iteratorNtB4_17SstConcatIteratorNtB6_15StorageIterator9raw_value
FNDA:0,_RNCNvMNtNtCshcgQatfXnqn_9kv_engine9iterators15concat_iteratorNtB4_17SstConcatIterator28create_and_seek_to_key_inner0B8_
FNDA:0,_RNCNvMNtNtCshcgQatfXnqn_9kv_engine9iterators15concat_iteratorNtB4_17SstConcatIterator30create_and_seek_to_first_inner0B8_
FNF:14
FNH:12
DA:22,51
DA:23,51
DA:24,51
DA:26,1
DA:27,1
DA:28,1
DA:29,1
DA:30,1
DA:31,1
DA:33,52
DA:34,52
DA:35,52
DA:36,52
DA:39,52
DA:40,52
DA:41,52
DA:42,52
DA:43,52
DA:44,44
DA:45,44
DA:46,44
DA:47,44
DA:48,44
DA:49,44
DA:50,8
DA:52,8
DA:53,8
DA:54,1
DA:55,7
DA:56,8
DA:57,8
DA:58,8
DA:59,8
DA:60,8
DA:61,8
DA:63,8
DA:64,52
DA:66,122
DA:67,122
DA:68,122
DA:70,0
DA:71,0
DA:72,0
DA:73,0
DA:74,0
DA:75,0
DA:76,0
DA:78,122
DA:79,122
DA:80,122
DA:81,122
DA:82,122
DA:84,122
DA:85,122
DA:86,1202
DA:87,122
DA:88,122
DA:89,0
DA:90,0
DA:91,0
DA:92,0
DA:93,0
DA:94,0
DA:95,122
DA:96,122
DA:97,122
DA:98,122
DA:99,122
DA:101,10
DA:102,10
DA:103,10
DA:104,10
DA:105,10
DA:106,10
DA:107,112
DA:109,112
DA:110,112
DA:111,322
DA:112,322
DA:113,322
DA:114,322
DA:115,221
DA:117,101
DA:118,101
DA:119,221
DA:120,221
DA:121,101
DA:122,11
DA:123,11
DA:124,90
DA:125,90
DA:126,120
DA:127,120
DA:128,0
DA:129,0
DA:130,120
DA:131,120
DA:132,0
DA:135,112
DA:136,112
DA:137,0
DA:138,112
DA:139,112
DA:140,112
DA:141,112
DA:142,112
DA:143,112
DA:144,112
DA:146,112
DA:147,122
DA:153,3360
DA:158,3360
DA:159,3360
DA:161,36
DA:166,36
DA:167,36
DA:169,11390
DA:170,11390
DA:171,11390
DA:173,1536
DA:178,1536
DA:180,1545
DA:181,1536
DA:182,1527
DA:183,9
DA:184,9
DA:185,0
DA:186,0
DA:187,0
DA:188,0
DA:189,0
DA:190,0
DA:191,0
DA:192,0
DA:193,9
DA:194,9
DA:195,9
DA:198,1536
DA:199,1536
DA:201,0
DA:202,0
DA:203,0
DA:205,3015
DA:206,3015
DA:207,3015
BRF:0
BRH:0
LF:147
LH:119
end_of_record
SF:/home/liu/proj/toy-kv-engine/kv-engine/src/iterators/merge_iterator.rs
FN:14,_RNvXININtNtCs9G0t2qE8rAk_9kv_engine9iterators14merge_iterator0pEINtB5_11HeapWrapperpENtNtCslfAf2Mv2Tp5_4core3cmp9PartialEq2eqB9_
FN:47,_RNvMs2_NtNtCs9G0t2qE8rAk_9kv_engine9iterators14merge_iteratorINtB5_13MergeIteratorNtNtB7_15concat_iterator17SstConcatIteratorE6createB9_
FN:47,_RNvMs2_NtNtCs9G0t2qE8rAk_9kv_engine9iterators14merge_iteratorINtB5_13MergeIteratorNtNtNtB9_5table8iterator15SsTableIteratorE6createB9_
FN:47,_RNvMs2_NtNtCs9G0t2qE8rAk_9kv_engine9iterators14merge_iteratorINtB5_13MergeIteratorNtNtNtB9_5tests7harness12MockIteratorE6createB9_
FN:47,_RNvMs2_NtNtCs9G0t2qE8rAk_9kv_engine9iterators14merge_iteratorINtB5_13MergeIteratorNtNtNtB9_9mem_table33ouroboros_impl_mem_table_iterator16MemTableIteratorE6createB9_
FN:24,_RNvXs0_NtNtCs9G0t2qE8rAk_9kv_engine9iterators14merge_iteratorINtB5_11HeapWrapperNtNtB7_15concat_iterator17SstConcatIteratorENtNtCslfAf2Mv2Tp5_4core3cmp10PartialOrd11partial_cmpB9_
FN:24,_RNvXs0_NtNtCs9G0t2qE8rAk_9kv_engine9iterators14merge_iteratorINtB5_11HeapWrapperNtNtNtB9_5table8iterator15SsTableIteratorENtNtCslfAf2Mv2Tp5_4core3cmp10PartialOrd11partial_cmpB9_
FN:24,_RNvXs0_NtNtCs9G0t2qE8rAk_9kv_engine9iterators14merge_iteratorINtB5_11HeapWrapperNtNtNtB9_5tests7harness12MockIteratorENtNtCslfAf2Mv2Tp5_4core3cmp10PartialOrd11partial_cmpB9_
FN:24,_RNvXs0_NtNtCs9G0t2qE8rAk_9kv_engine9iterators14merge_iteratorINtB5_11HeapWrapperNtNtNtB9_9mem_table33ouroboros_impl_mem_table_iterator16MemTableIteratorENtNtCslfAf2Mv2Tp5_4core3cmp10PartialOrd11partial_cmpB9_
FN:30,_RNvXs1_NtNtCs9G0t2qE8rAk_9kv_engine9iterators14merge_iteratorINtB5_11HeapWrapperNtNtB7_15concat_iterator17SstConcatIteratorENtNtCslfAf2Mv2Tp5_4core3cmp3Ord3cmpB9_
FN:30,_RNvXs1_NtNtCs9G0t2qE8rAk_9kv_engine9iterators14merge_iteratorINtB5_11HeapWrapperNtNtNtB9_5table8iterator15SsTableIteratorENtNtCslfAf2Mv2Tp5_4core3cmp3Ord3cmpB9_
FN:30,_RNvXs1_NtNtCs9G0t2qE8rAk_9kv_engine9iterators14merge_iteratorINtB5_11HeapWrapperNtNtNtB9_5tests7harness12MockIteratorENtNtCslfAf2Mv2Tp5_4core3cmp3Ord3cmpB9_
FN:30,_RNvXs1_NtNtCs9G0t2qE8rAk_9kv_engine9iterators14merge_iteratorINtB5_11HeapWrapperNtNtNtB9_9mem_table33ouroboros_impl_mem_table_iterator16MemTableIteratorENtNtCslfAf2Mv2Tp5_4core3cmp3Ord3cmpB9_
FN:123,_RNvXs3_NtNtCs9G0t2qE8rAk_9kv_engine9iterators14merge_iteratorINtB5_13MergeIteratorNtNtB7_15concat_iterator17SstConcatIteratorENtB7_15StorageIterator20num_active_iteratorsB9_
FN:68,_RNvXs3_NtNtCs9G0t2qE8rAk_9kv_engine9iterators14merge_iteratorINtB5_13MergeIteratorNtNtB7_15concat_iterator17SstConcatIteratorENtB7_15StorageIterator3keyB9_
FN:80,_RNvXs3_NtNtCs9G0t2qE8rAk_9kv_engine9iterators14merge_iteratorINtB5_13MergeIteratorNtNtB7_15concat_iterator17SstConcatIteratorENtB7_15StorageIterator4nextB9_
FN:72,_RNvXs3_NtNtCs9G0t2qE8rAk_9kv_engine9iterators14merge_iteratorINtB5_13MergeIteratorNtNtB7_15concat_iterator17SstConcatIteratorENtB7_15StorageIterator5valueB9_
FN:76,_RNvXs3_NtNtCs9G0t2qE8rAk_9kv_engine9iterators14merge_iteratorINtB5_13MergeIteratorNtNtB7_15concat_iterator17SstConcatIteratorENtB7_15StorageIterator8is_validB9_
FN:127,_RNvXs3_NtNtCs9G0t2qE8rAk_9kv_engine9iterators14merge_iteratorINtB5_13MergeIteratorNtNtB7_15concat_iterator17SstConcatIteratorENtB7_15StorageIterator9raw_valueB9_
FN:123,_RNvXs3_NtNtCs9G0t2qE8rAk_9kv_engine9iterators14merge_iteratorINtB5_13MergeIteratorNtNtNtB9_5table8iterator15SsTableIteratorENtB7_15StorageIterator20num_active_iteratorsB9_
FN:68,_RNvXs3_NtNtCs9G0t2qE8rAk_9kv_engine9iterators14merge_iteratorINtB5_13MergeIteratorNtNtNtB9_5table8iterator15SsTableIteratorENtB7_15StorageIterator3keyB9_
FN:80,_RNvXs3_NtNtCs9G0t2qE8rAk_9kv_engine9iterators14merge_iteratorINtB5_13MergeIteratorNtNtNtB9_5table8iterator15SsTableIteratorENtB7_15StorageIterator4nextB9_
FN:72,_RNvXs3_NtNtCs9G0t2qE8rAk_9kv_engine9iterators14merge_iteratorINtB5_13MergeIteratorNtNtNtB9_5table8iterator15SsTableIteratorENtB7_15StorageIterator5valueB9_
FN:76,_RNvXs3_NtNtCs9G0t2qE8rAk_9kv_engine9iterators14merge_iteratorINtB5_13MergeIteratorNtNtNtB9_5table8iterator15SsTableIteratorENtB7_15StorageIterator8is_validB9_
FN:127,_RNvXs3_NtNtCs9G0t2qE8rAk_9kv_engine9iterators14merge_iteratorINtB5_13MergeIteratorNtNtNtB9_5table8iterator15SsTableIteratorENtB7_15StorageIterator9raw_valueB9_
FN:68,_RNvXs3_NtNtCs9G0t2qE8rAk_9kv_engine9iterators14merge_iteratorINtB5_13MergeIteratorNtNtNtB9_5tests7harness12MockIteratorENtB7_15StorageIterator3keyB9_
FN:80,_RNvXs3_NtNtCs9G0t2qE8rAk_9kv_engine9iterators14merge_iteratorINtB5_13MergeIteratorNtNtNtB9_5tests7harness12MockIteratorENtB7_15StorageIterator4nextB9_
FN:72,_RNvXs3_NtNtCs9G0t2qE8rAk_9kv_engine9iterators14merge_iteratorINtB5_13MergeIteratorNtNtNtB9_5tests7harness12MockIteratorENtB7_15StorageIterator5valueB9_
FN:76,_RNvXs3_NtNtCs9G0t2qE8rAk_9kv_engine9iterators14merge_iteratorINtB5_13MergeIteratorNtNtNtB9_5tests7harness12MockIteratorENtB7_15StorageIterator8is_validB9_
FN:123,_RNvXs3_NtNtCs9G0t2qE8rAk_9kv_engine9iterators14merge_iteratorINtB5_13MergeIteratorNtNtNtB9_9mem_table33ouroboros_impl_mem_table_iterator16MemTableIteratorENtB7_15StorageIterator20num_active_iteratorsB9_
FN:68,_RNvXs3_NtNtCs9G0t2qE8rAk_9kv_engine9iterators14merge_iteratorINtB5_13MergeIteratorNtNtNtB9_9mem_table33ouroboros_impl_mem_table_iterator16MemTableIteratorENtB7_15StorageIterator3keyB9_
FN:80,_RNvXs3_NtNtCs9G0t2qE8rAk_9kv_engine9iterators14merge_iteratorINtB5_13MergeIteratorNtNtNtB9_9mem_table33ouroboros_impl_mem_table_iterator16MemTableIteratorENtB7_15StorageIterator4nextB9_
FN:72,_RNvXs3_NtNtCs9G0t2qE8rAk_9kv_engine9iterators14merge_iteratorINtB5_13MergeIteratorNtNtNtB9_9mem_table33ouroboros_impl_mem_table_iterator16MemTableIteratorENtB7_15StorageIterator5valueB9_
FN:76,_RNvXs3_NtNtCs9G0t2qE8rAk_9kv_engine9iterators14merge_iteratorINtB5_13MergeIteratorNtNtNtB9_9mem_table33ouroboros_impl_mem_table_iterator16MemTableIteratorENtB7_15StorageIterator8is_validB9_
FN:14,_RNvXININtNtCshcgQatfXnqn_9kv_engine9iterators14merge_iterator0pEINtB5_11HeapWrapperpENtNtCslfAf2Mv2Tp5_4core3cmp9PartialEq2eqB9_
FN:47,_RNvMs2_NtNtCshcgQatfXnqn_9kv_engine9iterators14merge_iteratorINtB5_13MergeIteratorNtNtB7_15concat_iterator17SstConcatIteratorE6createB9_
FN:47,_RNvMs2_NtNtCshcgQatfXnqn_9kv_engine9iterators14merge_iteratorINtB5_13MergeIteratorNtNtNtB9_5table8iterator15SsTableIteratorE6createB9_
FN:47,_RNvMs2_NtNtCshcgQatfXnqn_9kv_engine9iterators14merge_iteratorINtB5_13MergeIteratorNtNtNtB9_9mem_table33ouroboros_impl_mem_table_iterator16MemTableIteratorE6createB9_
FN:24,_RNvXs0_NtNtCshcgQatfXnqn_9kv_engine9iterators14merge_iteratorINtB5_11HeapWrapperNtNtB7_15concat_iterator17SstConcatIteratorENtNtCslfAf2Mv2Tp5_4core3cmp10PartialOrd11partial_cmpB9_
FN:24,_RNvXs0_NtNtCshcgQatfXnqn_9kv_engine9iterators14merge_iteratorINtB5_11HeapWrapperNtNtNtB9_5table8iterator15SsTableIteratorENtNtCslfAf2Mv2Tp5_4core3cmp10PartialOrd11partial_cmpB9_
FN:24,_RNvXs0_NtNtCshcgQatfXnqn_9kv_engine9iterators14merge_iteratorINtB5_11HeapWrapperNtNtNtB9_9mem_table33ouroboros_impl_mem_table_iterator16MemTableIteratorENtNtCslfAf2Mv2Tp5_4core3cmp10PartialOrd11partial_cmpB9_
FN:30,_RNvXs1_NtNtCshcgQatfXnqn_9kv_engine9iterators14merge_iteratorINtB5_11HeapWrapperNtNtB7_15concat_iterator17SstConcatIteratorENtNtCslfAf2Mv2Tp5_4core3cmp3Ord3cmpB9_
FN:30,_RNvXs1_NtNtCshcgQatfXnqn_9kv_engine9iterators14merge_iteratorINtB5_11HeapWrapperNtNtNtB9_5table8iterator15SsTableIteratorENtNtCslfAf2Mv2Tp5_4core3cmp3Ord3cmpB9_
FN:30,_RNvXs1_NtNtCshcgQatfXnqn_9kv_engine9iterators14merge_iteratorINtB5_11HeapWrapperNtNtNtB9_9mem_table33ouroboros_impl_mem_table_iterator16MemTableIteratorENtNtCslfAf2Mv2Tp5_4core3cmp3Ord3cmpB9_
FN:123,_RNvXs3_NtNtCshcgQatfXnqn_9kv_engine9iterators14merge_iteratorINtB5_13MergeIteratorNtNtB7_15concat_iterator17SstConcatIteratorENtB7_15StorageIterator20num_active_iteratorsB9_
FN:68,_RNvXs3_NtNtCshcgQatfXnqn_9kv_engine9iterators14merge_iteratorINtB5_13MergeIteratorNtNtB7_15concat_iterator17SstConcatIteratorENtB7_15StorageIterator3keyB9_
FN:80,_RNvXs3_NtNtCshcgQatfXnqn_9kv_engine9iterators14merge_iteratorINtB5_13MergeIteratorNtNtB7_15concat_iterator17SstConcatIteratorENtB7_15StorageIterator4nextB9_
FN:72,_RNvXs3_NtNtCshcgQatfXnqn_9kv_engine9iterators14merge_iteratorINtB5_13MergeIteratorNtNtB7_15concat_iterator17SstConcatIteratorENtB7_15StorageIterator5valueB9_
FN:76,_RNvXs3_NtNtCshcgQatfXnqn_9kv_engine9iterators14merge_iteratorINtB5_13MergeIteratorNtNtB7_15concat_iterator17SstConcatIteratorENtB7_15StorageIterator8is_validB9_
FN:127,_RNvXs3_NtNtCshcgQatfXnqn_9kv_engine9iterators14merge_iteratorINtB5_13MergeIteratorNtNtB7_15concat_iterator17SstConcatIteratorENtB7_15StorageIterator9raw_valueB9_
FN:123,_RNvXs3_NtNtCshcgQatfXnqn_9kv_engine9iterators14merge_iteratorINtB5_13MergeIteratorNtNtNtB9_5table8iterator15SsTableIteratorENtB7_15StorageIterator20num_active_iteratorsB9_
FN:68,_RNvXs3_NtNtCshcgQatfXnqn_9kv_engine9iterators14merge_iteratorINtB5_13MergeIteratorNtNtNtB9_5table8iterator15SsTableIteratorENtB7_15StorageIterator3keyB9_
FN:80,_RNvXs3_NtNtCshcgQatfXnqn_9kv_engine9iterators14merge_iteratorINtB5_13MergeIteratorNtNtNtB9_5table8iterator15SsTableIteratorENtB7_15StorageIterator4nextB9_
FN:72,_RNvXs3_NtNtCshcgQatfXnqn_9kv_engine9iterators14merge_iteratorINtB5_13MergeIteratorNtNtNtB9_5table8iterator15SsTableIteratorENtB7_15StorageIterator5valueB9_
FN:76,_RNvXs3_NtNtCshcgQatfXnqn_9kv_engine9iterators14merge_iteratorINtB5_13MergeIteratorNtNtNtB9_5table8iterator15SsTableIteratorENtB7_15StorageIterator8is_validB9_
FN:127,_RNvXs3_NtNtCshcgQatfXnqn_9kv_engine9iterators14merge_iteratorINtB5_13MergeIteratorNtNtNtB9_5table8iterator15SsTableIteratorENtB7_15StorageIterator9raw_valueB9_
FN:123,_RNvXs3_NtNtCshcgQatfXnqn_9kv_engine9iterators14merge_iteratorINtB5_13MergeIteratorNtNtNtB9_9mem_table33ouroboros_impl_mem_table_iterator16MemTableIteratorENtB7_15StorageIterator20num_active_iteratorsB9_
FN:68,_RNvXs3_NtNtCshcgQatfXnqn_9kv_engine9iterators14merge_iteratorINtB5_13MergeIteratorNtNtNtB9_9mem_table33ouroboros_impl_mem_table_iterator16MemTableIteratorENtB7_15StorageIterator3keyB9_
FN:80,_RNvXs3_NtNtCshcgQatfXnqn_9kv_engine9iterators14merge_iteratorINtB5_13MergeIteratorNtNtNtB9_9mem_table33ouroboros_impl_mem_table_iterator16MemTableIteratorENtB7_15StorageIterator4nextB9_
FN:72,_RNvXs3_NtNtCshcgQatfXnqn_9kv_engine9iterators14merge_iteratorINtB5_13MergeIteratorNtNtNtB9_9mem_table33ouroboros_impl_mem_table_iterator16MemTableIteratorENtB7_15StorageIterator5valueB9_
FN:76,_RNvXs3_NtNtCshcgQatfXnqn_9kv_engine9iterators14merge_iteratorINtB5_13MergeIteratorNtNtNtB9_9mem_table33ouroboros_impl_mem_table_iterator16MemTableIteratorENtB7_15StorageIterator8is_validB9_
FNDA:0,_RNvXININtNtCs9G0t2qE8rAk_9kv_engine9iterators14merge_iterator0pEINtB5_11HeapWrapperpENtNtCslfAf2Mv2Tp5_4core3cmp9PartialEq2eqB9_
FNDA:79,_RNvMs2_NtNtCs9G0t2qE8rAk_9kv_engine9iterators14merge_iteratorINtB5_13MergeIteratorNtNtB7_15concat_iterator17SstConcatIteratorE6createB9_
FNDA:130,_RNvMs2_NtNtCs9G0t2qE8rAk_9kv_engine9iterators14merge_iteratorINtB5_13MergeIteratorNtNtNtB9_5table8iterator15SsTableIteratorE6createB9_
FNDA:9,_RNvMs2_NtNtCs9G0t2qE8rAk_9kv_engine9iterators14merge_iteratorINtB5_13MergeIteratorNtNtNtB9_5tests7harness12MockIteratorE6createB9_
FNDA:79,_RNvMs2_NtNtCs9G0t2qE8rAk_9kv_engine9iterators14merge_iteratorINtB5_13MergeIteratorNtNtNtB9_9mem_table33ouroboros_impl_mem_table_iterator16MemTableIteratorE6createB9_
FNDA:0,_RNvXs0_NtNtCs9G0t2qE8rAk_9kv_engine9iterators14merge_iteratorINtB5_11HeapWrapperNtNtB7_15concat_iterator17SstConcatIteratorENtNtCslfAf2Mv2Tp5_4core3cmp10PartialOrd11partial_cmpB9_
FNDA:1364,_RNvXs0_NtNtCs9G0t2qE8rAk_9kv_engine9iterators14merge_iteratorINtB5_11HeapWrapperNtNtNtB9_5table8iterator15SsTableIteratorENtNtCslfAf2Mv2Tp5_4core3cmp10PartialOrd11partial_cmpB9_
FNDA:52,_RNvXs0_NtNtCs9G0t2qE8rAk_9kv_engine9iterators14merge_iteratorINtB5_11HeapWrapperNtNtNtB9_5tests7harness12MockIteratorENtNtCslfAf2Mv2Tp5_4core3cmp10PartialOrd11partial_cmpB9_
FNDA:36,_RNvXs0_NtNtCs9G0t2qE8rAk_9kv_engine9iterators14merge_iteratorINtB5_11HeapWrapperNtNtNtB9_9mem_table33ouroboros_impl_mem_table_iterator16MemTableIteratorENtNtCslfAf2Mv2Tp5_4core3cmp10PartialOrd11partial_cmpB9_
FNDA:0,_RNvXs1_NtNtCs9G0t2qE8rAk_9kv_engine9iterators14merge_iteratorINtB5_11HeapWrapperNtNtB7_15concat_iterator17SstConcatIteratorENtNtCslfAf2Mv2Tp5_4core3cmp3Ord3cmpB9_
FNDA:1364,_RNvXs1_NtNtCs9G0t2qE8rAk_9kv_engine9iterators14merge_iteratorINtB5_11HeapWrapperNtNtNtB9_5table8iterator15SsTableIteratorENtNtCslfAf2Mv2Tp5_4core3cmp3Ord3cmpB9_
FNDA:52,_RNvXs1_NtNtCs9G0t2qE8rAk_9kv_engine9iterators14merge_iteratorINtB5_11HeapWrapperNtNtNtB9_5tests7harness12MockIteratorENtNtCslfAf2Mv2Tp5_4core3cmp3Ord3cmpB9_
FNDA:36,_RNvXs1_NtNtCs9G0t2qE8rAk_9kv_engine9iterators14merge_iteratorINtB5_11HeapWrapperNtNtNtB9_9mem_table33ouroboros_impl_mem_table_iterator16MemTableIteratorENtNtCslfAf2Mv2Tp5_4core3cmp3Ord3cmpB9_
FNDA:9,_RNvXs3_NtNtCs9G0t2qE8rAk_9kv_engine9iterators14merge_iteratorINtB5_13MergeIteratorNtNtB7_15concat_iterator17SstConcatIteratorENtB7_15StorageIterator20num_active_iteratorsB9_
FNDA:220,_RNvXs3_NtNtCs9G0t2qE8rAk_9kv_engine9iterators14merge_iteratorINtB5_13MergeIteratorNtNtB7_15concat_iterator17SstConcatIteratorENtB7_15StorageIterator3keyB9_
FNDA:28,_RNvXs3_NtNtCs9G0t2qE8rAk_9kv_engine9iterators14merge_iteratorINtB5_13MergeIteratorNtNtB7_15concat_iterator17SstConcatIteratorENtB7_15StorageIterator4nextB9_
FNDA:36,_RNvXs3_NtNtCs9G0t2qE8rAk_9kv_engine9iterators14merge_iteratorINtB5_13MergeIteratorNtNtB7_15concat_iterator17SstConcatIteratorENtB7_15StorageIterator5valueB9_
FNDA:904,_RNvXs3_NtNtCs9G0t2qE8rAk_9kv_engine9iterators14merge_iteratorINtB5_13MergeIteratorNtNtB7_15concat_iterator17SstConcatIteratorENtB7_15StorageIterator8is_validB9_
FNDA:0,_RNvXs3_NtNtCs9G0t2qE8rAk_9kv_engine9iterators14merge_iteratorINtB5_13MergeIteratorNtNtB7_15concat_iterator17SstConcatIteratorENtB7_15StorageIterator9raw_valueB9_
FNDA:9,_RNvXs3_NtNtCs9G0t2qE8rAk_9kv_engine9iterators14merge_iteratorINtB5_13MergeIteratorNtNtNtB9_5table8iterator15SsTableIteratorENtB7_15StorageIterator20num_active_iteratorsB9_
FNDA:5376,_RNvXs3_NtNtCs9G0t2qE8rAk_9kv_engine9iterators14merge_iteratorINtB5_13MergeIteratorNtNtNtB9_5table8iterator15SsTableIteratorENtB7_15StorageIterator3keyB9_
FNDA:2542,_RNvXs3_NtNtCs9G0t2qE8rAk_9kv_engine9iterators14merge_iteratorINtB5_13MergeIteratorNtNtNtB9_5table8iterator15SsTableIteratorENtB7_15StorageIterator4nextB9_
FNDA:131,_RNvXs3_NtNtCs9G0t2qE8rAk_9kv_engine9iterators14merge_iteratorINtB5_13MergeIteratorNtNtNtB9_5table8iterator15SsTableIteratorENtB7_15StorageIterator5valueB9_
FNDA:5907,_RNvXs3_NtNtCs9G0t2qE8rAk_9kv_engine9iterators14merge_iteratorINtB5_13MergeIteratorNtNtNtB9_5table8iterator15SsTableIteratorENtB7_15StorageIterator8is_validB9_
FNDA:4858,_RNvXs3_NtNtCs9G0t2qE8rAk_9kv_engine9iterators14merge_iteratorINtB5_13MergeIteratorNtNtNtB9_5table8iterator15SsTableIteratorENtB7_15StorageIterator9raw_valueB9_
FNDA:46,_RNvXs3_NtNtCs9G0t2qE8rAk_9kv_engine9iterators14merge_iteratorINtB5_13MergeIteratorNtNtNtB9_5tests7harness12MockIteratorENtB7_15StorageIterator3keyB9_
FNDA:47,_RNvXs3_NtNtCs9G0t2qE8rAk_9kv_engine9iterators14merge_iteratorINtB5_13MergeIteratorNtNtNtB9_5tests7harness12MockIteratorENtB7_15StorageIterator4nextB9_
FNDA:46,_RNvXs3_NtNtCs9G0t2qE8rAk_9kv_engine9iterators14merge_iteratorINtB5_13MergeIteratorNtNtNtB9_5tests7harness12MockIteratorENtB7_15StorageIterator5valueB9_
FNDA:54,_RNvXs3_NtNtCs9G0t2qE8rAk_9kv_engine9iterators14merge_iteratorINtB5_13MergeIteratorNtNtNtB9_5tests7harness12MockIteratorENtB7_15StorageIterator8is_validB9_
FNDA:9,_RNvXs3_NtNtCs9G0t2qE8rAk_9kv_engine9iterators14merge_iteratorINtB5_13MergeIteratorNtNtNtB9_9mem_table33ouroboros_impl_mem_table_iterator16MemTableIteratorENtB7_15StorageIterator20num_active_iteratorsB9_
FNDA:905,_RNvXs3_NtNtCs9G0t2qE8rAk_9kv_engine9iterators14merge_iteratorINtB5_13MergeIteratorNtNtNtB9_9mem_table33ouroboros_impl_mem_table_iterator16MemTableIteratorENtB7_15StorageIterator3keyB9_
FNDA:137,_RNvXs3_NtNtCs9G0t2qE8rAk_9kv_engine9iterators14merge_iteratorINtB5_13MergeIteratorNtNtNtB9_9mem_table33ouroboros_impl_mem_table_iterator16MemTableIteratorENtB7_15StorageIterator4nextB9_
FNDA:184,_RNvXs3_NtNtCs9G0t2qE8rAk_9kv_engine9iterators14merge_iteratorINtB5_13MergeIteratorNtNtNtB9_9mem_table33ouroboros_impl_mem_table_iterator16MemTableIteratorENtB7_15StorageIterator5valueB9_
FNDA:1395,_RNvXs3_NtNtCs9G0t2qE8rAk_9kv_engine9iterators14merge_iteratorINtB5_13MergeIteratorNtNtNtB9_9mem_table33ouroboros_impl_mem_table_iterator16MemTableIteratorENtB7_15StorageIterator8is_validB9_
FNDA:0,_RNvXININtNtCshcgQatfXnqn_9kv_engine9iterators14merge_iterator0pEINtB5_11HeapWrapperpENtNtCslfAf2Mv2Tp5_4core3cmp9PartialEq2eqB9_
FNDA:0,_RNvMs2_NtNtCshcgQatfXnqn_9kv_engine9iterators14merge_iteratorINtB5_13MergeIteratorNtNtB7_15concat_iterator17SstConcatIteratorE6createB9_
FNDA:0,_RNvMs2_NtNtCshcgQatfXnqn_9kv_engine9iterators14merge_iteratorINtB5_13MergeIteratorNtNtNtB9_5table8iterator15SsTableIteratorE6createB9_
FNDA:0,_RNvMs2_NtNtCshcgQatfXnqn_9kv_engine9iterators14merge_iteratorINtB5_13MergeIteratorNtNtNtB9_9mem_table33ouroboros_impl_mem_table_iterator16MemTableIteratorE6createB9_
FNDA:0,_RNvXs0_NtNtCshcgQatfXnqn_9kv_engine9iterators14merge_iteratorINtB5_11HeapWrapperNtNtB7_15concat_iterator17SstConcatIteratorENtNtCslfAf2Mv2Tp5_4core3cmp10PartialOrd11partial_cmpB9_
FNDA:0,_RNvXs0_NtNtCshcgQatfXnqn_9kv_engine9iterators14merge_iteratorINtB5_11HeapWrapperNtNtNtB9_5table8iterator15SsTableIteratorENtNtCslfAf2Mv2Tp5_4core3cmp10PartialOrd11partial_cmpB9_
FNDA:0,_RNvXs0_NtNtCshcgQatfXnqn_9kv_engine9iterators14merge_iteratorINtB5_11HeapWrapperNtNtNtB9_9mem_table33ouroboros_impl_mem_table_iterator16MemTableIteratorENtNtCslfAf2Mv2Tp5_4core3cmp10PartialOrd11partial_cmpB9_
FNDA:0,_RNvXs1_NtNtCshcgQatfXnqn_9kv_engine9iterators14merge_iteratorINtB5_11HeapWrapperNtNtB7_15concat_iterator17SstConcatIteratorENtNtCslfAf2Mv2Tp5_4core3cmp3Ord3cmpB9_
FNDA:0,_RNvXs1_NtNtCshcgQatfXnqn_9kv_engine9iterators14merge_iteratorINtB5_11HeapWrapperNtNtNtB9_5table8iterator15SsTableIteratorENtNtCslfAf2Mv2Tp5_4core3cmp3Ord3cmpB9_
FNDA:0,_RNvXs1_NtNtCshcgQatfXnqn_9kv_engine9iterators14merge_iteratorINtB5_11HeapWrapperNtNtNtB9_9mem_table33ouroboros_impl_mem_table_iterator16MemTableIteratorENtNtCslfAf2Mv2Tp5_4core3cmp3Ord3cmpB9_
FNDA:0,_RNvXs3_NtNtCshcgQatfXnqn_9kv_engine9iterators14merge_iteratorINtB5_13MergeIteratorNtNtB7_15concat_iterator17SstConcatIteratorENtB7_15StorageIterator20num_active_iteratorsB9_
FNDA:0,_RNvXs3_NtNtCshcgQatfXnqn_9kv_engine9iterators14merge_iteratorINtB5_13MergeIteratorNtNtB7_15concat_iterator17SstConcatIteratorENtB7_15StorageIterator3keyB9_
FNDA:0,_RNvXs3_NtNtCshcgQatfXnqn_9kv_engine9iterators14merge_iteratorINtB5_13MergeIteratorNtNtB7_15concat_iterator17SstConcatIteratorENtB7_15StorageIterator4nextB9_
FNDA:0,_RNvXs3_NtNtCshcgQatfXnqn_9kv_engine9iterators14merge_iteratorINtB5_13MergeIteratorNtNtB7_15concat_iterator17SstConcatIteratorENtB7_15StorageIterator5valueB9_
FNDA:0,_RNvXs3_NtNtCshcgQatfXnqn_9kv_engine9iterators14merge_iteratorINtB5_13MergeIteratorNtNtB7_15concat_iterator17SstConcatIteratorENtB7_15StorageIterator8is_validB9_
FNDA:0,_RNvXs3_NtNtCshcgQatfXnqn_9kv_engine9iterators14merge_iteratorINtB5_13MergeIteratorNtNtB7_15concat_iterator17SstConcatIteratorENtB7_15StorageIterator9raw_valueB9_
FNDA:0,_RNvXs3_NtNtCshcgQatfXnqn_9kv_engine9iterators14merge_iteratorINtB5_13MergeIteratorNtNtNtB9_5table8iterator15SsTableIteratorENtB7_15StorageIterator20num_active_iteratorsB9_
FNDA:0,_RNvXs3_NtNtCshcgQatfXnqn_9kv_engine9iterators14merge_iteratorINtB5_13MergeIteratorNtNtNtB9_5table8iterator15SsTableIteratorENtB7_15StorageIterator3keyB9_
FNDA:0,_RNvXs3_NtNtCshcgQatfXnqn_9kv_engine9iterators14merge_iteratorINtB5_13MergeIteratorNtNtNtB9_5table8iterator15SsTableIteratorENtB7_15StorageIterator4nextB9_
FNDA:0,_RNvXs3_NtNtCshcgQatfXnqn_9kv_engine9iterators14merge_iteratorINtB5_13MergeIteratorNtNtNtB9_5table8iterator15SsTableIteratorENtB7_15StorageIterator5valueB9_
FNDA:0,_RNvXs3_NtNtCshcgQatfXnqn_9kv_engine9iterators14merge_iteratorINtB5_13MergeIteratorNtNtNtB9_5table8iterator15SsTableIteratorENtB7_15StorageIterator8is_validB9_
FNDA:0,_RNvXs3_NtNtCshcgQatfXnqn_9kv_engine9iterators14merge_iteratorINtB5_13MergeIteratorNtNtNtB9_5table8iterator15SsTableIteratorENtB7_15StorageIterator9raw_valueB9_
FNDA:0,_RNvXs3_NtNtCshcgQatfXnqn_9kv_engine9iterators14merge_iteratorINtB5_13MergeIteratorNtNtNtB9_9mem_table33ouroboros_impl_mem_table_iterator16MemTableIteratorENtB7_15StorageIterator20num_active_iteratorsB9_
FNDA:0,_RNvXs3_NtNtCshcgQatfXnqn_9kv_engine9iterators14merge_iteratorINtB5_13MergeIteratorNtNtNtB9_9mem_table33ouroboros_impl_mem_table_iterator16MemTableIteratorENtB7_15StorageIterator3keyB9_
FNDA:0,_RNvXs3_NtNtCshcgQatfXnqn_9kv_engine9iterators14merge_iteratorINtB5_13MergeIteratorNtNtNtB9_9mem_table33ouroboros_impl_mem_table_iterator16MemTableIteratorENtB7_15StorageIterator4nextB9_
FNDA:0,_RNvXs3_NtNtCshcgQatfXnqn_9kv_engine9iterators14merge_iteratorINtB5_13MergeIteratorNtNtNtB9_9mem_table33ouroboros_impl_mem_table_iterator16MemTableIteratorENtB7_15StorageIterator5valueB9_
FNDA:0,_RNvXs3_NtNtCshcgQatfXnqn_9kv_engine9iterators14merge_iteratorINtB5_13MergeIteratorNtNtNtB9_9mem_table33ouroboros_impl_mem_table_iterator16MemTableIteratorENtB7_15StorageIterator8is_validB9_
FNF:10
FNH:9
DA:14,0
DA:15,0
DA:16,0
DA:24,1452
DA:25,1452
DA:26,1452
DA:30,1452
DA:31,1452
DA:32,1452
DA:33,1452
DA:34,1452
DA:35,1452
DA:36,1452
DA:47,297
DA:48,297
DA:49,297
DA:50,261
DA:51,221
DA:52,221
DA:55,297
DA:56,297
DA:57,297
DA:58,297
DA:59,297
DA:60,297
DA:68,6547
DA:69,6547
DA:70,6547
DA:72,397
DA:73,397
DA:74,397
DA:76,8260
DA:77,8260
DA:78,8260
DA:80,2754
DA:81,2754
DA:83,2768
DA:84,1386
DA:86,15
DA:87,14
DA:88,14
DA:89,3
DA:90,11
DA:93,1
DA:94,1
DA:95,1
DA:99,1371
DA:103,2753
DA:105,2753
DA:106,182
DA:107,69
DA:108,113
DA:109,182
DA:110,2571
DA:112,2571
DA:114,1302
DA:115,60
DA:116,60
DA:117,1242
DA:118,1269
DA:120,2571
DA:121,2754
DA:123,27
DA:124,27
DA:125,27
DA:127,4858
DA:128,4858
DA:129,4858
BRF:0
BRH:0
LF:68
LH:65
end_of_record
SF:/home/liu/proj/toy-kv-engine/kv-engine/src/iterators/two_merge_iterator.rs
FN:29,_RNvMNtNtCs9G0t2qE8rAk_9kv_engine9iterators18two_merge_iteratorINtB2_16TwoMergeIteratorIBZ_INtNtB4_14merge_iterator13MergeIteratorNtNtNtB6_9mem_table33ouroboros_impl_mem_table_iterator16MemTableIteratorEIB1r_NtNtNtB6_5table8iterator15SsTableIteratorEEIB1r_NtNtB4_15concat_iterator17SstConcatIteratorEE10set_from_aB6_
FN:18,_RNvMNtNtCs9G0t2qE8rAk_9kv_engine9iterators18two_merge_iteratorINtB2_16TwoMergeIteratorIBZ_INtNtB4_14merge_iterator13MergeIteratorNtNtNtB6_9mem_table33ouroboros_impl_mem_table_iterator16MemTableIteratorEIB1r_NtNtNtB6_5table8iterator15SsTableIteratorEEIB1r_NtNtB4_15concat_iterator17SstConcatIteratorEE6createB6_
FN:29,_RNvMNtNtCs9G0t2qE8rAk_9kv_engine9iterators18two_merge_iteratorINtB2_16TwoMergeIteratorINtNtB4_14merge_iterator13MergeIteratorNtNtNtB6_5table8iterator15SsTableIteratorENtNtB4_15concat_iterator17SstConcatIteratorE10set_from_aB6_
FN:18,_RNvMNtNtCs9G0t2qE8rAk_9kv_engine9iterators18two_merge_iteratorINtB2_16TwoMergeIteratorINtNtB4_14merge_iterator13MergeIteratorNtNtNtB6_5table8iterator15SsTableIteratorENtNtB4_15concat_iterator17SstConcatIteratorE6createB6_
FN:29,_RNvMNtNtCs9G0t2qE8rAk_9kv_engine9iterators18two_merge_iteratorINtB2_16TwoMergeIteratorINtNtB4_14merge_iterator13MergeIteratorNtNtNtB6_9mem_table33ouroboros_impl_mem_table_iterator16MemTableIteratorEIB1n_NtNtNtB6_5table8iterator15SsTableIteratorEE10set_from_aB6_
FN:18,_RNvMNtNtCs9G0t2qE8rAk_9kv_engine9iterators18two_merge_iteratorINtB2_16TwoMergeIteratorINtNtB4_14merge_iterator13MergeIteratorNtNtNtB6_9mem_table33ouroboros_impl_mem_table_iterator16MemTableIteratorEIB1n_NtNtNtB6_5table8iterator15SsTableIteratorEE6createB6_
FN:29,_RNvMNtNtCs9G0t2qE8rAk_9kv_engine9iterators18two_merge_iteratorINtB2_16TwoMergeIteratorNtNtB4_15concat_iterator17SstConcatIteratorB1m_E10set_from_aB6_
FN:18,_RNvMNtNtCs9G0t2qE8rAk_9kv_engine9iterators18two_merge_iteratorINtB2_16TwoMergeIteratorNtNtB4_15concat_iterator17SstConcatIteratorB1m_E6createB6_
FN:29,_RNvMNtNtCs9G0t2qE8rAk_9kv_engine9iterators18two_merge_iteratorINtB2_16TwoMergeIteratorNtNtNtB6_5tests7harness12MockIteratorB1m_E10set_from_aB6_
FN:18,_RNvMNtNtCs9G0t2qE8rAk_9kv_engine9iterators18two_merge_iteratorINtB2_16TwoMergeIteratorNtNtNtB6_5tests7harness12MockIteratorB1m_E6createB6_
FN:29,_RNvMNtNtCs9G0t2qE8rAk_9kv_engine9iterators18two_merge_iteratorINtB2_16TwoMergeIteratorNtNtNtNtB6_4mvcc3txn33ouroboros_impl_txn_local_iterator16TxnLocalIteratorINtNtB6_12lsm_iterator13FusedIteratorNtB2A_11LsmIteratorEE10set_from_aB6_
FN:18,_RNvMNtNtCs9G0t2qE8rAk_9kv_engine9iterators18two_merge_iteratorINtB2_16TwoMergeIteratorNtNtNtNtB6_4mvcc3txn33ouroboros_impl_txn_local_iterator16TxnLocalIteratorINtNtB6_12lsm_iterator13FusedIteratorNtB2A_11LsmIteratorEE6createB6_
FN:90,_RNvXs_NtNtCs9G0t2qE8rAk_9kv_engine9iterators18two_merge_iteratorINtB4_16TwoMergeIteratorIB11_INtNtB6_14merge_iterator13MergeIteratorNtNtNtB8_9mem_table33ouroboros_impl_mem_table_iterator16MemTableIteratorEIB1u_NtNtNtB8_5table8iterator15SsTableIteratorEEIB1u_NtNtB6_15concat_iterator17SstConcatIteratorEENtB6_15StorageIterator20num_active_iteratorsB8_
FN:50,_RNvXs_NtNtCs9G0t2qE8rAk_9kv_engine9iterators18two_merge_iteratorINtB4_16TwoMergeIteratorIB11_INtNtB6_14merge_iterator13MergeIteratorNtNtNtB8_9mem_table33ouroboros_impl_mem_table_iterator16MemTableIteratorEIB1u_NtNtNtB8_5table8iterator15SsTableIteratorEEIB1u_NtNtB6_15concat_iterator17SstConcatIteratorEENtB6_15StorageIterator3keyB8_
FN:74,_RNvXs_NtNtCs9G0t2qE8rAk_9kv_engine9iterators18two_merge_iteratorINtB4_16TwoMergeIteratorIB11_INtNtB6_14merge_iterator13MergeIteratorNtNtNtB8_9mem_table33ouroboros_impl_mem_table_iterator16MemTableIteratorEIB1u_NtNtNtB8_5table8iterator15SsTableIteratorEEIB1u_NtNtB6_15concat_iterator17SstConcatIteratorEENtB6_15StorageIterator4nextB8_
FN:58,_RNvXs_NtNtCs9G0t2qE8rAk_9kv_engine9iterators18two_merge_iteratorINtB4_16TwoMergeIteratorIB11_INtNtB6_14merge_iterator13MergeIteratorNtNtNtB8_9mem_table33ouroboros_impl_mem_table_iterator16MemTableIteratorEIB1u_NtNtNtB8_5table8iterator15SsTableIteratorEEIB1u_NtNtB6_15concat_iterator17SstConcatIteratorEENtB6_15StorageIterator5valueB8_
FN:66,_RNvXs_NtNtCs9G0t2qE8rAk_9kv_engine9iterators18two_merge_iteratorINtB4_16TwoMergeIteratorIB11_INtNtB6_14merge_iterator13MergeIteratorNtNtNtB8_9mem_table33ouroboros_impl_mem_table_iterator16MemTableIteratorEIB1u_NtNtNtB8_5table8iterator15SsTableIteratorEEIB1u_NtNtB6_15concat_iterator17SstConcatIteratorEENtB6_15StorageIterator8is_validB8_
FN:50,_RNvXs_NtNtCs9G0t2qE8rAk_9kv_engine9iterators18two_merge_iteratorINtB4_16TwoMergeIteratorINtNtB6_14merge_iterator13MergeIteratorNtNtNtB8_5table8iterator15SsTableIteratorENtNtB6_15concat_iterator17SstConcatIteratorENtB6_15StorageIterator3keyB8_
FN:74,_RNvXs_NtNtCs9G0t2qE8rAk_9kv_engine9iterators18two_merge_iteratorINtB4_16TwoMergeIteratorINtNtB6_14merge_iterator13MergeIteratorNtNtNtB8_5table8iterator15SsTableIteratorENtNtB6_15concat_iterator17SstConcatIteratorENtB6_15StorageIterator4nextB8_
FN:66,_RNvXs_NtNtCs9G0t2qE8rAk_9kv_engine9iterators18two_merge_iteratorINtB4_16TwoMergeIteratorINtNtB6_14merge_iterator13MergeIteratorNtNtNtB8_5table8iterator15SsTableIteratorENtNtB6_15concat_iterator17SstConcatIteratorENtB6_15StorageIterator8is_validB8_
FN:94,_RNvXs_NtNtCs9G0t2qE8rAk_9kv_engine9iterators18two_merge_iteratorINtB4_16TwoMergeIteratorINtNtB6_14merge_iterator13MergeIteratorNtNtNtB8_5table8iterator15SsTableIteratorENtNtB6_15concat_iterator17SstConcatIteratorENtB6_15StorageIterator9raw_valueB8_
FN:90,_RNvXs_NtNtCs9G0t2qE8rAk_9kv_engine9iterators18two_merge_iteratorINtB4_16TwoMergeIteratorINtNtB6_14merge_iterator13MergeIteratorNtNtNtB8_9mem_table33ouroboros_impl_mem_table_iterator16MemTableIteratorEIB1p_NtNtNtB8_5table8iterator15SsTableIteratorEENtB6_15StorageIterator20num_active_iteratorsB8_
FN:50,_RNvXs_NtNtCs9G0t2qE8rAk_9kv_engine9iterators18two_merge_iteratorINtB4_16TwoMergeIteratorINtNtB6_14merge_iterator13MergeIteratorNtNtNtB8_9mem_table33ouroboros_impl_mem_table_iterator16MemTableIteratorEIB1p_NtNtNtB8_5table8iterator15SsTableIteratorEENtB6_15StorageIterator3keyB8_
FN:74,_RNvXs_NtNtCs9G0t2qE8rAk_9kv_engine9iterators18two_merge_iteratorINtB4_16TwoMergeIteratorINtNtB6_14merge_iterator13MergeIteratorNtNtNtB8_9mem_table33ouroboros_impl_mem_table_iterator16MemTableIteratorEIB1p_NtNtNtB8_5table8iterator15SsTableIteratorEENtB6_15StorageIterator4nextB8_
FN:58,_RNvXs_NtNtCs9G0t2qE8rAk_9kv_engine9iterators18two_merge_iteratorINtB4_16TwoMergeIteratorINtNtB6_14merge_iterator13MergeIteratorNtNtNtB8_9mem_table33ouroboros_impl_mem_table_iterator16MemTableIteratorEIB1p_NtNtNtB8_5table8iterator15SsTableIteratorEENtB6_15StorageIterator5valueB8_
FN:66,_RNvXs_NtNtCs9G0t2qE8rAk_9kv_engine9iterators18two_merge_iteratorINtB4_16TwoMergeIteratorINtNtB6_14merge_iterator13MergeIteratorNtNtNtB8_9mem_table33ouroboros_impl_mem_table_iterator16MemTableIteratorEIB1p_NtNtNtB8_5table8iterator15SsTableIteratorEENtB6_15StorageIterator8is_validB8_
FN:50,_RNvXs_NtNtCs9G0t2qE8rAk_9kv_engine9iterators18two_merge_iteratorINtB4_16TwoMergeIteratorNtNtB6_15concat_iterator17SstConcatIteratorB1o_ENtB6_15StorageIterator3keyB8_
FN:74,_RNvXs_NtNtCs9G0t2qE8rAk_9kv_engine9iterators18two_merge_iteratorINtB4_16TwoMergeIteratorNtNtB6_15concat_iterator17SstConcatIteratorB1o_ENtB6_15StorageIterator4nextB8_
FN:66,_RNvXs_NtNtCs9G0t2qE8rAk_9kv_engine9iterators18two_merge_iteratorINtB4_16TwoMergeIteratorNtNtB6_15concat_iterator17SstConcatIteratorB1o_ENtB6_15StorageIterator8is_validB8_
FN:94,_RNvXs_NtNtCs9G0t2qE8rAk_9kv_engine9iterators18two_merge_iteratorINtB4_16TwoMergeIteratorNtNtB6_15concat_iterator17SstConcatIteratorB1o_ENtB6_15StorageIterator9raw_valueB8_
FN:50,_RNvXs_NtNtCs9G0t2qE8rAk_9kv_engine9iterators18two_merge_iteratorINtB4_16TwoMergeIteratorNtNtNtB8_5tests7harness12MockIteratorB1o_ENtB6_15StorageIterator3keyB8_
FN:74,_RNvXs_NtNtCs9G0t2qE8rAk_9kv_engine9iterators18two_merge_iteratorINtB4_16TwoMergeIteratorNtNtNtB8_5tests7harness12MockIteratorB1o_ENtB6_15StorageIterator4nextB8_
FN:58,_RNvXs_NtNtCs9G0t2qE8rAk_9kv_engine9iterators18two_merge_iteratorINtB4_16TwoMergeIteratorNtNtNtB8_5tests7harness12MockIteratorB1o_ENtB6_15StorageIterator5valueB8_
FN:66,_RNvXs_NtNtCs9G0t2qE8rAk_9kv_engine9iterators18two_merge_iteratorINtB4_16TwoMergeIteratorNtNtNtB8_5tests7harness12MockIteratorB1o_ENtB6_15StorageIterator8is_validB8_
FN:50,_RNvXs_NtNtCs9G0t2qE8rAk_9kv_engine9iterators18two_merge_iteratorINtB4_16TwoMergeIteratorNtNtNtNtB8_4mvcc3txn33ouroboros_impl_txn_local_iterator16TxnLocalIteratorINtNtB8_12lsm_iterator13FusedIteratorNtB2C_11LsmIteratorEENtB6_15StorageIterator3keyB8_
FN:74,_RNvXs_NtNtCs9G0t2qE8rAk_9kv_engine9iterators18two_merge_iteratorINtB4_16TwoMergeIteratorNtNtNtNtB8_4mvcc3txn33ouroboros_impl_txn_local_iterator16TxnLocalIteratorINtNtB8_12lsm_iterator13FusedIteratorNtB2C_11LsmIteratorEENtB6_15StorageIterator4nextB8_
FN:58,_RNvXs_NtNtCs9G0t2qE8rAk_9kv_engine9iterators18two_merge_iteratorINtB4_16TwoMergeIteratorNtNtNtNtB8_4mvcc3txn33ouroboros_impl_txn_local_iterator16TxnLocalIteratorINtNtB8_12lsm_iterator13FusedIteratorNtB2C_11LsmIteratorEENtB6_15StorageIterator5valueB8_
FN:66,_RNvXs_NtNtCs9G0t2qE8rAk_9kv_engine9iterators18two_merge_iteratorINtB4_16TwoMergeIteratorNtNtNtNtB8_4mvcc3txn33ouroboros_impl_txn_local_iterator16TxnLocalIteratorINtNtB8_12lsm_iterator13FusedIteratorNtB2C_11LsmIteratorEENtB6_15StorageIterator8is_validB8_
FN:29,_RNvMNtNtCshcgQatfXnqn_9kv_engine9iterators18two_merge_iteratorINtB2_16TwoMergeIteratorIBZ_INtNtB4_14merge_iterator13MergeIteratorNtNtNtB6_9mem_table33ouroboros_impl_mem_table_iterator16MemTableIteratorEIB1r_NtNtNtB6_5table8iterator15SsTableIteratorEEIB1r_NtNtB4_15concat_iterator17SstConcatIteratorEE10set_from_aB6_
FN:18,_RNvMNtNtCshcgQatfXnqn_9kv_engine9iterators18two_merge_iteratorINtB2_16TwoMergeIteratorIBZ_INtNtB4_14merge_iterator13MergeIteratorNtNtNtB6_9mem_table33ouroboros_impl_mem_table_iterator16MemTableIteratorEIB1r_NtNtNtB6_5table8iterator15SsTableIteratorEEIB1r_NtNtB4_15concat_iterator17SstConcatIteratorEE6createB6_
FN:29,_RNvMNtNtCshcgQatfXnqn_9kv_engine9iterators18two_merge_iteratorINtB2_16TwoMergeIteratorINtNtB4_14merge_iterator13MergeIteratorNtNtNtB6_5table8iterator15SsTableIteratorENtNtB4_15concat_iterator17SstConcatIteratorE10set_from_aB6_
FN:18,_RNvMNtNtCshcgQatfXnqn_9kv_engine9iterators18two_merge_iteratorINtB2_16TwoMergeIteratorINtNtB4_14merge_iterator13MergeIteratorNtNtNtB6_5table8iterator15SsTableIteratorENtNtB4_15concat_iterator17SstConcatIteratorE6createB6_
FN:29,_RNvMNtNtCshcgQatfXnqn_9kv_engine9iterators18two_merge_iteratorINtB2_16TwoMergeIteratorINtNtB4_14merge_iterator13MergeIteratorNtNtNtB6_9mem_table33ouroboros_impl_mem_table_iterator16MemTableIteratorEIB1n_NtNtNtB6_5table8iterator15SsTableIteratorEE10set_from_aB6_
FN:18,_RNvMNtNtCshcgQatfXnqn_9kv_engine9iterators18two_merge_iteratorINtB2_16TwoMergeIteratorINtNtB4_14merge_iterator13MergeIteratorNtNtNtB6_9mem_table33ouroboros_impl_mem_table_iterator16MemTableIteratorEIB1n_NtNtNtB6_5table8iterator15SsTableIteratorEE6createB6_
FN:29,_RNvMNtNtCshcgQatfXnqn_9kv_engine9iterators18two_merge_iteratorINtB2_16TwoMergeIteratorNtNtB4_15concat_iterator17SstConcatIteratorB1m_E10set_from_aB6_
FN:18,_RNvMNtNtCshcgQatfXnqn_9kv_engine9iterators18two_merge_iteratorINtB2_16TwoMergeIteratorNtNtB4_15concat_iterator17SstConcatIteratorB1m_E6createB6_
FN:29,_RNvMNtNtCshcgQatfXnqn_9kv_engine9iterators18two_merge_iteratorINtB2_16TwoMergeIteratorNtNtNtNtB6_4mvcc3txn33ouroboros_impl_txn_local_iterator16TxnLocalIteratorINtNtB6_12lsm_iterator13FusedIteratorNtB2A_11LsmIteratorEE10set_from_aB6_
FN:18,_RNvMNtNtCshcgQatfXnqn_9kv_engine9iterators18two_merge_iteratorINtB2_16TwoMergeIteratorNtNtNtNtB6_4mvcc3txn33ouroboros_impl_txn_local_iterator16TxnLocalIteratorINtNtB6_12lsm_iterator13FusedIteratorNtB2A_11LsmIteratorEE6createB6_
FN:90,_RNvXs_NtNtCshcgQatfXnqn_9kv_engine9iterators18two_merge_iteratorINtB4_16TwoMergeIteratorIB11_INtNtB6_14merge_iterator13MergeIteratorNtNtNtB8_9mem_table33ouroboros_impl_mem_table_iterator16MemTableIteratorEIB1u_NtNtNtB8_5table8iterator15SsTableIteratorEEIB1u_NtNtB6_15concat_iterator17SstConcatIteratorEENtB6_15StorageIterator20num_active_iteratorsB8_
FN:50,_RNvXs_NtNtCshcgQatfXnqn_9kv_engine9iterators18two_merge_iteratorINtB4_16TwoMergeIteratorIB11_INtNtB6_14merge_iterator13MergeIteratorNtNtNtB8_9mem_table33ouroboros_impl_mem_table_iterator16MemTableIteratorEIB1u_NtNtNtB8_5table8iterator15SsTableIteratorEEIB1u_NtNtB6_15concat_iterator17SstConcatIteratorEENtB6_15StorageIterator3keyB8_
FN:74,_RNvXs_NtNtCshcgQatfXnqn_9kv_engine9iterators18two_merge_iteratorINtB4_16TwoMergeIteratorIB11_INtNtB6_14merge_iterator13MergeIteratorNtNtNtB8_9mem_table33ouroboros_impl_mem_table_iterator16MemTableIteratorEIB1u_NtNtNtB8_5table8iterator15SsTableIteratorEEIB1u_NtNtB6_15concat_iterator17SstConcatIteratorEENtB6_15StorageIterator4nextB8_
FN:58,_RNvXs_NtNtCshcgQatfXnqn_9kv_engine9iterators18two_merge_iteratorINtB4_16TwoMergeIteratorIB11_INtNtB6_14merge_iterator13MergeIteratorNtNtNtB8_9mem_table33ouroboros_impl_mem_table_iterator16MemTableIteratorEIB1u_NtNtNtB8_5table8iterator15SsTableIteratorEEIB1u_NtNtB6_15concat_iterator17SstConcatIteratorEENtB6_15StorageIterator5valueB8_
FN:66,_RNvXs_NtNtCshcgQatfXnqn_9kv_engine9iterators18two_merge_iteratorINtB4_16TwoMergeIteratorIB11_INtNtB6_14merge_iterator13MergeIteratorNtNtNtB8_9mem_table33ouroboros_impl_mem_table_iterator16MemTableIteratorEIB1u_NtNtNtB8_5table8iterator15SsTableIteratorEEIB1u_NtNtB6_15concat_iterator17SstConcatIteratorEENtB6_15StorageIterator8is_validB8_
FN:50,_RNvXs_NtNtCshcgQatfXnqn_9kv_engine9iterators18two_merge_iteratorINtB4_16TwoMergeIteratorINtNtB6_14merge_iterator13MergeIteratorNtNtNtB8_5table8iterator15SsTableIteratorENtNtB6_15concat_iterator17SstConcatIteratorENtB6_15StorageIterator3keyB8_
FN:74,_RNvXs_NtNtCshcgQatfXnqn_9kv_engine9iterators18two_merge_iteratorINtB4_16TwoMergeIteratorINtNtB6_14merge_iterator13MergeIteratorNtNtNtB8_5table8iterator15SsTableIteratorENtNtB6_15concat_iterator17SstConcatIteratorENtB6_15StorageIterator4nextB8_
FN:66,_RNvXs_NtNtCshcgQatfXnqn_9kv_engine9iterators18two_merge_iteratorINtB4_16TwoMergeIteratorINtNtB6_14merge_iterator13MergeIteratorNtNtNtB8_5table8iterator15SsTableIteratorENtNtB6_15concat_iterator17SstConcatIteratorENtB6_15StorageIterator8is_validB8_
FN:94,_RNvXs_NtNtCshcgQatfXnqn_9kv_engine9iterators18two_merge_iteratorINtB4_16TwoMergeIteratorINtNtB6_14merge_iterator13MergeIteratorNtNtNtB8_5table8iterator15SsTableIteratorENtNtB6_15concat_iterator17SstConcatIteratorENtB6_15StorageIterator9raw_valueB8_
FN:90,_RNvXs_NtNtCshcgQatfXnqn_9kv_engine9iterators18two_merge_iteratorINtB4_16TwoMergeIteratorINtNtB6_14merge_iterator13MergeIteratorNtNtNtB8_9mem_table33ouroboros_impl_mem_table_iterator16MemTableIteratorEIB1p_NtNtNtB8_5table8iterator15SsTableIteratorEENtB6_15StorageIterator20num_active_iteratorsB8_
FN:50,_RNvXs_NtNtCshcgQatfXnqn_9kv_engine9iterators18two_merge_iteratorINtB4_16TwoMergeIteratorINtNtB6_14merge_iterator13MergeIteratorNtNtNtB8_9mem_table33ouroboros_impl_mem_table_iterator16MemTableIteratorEIB1p_NtNtNtB8_5table8iterator15SsTableIteratorEENtB6_15StorageIterator3keyB8_
FN:74,_RNvXs_NtNtCshcgQatfXnqn_9kv_engine9iterators18two_merge_iteratorINtB4_16TwoMergeIteratorINtNtB6_14merge_iterator13MergeIteratorNtNtNtB8_9mem_table33ouroboros_impl_mem_table_iterator16MemTableIteratorEIB1p_NtNtNtB8_5table8iterator15SsTableIteratorEENtB6_15StorageIterator4nextB8_
FN:58,_RNvXs_NtNtCshcgQatfXnqn_9kv_engine9iterators18two_merge_iteratorINtB4_16TwoMergeIteratorINtNtB6_14merge_iterator13MergeIteratorNtNtNtB8_9mem_table33ouroboros_impl_mem_table_iterator16MemTableIteratorEIB1p_NtNtNtB8_5table8iterator15SsTableIteratorEENtB6_15StorageIterator5valueB8_
FN:66,_RNvXs_NtNtCshcgQatfXnqn_9kv_engine9iterators18two_merge_iteratorINtB4_16TwoMergeIteratorINtNtB6_14merge_iterator13MergeIteratorNtNtNtB8_9mem_table33ouroboros_impl_mem_table_iterator16MemTableIteratorEIB1p_NtNtNtB8_5table8iterator15SsTableIteratorEENtB6_15StorageIterator8is_validB8_
FN:50,_RNvXs_NtNtCshcgQatfXnqn_9kv_engine9iterators18two_merge_iteratorINtB4_16TwoMergeIteratorNtNtB6_15concat_iterator17SstConcatIteratorB1o_ENtB6_15StorageIterator3keyB8_
FN:74,_RNvXs_NtNtCshcgQatfXnqn_9kv_engine9iterators18two_merge_iteratorINtB4_16TwoMergeIteratorNtNtB6_15concat_iterator17SstConcatIteratorB1o_ENtB6_15StorageIterator4nextB8_
FN:66,_RNvXs_NtNtCshcgQatfXnqn_9kv_engine9iterators18two_merge_iteratorINtB4_16TwoMergeIteratorNtNtB6_15concat_iterator17SstConcatIteratorB1o_ENtB6_15StorageIterator8is_validB8_
FN:94,_RNvXs_NtNtCshcgQatfXnqn_9kv_engine9iterators18two_merge_iteratorINtB4_16TwoMergeIteratorNtNtB6_15concat_iterator17SstConcatIteratorB1o_ENtB6_15StorageIterator9raw_valueB8_
FN:90,_RNvXs_NtNtCshcgQatfXnqn_9kv_engine9iterators18two_merge_iteratorINtB4_16TwoMergeIteratorNtNtNtNtB8_4mvcc3txn33ouroboros_impl_txn_local_iterator16TxnLocalIteratorINtNtB8_12lsm_iterator13FusedIteratorNtB2C_11LsmIteratorEENtB6_15StorageIterator20num_active_iteratorsB8_
FN:50,_RNvXs_NtNtCshcgQatfXnqn_9kv_engine9iterators18two_merge_iteratorINtB4_16TwoMergeIteratorNtNtNtNtB8_4mvcc3txn33ouroboros_impl_txn_local_iterator16TxnLocalIteratorINtNtB8_12lsm_iterator13FusedIteratorNtB2C_11LsmIteratorEENtB6_15StorageIterator3keyB8_
FN:74,_RNvXs_NtNtCshcgQatfXnqn_9kv_engine9iterators18two_merge_iteratorINtB4_16TwoMergeIteratorNtNtNtNtB8_4mvcc3txn33ouroboros_impl_txn_local_iterator16TxnLocalIteratorINtNtB8_12lsm_iterator13FusedIteratorNtB2C_11LsmIteratorEENtB6_15StorageIterator4nextB8_
FN:58,_RNvXs_NtNtCshcgQatfXnqn_9kv_engine9iterators18two_merge_iteratorINtB4_16TwoMergeIteratorNtNtNtNtB8_4mvcc3txn33ouroboros_impl_txn_local_iterator16TxnLocalIteratorINtNtB8_12lsm_iterator13FusedIteratorNtB2C_11LsmIteratorEENtB6_15StorageIterator5valueB8_
FN:66,_RNvXs_NtNtCshcgQatfXnqn_9kv_engine9iterators18two_merge_iteratorINtB4_16TwoMergeIteratorNtNtNtNtB8_4mvcc3txn33ouroboros_impl_txn_local_iterator16TxnLocalIteratorINtNtB8_12lsm_iterator13FusedIteratorNtB2C_11LsmIteratorEENtB6_15StorageIterator8is_validB8_
FNDA:298,_RNvMNtNtCs9G0t2qE8rAk_9kv_engine9iterators18two_merge_iteratorINtB2_16TwoMergeIteratorIBZ_INtNtB4_14merge_iterator13MergeIteratorNtNtNtB6_9mem_table33ouroboros_impl_mem_table_iterator16MemTableIteratorEIB1r_NtNtNtB6_5table8iterator15SsTableIteratorEEIB1r_NtNtB4_15concat_iterator17SstConcatIteratorEE10set_from_aB6_
FNDA:79,_RNvMNtNtCs9G0t2qE8rAk_9kv_engine9iterators18two_merge_iteratorINtB2_16TwoMergeIteratorIBZ_INtNtB4_14merge_iterator13MergeIteratorNtNtNtB6_9mem_table33ouroboros_impl_mem_table_iterator16MemTableIteratorEIB1r_NtNtNtB6_5table8iterator15SsTableIteratorEEIB1r_NtNtB4_15concat_iterator17SstConcatIteratorEE6createB6_
FNDA:2502,_RNvMNtNtCs9G0t2qE8rAk_9kv_engine9iterators18two_merge_iteratorINtB2_16TwoMergeIteratorINtNtB4_14merge_iterator13MergeIteratorNtNtNtB6_5table8iterator15SsTableIteratorENtNtB4_15concat_iterator17SstConcatIteratorE10set_from_aB6_
FNDA:43,_RNvMNtNtCs9G0t2qE8rAk_9kv_engine9iterators18two_merge_iteratorINtB2_16TwoMergeIteratorINtNtB4_14merge_iterator13MergeIteratorNtNtNtB6_5table8iterator15SsTableIteratorENtNtB4_15concat_iterator17SstConcatIteratorE6createB6_
FNDA:270,_RNvMNtNtCs9G0t2qE8rAk_9kv_engine9iterators18two_merge_iteratorINtB2_16TwoMergeIteratorINtNtB4_14merge_iterator13MergeIteratorNtNtNtB6_9mem_table33ouroboros_impl_mem_table_iterator16MemTableIteratorEIB1n_NtNtNtB6_5table8iterator15SsTableIteratorEE10set_from_aB6_
FNDA:79,_RNvMNtNtCs9G0t2qE8rAk_9kv_engine9iterators18two_merge_iteratorINtB2_16TwoMergeIteratorINtNtB4_14merge_iterator13MergeIteratorNtNtNtB6_9mem_table33ouroboros_impl_mem_table_iterator16MemTableIteratorEIB1n_NtNtNtB6_5table8iterator15SsTableIteratorEE6createB6_
FNDA:1503,_RNvMNtNtCs9G0t2qE8rAk_9kv_engine9iterators18two_merge_iteratorINtB2_16TwoMergeIteratorNtNtB4_15concat_iterator17SstConcatIteratorB1m_E10set_from_aB6_
FNDA:3,_RNvMNtNtCs9G0t2qE8rAk_9kv_engine9iterators18two_merge_iteratorINtB2_16TwoMergeIteratorNtNtB4_15concat_iterator17SstConcatIteratorB1m_E6createB6_
FNDA:24,_RNvMNtNtCs9G0t2qE8rAk_9kv_engine9iterators18two_merge_iteratorINtB2_16TwoMergeIteratorNtNtNtB6_5tests7harness12MockIteratorB1m_E10set_from_aB6_
FNDA:6,_RNvMNtNtCs9G0t2qE8rAk_9kv_engine9iterators18two_merge_iteratorINtB2_16TwoMergeIteratorNtNtNtB6_5tests7harness12MockIteratorB1m_E6createB6_
FNDA:6,_RNvMNtNtCs9G0t2qE8rAk_9kv_engine9iterators18two_merge_iteratorINtB2_16TwoMergeIteratorNtNtNtNtB6_4mvcc3txn33ouroboros_impl_txn_local_iterator16TxnLocalIteratorINtNtB6_12lsm_iterator13FusedIteratorNtB2A_11LsmIteratorEE10set_from_aB6_
FNDA:2,_RNvMNtNtCs9G0t2qE8rAk_9kv_engine9iterators18two_merge_iteratorINtB2_16TwoMergeIteratorNtNtNtNtB6_4mvcc3txn33ouroboros_impl_txn_local_iterator16TxnLocalIteratorINtNtB6_12lsm_iterator13FusedIteratorNtB2A_11LsmIteratorEE6createB6_
FNDA:9,_RNvXs_NtNtCs9G0t2qE8rAk_9kv_engine9iterators18two_merge_iteratorINtB4_16TwoMergeIteratorIB11_INtNtB6_14merge_iterator13MergeIteratorNtNtNtB8_9mem_table33ouroboros_impl_mem_table_iterator16MemTableIteratorEIB1u_NtNtNtB8_5table8iterator15SsTableIteratorEEIB1u_NtNtB6_15concat_iterator17SstConcatIteratorEENtB6_15StorageIterator20num_active_iteratorsB8_
FNDA:1502,_RNvXs_NtNtCs9G0t2qE8rAk_9kv_engine9iterators18two_merge_iteratorINtB4_16TwoMergeIteratorIB11_INtNtB6_14merge_iterator13MergeIteratorNtNtNtB8_9mem_table33ouroboros_impl_mem_table_iterator16MemTableIteratorEIB1u_NtNtNtB8_5table8iterator15SsTableIteratorEEIB1u_NtNtB6_15concat_iterator17SstConcatIteratorEENtB6_15StorageIterator3keyB8_
FNDA:219,_RNvXs_NtNtCs9G0t2qE8rAk_9kv_engine9iterators18two_merge_iteratorINtB4_16TwoMergeIteratorIB11_INtNtB6_14merge_iterator13MergeIteratorNtNtNtB8_9mem_table33ouroboros_impl_mem_table_iterator16MemTableIteratorEIB1u_NtNtNtB8_5table8iterator15SsTableIteratorEEIB1u_NtNtB6_15concat_iterator17SstConcatIteratorEENtB6_15StorageIterator4nextB8_
FNDA:314,_RNvXs_NtNtCs9G0t2qE8rAk_9kv_engine9iterators18two_merge_iteratorINtB4_16TwoMergeIteratorIB11_INtNtB6_14merge_iterator13MergeIteratorNtNtNtB8_9mem_table33ouroboros_impl_mem_table_iterator16MemTableIteratorEIB1u_NtNtNtB8_5table8iterator15SsTableIteratorEEIB1u_NtNtB6_15concat_iterator17SstConcatIteratorEENtB6_15StorageIterator5valueB8_
FNDA:1954,_RNvXs_NtNtCs9G0t2qE8rAk_9kv_engine9iterators18two_merge_iteratorINtB4_16TwoMergeIteratorIB11_INtNtB6_14merge_iterator13MergeIteratorNtNtNtB8_9mem_table33ouroboros_impl_mem_table_iterator16MemTableIteratorEIB1u_NtNtNtB8_5table8iterator15SsTableIteratorEEIB1u_NtNtB6_15concat_iterator17SstConcatIteratorEENtB6_15StorageIterator8is_validB8_
FNDA:4873,_RNvXs_NtNtCs9G0t2qE8rAk_9kv_engine9iterators18two_merge_iteratorINtB4_16TwoMergeIteratorINtNtB6_14merge_iterator13MergeIteratorNtNtNtB8_5table8iterator15SsTableIteratorENtNtB6_15concat_iterator17SstConcatIteratorENtB6_15StorageIterator3keyB8_
FNDA:2459,_RNvXs_NtNtCs9G0t2qE8rAk_9kv_engine9iterators18two_merge_iteratorINtB4_16TwoMergeIteratorINtNtB6_14merge_iterator13MergeIteratorNtNtNtB8_5table8iterator15SsTableIteratorENtNtB6_15concat_iterator17SstConcatIteratorENtB6_15StorageIterator4nextB8_
FNDA:2502,_RNvXs_NtNtCs9G0t2qE8rAk_9kv_engine9iterators18two_merge_iteratorINtB4_16TwoMergeIteratorINtNtB6_14merge_iterator13MergeIteratorNtNtNtB8_5table8iterator15SsTableIteratorENtNtB6_15concat_iterator17SstConcatIteratorENtB6_15StorageIterator8is_validB8_
FNDA:4873,_RNvXs_NtNtCs9G0t2qE8rAk_9kv_engine9iterators18two_merge_iteratorINtB4_16TwoMergeIteratorINtNtB6_14merge_iterator13MergeIteratorNtNtNtB8_5table8iterator15SsTableIteratorENtNtB6_15concat_iterator17SstConcatIteratorENtB6_15StorageIterator9raw_valueB8_
FNDA:9,_RNvXs_NtNtCs9G0t2qE8rAk_9kv_engine9iterators18two_merge_iteratorINtB4_16TwoMergeIteratorINtNtB6_14merge_iterator13MergeIteratorNtNtNtB8_9mem_table33ouroboros_impl_mem_table_iterator16MemTableIteratorEIB1p_NtNtNtB8_5table8iterator15SsTableIteratorEENtB6_15StorageIterator20num_active_iteratorsB8_
FNDA:1282,_RNvXs_NtNtCs9G0t2qE8rAk_9kv_engine9iterators18two_merge_iteratorINtB4_16TwoMergeIteratorINtNtB6_14merge_iterator13MergeIteratorNtNtNtB8_9mem_table33ouroboros_impl_mem_table_iterator16MemTableIteratorEIB1p_NtNtNtB8_5table8iterator15SsTableIteratorEENtB6_15StorageIterator3keyB8_
FNDA:191,_RNvXs_NtNtCs9G0t2qE8rAk_9kv_engine9iterators18two_merge_iteratorINtB4_16TwoMergeIteratorINtNtB6_14merge_iterator13MergeIteratorNtNtNtB8_9mem_table33ouroboros_impl_mem_table_iterator16MemTableIteratorEIB1p_NtNtNtB8_5table8iterator15SsTableIteratorEENtB6_15StorageIterator4nextB8_
FNDA:278,_RNvXs_NtNtCs9G0t2qE8rAk_9kv_engine9iterators18two_merge_iteratorINtB4_16TwoMergeIteratorINtNtB6_14merge_iterator13MergeIteratorNtNtNtB8_9mem_table33ouroboros_impl_mem_table_iterator16MemTableIteratorEIB1p_NtNtNtB8_5table8iterator15SsTableIteratorEENtB6_15StorageIterator5valueB8_
FNDA:1749,_RNvXs_NtNtCs9G0t2qE8rAk_9kv_engine9iterators18two_merge_iteratorINtB4_16TwoMergeIteratorINtNtB6_14merge_iterator13MergeIteratorNtNtNtB8_9mem_table33ouroboros_impl_mem_table_iterator16MemTableIteratorEIB1p_NtNtNtB8_5table8iterator15SsTableIteratorEENtB6_15StorageIterator8is_validB8_
FNDA:3000,_RNvXs_NtNtCs9G0t2qE8rAk_9kv_engine9iterators18two_merge_iteratorINtB4_16TwoMergeIteratorNtNtB6_15concat_iterator17SstConcatIteratorB1o_ENtB6_15StorageIterator3keyB8_
FNDA:1500,_RNvXs_NtNtCs9G0t2qE8rAk_9kv_engine9iterators18two_merge_iteratorINtB4_16TwoMergeIteratorNtNtB6_15concat_iterator17SstConcatIteratorB1o_ENtB6_15StorageIterator4nextB8_
FNDA:1503,_RNvXs_NtNtCs9G0t2qE8rAk_9kv_engine9iterators18two_merge_iteratorINtB4_16TwoMergeIteratorNtNtB6_15concat_iterator17SstConcatIteratorB1o_ENtB6_15StorageIterator8is_validB8_
FNDA:3000,_RNvXs_NtNtCs9G0t2qE8rAk_9kv_engine9iterators18two_merge_iteratorINtB4_16TwoMergeIteratorNtNtB6_15concat_iterator17SstConcatIteratorB1o_ENtB6_15StorageIterator9raw_valueB8_
FNDA:18,_RNvXs_NtNtCs9G0t2qE8rAk_9kv_engine9iterators18two_merge_iteratorINtB4_16TwoMergeIteratorNtNtNtB8_5tests7harness12MockIteratorB1o_ENtB6_15StorageIterator3keyB8_
FNDA:18,_RNvXs_NtNtCs9G0t2qE8rAk_9kv_engine9iterators18two_merge_iteratorINtB4_16TwoMergeIteratorNtNtNtB8_5tests7harness12MockIteratorB1o_ENtB6_15StorageIterator4nextB8_
FNDA:18,_RNvXs_NtNtCs9G0t2qE8rAk_9kv_engine9iterators18two_merge_iteratorINtB4_16TwoMergeIteratorNtNtNtB8_5tests7harness12MockIteratorB1o_ENtB6_15StorageIterator5valueB8_
FNDA:24,_RNvXs_NtNtCs9G0t2qE8rAk_9kv_engine9iterators18two_merge_iteratorINtB4_16TwoMergeIteratorNtNtNtB8_5tests7harness12MockIteratorB1o_ENtB6_15StorageIterator8is_validB8_
FNDA:3,_RNvXs_NtNtCs9G0t2qE8rAk_9kv_engine9iterators18two_merge_iteratorINtB4_16TwoMergeIteratorNtNtNtNtB8_4mvcc3txn33ouroboros_impl_txn_local_iterator16TxnLocalIteratorINtNtB8_12lsm_iterator13FusedIteratorNtB2C_11LsmIteratorEENtB6_15StorageIterator3keyB8_
FNDA:4,_RNvXs_NtNtCs9G0t2qE8rAk_9kv_engine9iterators18two_merge_iteratorINtB4_16TwoMergeIteratorNtNtNtNtB8_4mvcc3txn33ouroboros_impl_txn_local_iterator16TxnLocalIteratorINtNtB8_12lsm_iterator13FusedIteratorNtB2C_11LsmIteratorEENtB6_15StorageIterator4nextB8_
FNDA:7,_RNvXs_NtNtCs9G0t2qE8rAk_9kv_engine9iterators18two_merge_iteratorINtB4_16TwoMergeIteratorNtNtNtNtB8_4mvcc3txn33ouroboros_impl_txn_local_iterator16TxnLocalIteratorINtNtB8_12lsm_iterator13FusedIteratorNtB2C_11LsmIteratorEENtB6_15StorageIterator5valueB8_
FNDA:16,_RNvXs_NtNtCs9G0t2qE8rAk_9kv_engine9iterators18two_merge_iteratorINtB4_16TwoMergeIteratorNtNtNtNtB8_4mvcc3txn33ouroboros_impl_txn_local_iterator16TxnLocalIteratorINtNtB8_12lsm_iterator13FusedIteratorNtB2C_11LsmIteratorEENtB6_15StorageIterator8is_validB8_
FNDA:0,_RNvMNtNtCshcgQatfXnqn_9kv_engine9iterators18two_merge_iteratorINtB2_16TwoMergeIteratorIBZ_INtNtB4_14merge_iterator13MergeIteratorNtNtNtB6_9mem_table33ouroboros_impl_mem_table_iterator16MemTableIteratorEIB1r_NtNtNtB6_5table8iterator15SsTableIteratorEEIB1r_NtNtB4_15concat_iterator17SstConcatIteratorEE10set_from_aB6_
FNDA:0,_RNvMNtNtCshcgQatfXnqn_9kv_engine9iterators18two_merge_iteratorINtB2_16TwoMergeIteratorIBZ_INtNtB4_14merge_iterator13MergeIteratorNtNtNtB6_9mem_table33ouroboros_impl_mem_table_iterator16MemTableIteratorEIB1r_NtNtNtB6_5table8iterator15SsTableIteratorEEIB1r_NtNtB4_15concat_iterator17SstConcatIteratorEE6createB6_
FNDA:0,_RNvMNtNtCshcgQatfXnqn_9kv_engine9iterators18two_merge_iteratorINtB2_16TwoMergeIteratorINtNtB4_14merge_iterator13MergeIteratorNtNtNtB6_5table8iterator15SsTableIteratorENtNtB4_15concat_iterator17SstConcatIteratorE10set_from_aB6_
FNDA:0,_RNvMNtNtCshcgQatfXnqn_9kv_engine9iterators18two_merge_iteratorINtB2_16TwoMergeIteratorINtNtB4_14merge_iterator13MergeIteratorNtNtNtB6_5table8iterator15SsTableIteratorENtNtB4_15concat_iterator17SstConcatIteratorE6createB6_
FNDA:0,_RNvMNtNtCshcgQatfXnqn_9kv_engine9iterators18two_merge_iteratorINtB2_16TwoMergeIteratorINtNtB4_14merge_iterator13MergeIteratorNtNtNtB6_9mem_table33ouroboros_impl_mem_table_iterator16MemTableIteratorEIB1n_NtNtNtB6_5table8iterator15SsTableIteratorEE10set_from_aB6_
FNDA:0,_RNvMNtNtCshcgQatfXnqn_9kv_engine9iterators18two_merge_iteratorINtB2_16TwoMergeIteratorINtNtB4_14merge_iterator13MergeIteratorNtNtNtB6_9mem_table33ouroboros_impl_mem_table_iterator16MemTableIteratorEIB1n_NtNtNtB6_5table8iterator15SsTableIteratorEE6createB6_
FNDA:0,_RNvMNtNtCshcgQatfXnqn_9kv_engine9iterators18two_merge_iteratorINtB2_16TwoMergeIteratorNtNtB4_15concat_iterator17SstConcatIteratorB1m_E10set_from_aB6_
FNDA:0,_RNvMNtNtCshcgQatfXnqn_9kv_engine9iterators18two_merge_iteratorINtB2_16TwoMergeIteratorNtNtB4_15concat_iterator17SstConcatIteratorB1m_E6createB6_
FNDA:0,_RNvMNtNtCshcgQatfXnqn_9kv_engine9iterators18two_merge_iteratorINtB2_16TwoMergeIteratorNtNtNtNtB6_4mvcc3txn33ouroboros_impl_txn_local_iterator16TxnLocalIteratorINtNtB6_12lsm_iterator13FusedIteratorNtB2A_11LsmIteratorEE10set_from_aB6_
FNDA:0,_RNvMNtNtCshcgQatfXnqn_9kv_engine9iterators18two_merge_iteratorINtB2_16TwoMergeIteratorNtNtNtNtB6_4mvcc3txn33ouroboros_impl_txn_local_iterator16TxnLocalIteratorINtNtB6_12lsm_iterator13FusedIteratorNtB2A_11LsmIteratorEE6createB6_
FNDA:0,_RNvXs_NtNtCshcgQatfXnqn_9kv_engine9iterators18two_merge_iteratorINtB4_16TwoMergeIteratorIB11_INtNtB6_14merge_iterator13MergeIteratorNtNtNtB8_9mem_table33ouroboros_impl_mem_table_iterator16MemTableIteratorEIB1u_NtNtNtB8_5table8iterator15SsTableIteratorEEIB1u_NtNtB6_15concat_iterator17SstConcatIteratorEENtB6_15StorageIterator20num_active_iteratorsB8_
FNDA:0,_RNvXs_NtNtCshcgQatfXnqn_9kv_engine9iterators18two_merge_iteratorINtB4_16TwoMergeIteratorIB11_INtNtB6_14merge_iterator13MergeIteratorNtNtNtB8_9mem_table33ouroboros_impl_mem_table_iterator16MemTableIteratorEIB1u_NtNtNtB8_5table8iterator15SsTableIteratorEEIB1u_NtNtB6_15concat_iterator17SstConcatIteratorEENtB6_15StorageIterator3keyB8_
FNDA:0,_RNvXs_NtNtCshcgQatfXnqn_9kv_engine9iterators18two_merge_iteratorINtB4_16TwoMergeIteratorIB11_INtNtB6_14merge_iterator13MergeIteratorNtNtNtB8_9mem_table33ouroboros_impl_mem_table_iterator16MemTableIteratorEIB1u_NtNtNtB8_5table8iterator15SsTableIteratorEEIB1u_NtNtB6_15concat_iterator17SstConcatIteratorEENtB6_15StorageIterator4nextB8_
FNDA:0,_RNvXs_NtNtCshcgQatfXnqn_9kv_engine9iterators18two_merge_iteratorINtB4_16TwoMergeIteratorIB11_INtNtB6_14merge_iterator13MergeIteratorNtNtNtB8_9mem_table33ouroboros_impl_mem_table_iterator16MemTableIteratorEIB1u_NtNtNtB8_5table8iterator15SsTableIteratorEEIB1u_NtNtB6_15concat_iterator17SstConcatIteratorEENtB6_15StorageIterator5valueB8_
FNDA:0,_RNvXs_NtNtCshcgQatfXnqn_9kv_engine9iterators18two_merge_iteratorINtB4_16TwoMergeIteratorIB11_INtNtB6_14merge_iterator13MergeIteratorNtNtNtB8_9mem_table33ouroboros_impl_mem_table_iterator16MemTableIteratorEIB1u_NtNtNtB8_5table8iterator15SsTableIteratorEEIB1u_NtNtB6_15concat_iterator17SstConcatIteratorEENtB6_15StorageIterator8is_validB8_
FNDA:0,_RNvXs_NtNtCshcgQatfXnqn_9kv_engine9iterators18two_merge_iteratorINtB4_16TwoMergeIteratorINtNtB6_14merge_iterator13MergeIteratorNtNtNtB8_5table8iterator15SsTableIteratorENtNtB6_15concat_iterator17SstConcatIteratorENtB6_15StorageIterator3keyB8_
FNDA:0,_RNvXs_NtNtCshcgQatfXnqn_9kv_engine9iterators18two_merge_iteratorINtB4_16TwoMergeIteratorINtNtB6_14merge_iterator13MergeIteratorNtNtNtB8_5table8iterator15SsTableIteratorENtNtB6_15concat_iterator17SstConcatIteratorENtB6_15StorageIterator4nextB8_
FNDA:0,_RNvXs_NtNtCshcgQatfXnqn_9kv_engine9iterators18two_merge_iteratorINtB4_16TwoMergeIteratorINtNtB6_14merge_iterator13MergeIteratorNtNtNtB8_5table8iterator15SsTableIteratorENtNtB6_15concat_iterator17SstConcatIteratorENtB6_15StorageIterator8is_validB8_
FNDA:0,_RNvXs_NtNtCshcgQatfXnqn_9kv_engine9iterators18two_merge_iteratorINtB4_16TwoMergeIteratorINtNtB6_14merge_iterator13MergeIteratorNtNtNtB8_5table8iterator15SsTableIteratorENtNtB6_15concat_iterator17SstConcatIteratorENtB6_15StorageIterator9raw_valueB8_
FNDA:0,_RNvXs_NtNtCshcgQatfXnqn_9kv_engine9iterators18two_merge_iteratorINtB4_16TwoMergeIteratorINtNtB6_14merge_iterator13MergeIteratorNtNtNtB8_9mem_table33ouroboros_impl_mem_table_iterator16MemTableIteratorEIB1p_NtNtNtB8_5table8iterator15SsTableIteratorEENtB6_15StorageIterator20num_active_iteratorsB8_
FNDA:0,_RNvXs_NtNtCshcgQatfXnqn_9kv_engine9iterators18two_merge_iteratorINtB4_16TwoMergeIteratorINtNtB6_14merge_iterator13MergeIteratorNtNtNtB8_9mem_table33ouroboros_impl_mem_table_iterator16MemTableIteratorEIB1p_NtNtNtB8_5table8iterator15SsTableIteratorEENtB6_15StorageIterator3keyB8_
FNDA:0,_RNvXs_NtNtCshcgQatfXnqn_9kv_engine9iterators18two_merge_iteratorINtB4_16TwoMergeIteratorINtNtB6_14merge_iterator13MergeIteratorNtNtNtB8_9mem_table33ouroboros_impl_mem_table_iterator16MemTableIteratorEIB1p_NtNtNtB8_5table8iterator15SsTableIteratorEENtB6_15StorageIterator4nextB8_
FNDA:0,_RNvXs_NtNtCshcgQatfXnqn_9kv_engine9iterators18two_merge_iteratorINtB4_16TwoMergeIteratorINtNtB6_14merge_iterator13MergeIteratorNtNtNtB8_9mem_table33ouroboros_impl_mem_table_iterator16MemTableIteratorEIB1p_NtNtNtB8_5table8iterator15SsTableIteratorEENtB6_15StorageIterator5valueB8_
FNDA:0,_RNvXs_NtNtCshcgQatfXnqn_9kv_engine9iterators18two_merge_iteratorINtB4_16TwoMergeIteratorINtNtB6_14merge_iterator13MergeIteratorNtNtNtB8_9mem_table33ouroboros_impl_mem_table_iterator16MemTableIteratorEIB1p_NtNtNtB8_5table8iterator15SsTableIteratorEENtB6_15StorageIterator8is_validB8_
FNDA:0,_RNvXs_NtNtCshcgQatfXnqn_9kv_engine9iterators18two_merge_iteratorINtB4_16TwoMergeIteratorNtNtB6_15concat_iterator17SstConcatIteratorB1o_ENtB6_15StorageIterator3keyB8_
FNDA:0,_RNvXs_NtNtCshcgQatfXnqn_9kv_engine9iterators18two_merge_iteratorINtB4_16TwoMergeIteratorNtNtB6_15concat_iterator17SstConcatIteratorB1o_ENtB6_15StorageIterator4nextB8_
FNDA:0,_RNvXs_NtNtCshcgQatfXnqn_9kv_engine9iterators18two_merge_iteratorINtB4_16TwoMergeIteratorNtNtB6_15concat_iterator17SstConcatIteratorB1o_ENtB6_15StorageIterator8is_validB8_
FNDA:0,_RNvXs_NtNtCshcgQatfXnqn_9kv_engine9iterators18two_merge_iteratorINtB4_16TwoMergeIteratorNtNtB6_15concat_iterator17SstConcatIteratorB1o_ENtB6_15StorageIterator9raw_valueB8_
FNDA:0,_RNvXs_NtNtCshcgQatfXnqn_9kv_engine9iterators18two_merge_iteratorINtB4_16TwoMergeIteratorNtNtNtNtB8_4mvcc3txn33ouroboros_impl_txn_local_iterator16TxnLocalIteratorINtNtB8_12lsm_iterator13FusedIteratorNtB2C_11LsmIteratorEENtB6_15StorageIterator20num_active_iteratorsB8_
FNDA:0,_RNvXs_NtNtCshcgQatfXnqn_9kv_engine9iterators18two_merge_iteratorINtB4_16TwoMergeIteratorNtNtNtNtB8_4mvcc3txn33ouroboros_impl_txn_local_iterator16TxnLocalIteratorINtNtB8_12lsm_iterator13FusedIteratorNtB2C_11LsmIteratorEENtB6_15StorageIterator3keyB8_
FNDA:0,_RNvXs_NtNtCshcgQatfXnqn_9kv_engine9iterators18two_merge_iteratorINtB4_16TwoMergeIteratorNtNtNtNtB8_4mvcc3txn33ouroboros_impl_txn_local_iterator16TxnLocalIteratorINtNtB8_12lsm_iterator13FusedIteratorNtB2C_11LsmIteratorEENtB6_15StorageIterator4nextB8_
FNDA:0,_RNvXs_NtNtCshcgQatfXnqn_9kv_engine9iterators18two_merge_iteratorINtB4_16TwoMergeIteratorNtNtNtNtB8_4mvcc3txn33ouroboros_impl_txn_local_iterator16TxnLocalIteratorINtNtB8_12lsm_iterator13FusedIteratorNtB2C_11LsmIteratorEENtB6_15StorageIterator5valueB8_
FNDA:0,_RNvXs_NtNtCshcgQatfXnqn_9kv_engine9iterators18two_merge_iteratorINtB4_16TwoMergeIteratorNtNtNtNtB8_4mvcc3txn33ouroboros_impl_txn_local_iterator16TxnLocalIteratorINtNtB8_12lsm_iterator13FusedIteratorNtB2C_11LsmIteratorEENtB6_15StorageIterator8is_validB8_
FNF:8
FNH:8
DA:18,212
DA:19,212
DA:20,212
DA:21,212
DA:22,212
DA:23,212
DA:24,212
DA:26,212
DA:27,212
DA:29,4603
DA:30,4603
DA:31,271
DA:32,271
DA:33,4332
DA:34,4332
DA:35,4285
DA:36,4285
DA:37,47
DA:39,47
DA:40,4603
DA:50,10678
DA:51,10678
DA:52,10014
DA:54,664
DA:56,10678
DA:58,617
DA:59,617
DA:60,478
DA:62,139
DA:64,617
DA:66,7748
DA:67,7748
DA:68,6544
DA:70,1204
DA:72,7748
DA:74,4391
DA:75,4391
DA:77,4294
DA:78,9
DA:79,4285
DA:80,4294
DA:82,97
DA:85,4391
DA:87,4391
DA:88,4391
DA:90,18
DA:91,18
DA:92,18
DA:94,7873
DA:95,7873
DA:96,7858
DA:98,15
DA:100,7873
BRF:0
BRH:0
LF:53
LH:53
end_of_record
SF:/home/liu/proj/toy-kv-engine/kv-engine/src/key.rs
FN:118,_RINvNtCs9G0t2qE8rAk_9kv_engine3key26encode_internal_key_inlineKpEB4_
FN:90,_RNvNtCs9G0t2qE8rAk_9kv_engine3key36encode_memcomparable_user_key_inlineB3_
FN:256,_RNCNvMNtCs9G0t2qE8rAk_9kv_engine3keyINtB4_3KeyINtNtCs2TrN21NlPz_5alloc3vec3VechEE15decode_user_key0B6_
FN:251,_RNCNvMNtCs9G0t2qE8rAk_9kv_engine3keyINtB4_3KeyINtNtCs2TrN21NlPz_5alloc3vec3VechEE16encoded_user_key0B6_
FN:256,_RNCNvMNtCs9G0t2qE8rAk_9kv_engine3keyINtB4_3KeyNtNtCs3nU4b9VY2Ln_5bytes5bytes5BytesE15decode_user_key0B6_
FN:251,_RNCNvMNtCs9G0t2qE8rAk_9kv_engine3keyINtB4_3KeyNtNtCs3nU4b9VY2Ln_5bytes5bytes5BytesE16encoded_user_key0B6_
FN:256,_RNCNvMNtCs9G0t2qE8rAk_9kv_engine3keyINtB4_3KeyRShE15decode_user_key0B6_
FN:251,_RNCNvMNtCs9G0t2qE8rAk_9kv_engine3keyINtB4_3KeyRShE16encoded_user_key0B6_
FN:191,_RNCNvNtCs9G0t2qE8rAk_9kv_engine3key20decode_user_key_into0B5_
FN:141,_RNCNvNtCs9G0t2qE8rAk_9kv_engine3key24encoded_internal_key_len0B5_
FN:232,_RNvMNtCs9G0t2qE8rAk_9kv_engine3keyINtB2_3KeyINtNtCs2TrN21NlPz_5alloc3vec3VechEE10into_innerB4_
FN:255,_RNvMNtCs9G0t2qE8rAk_9kv_engine3keyINtB2_3KeyINtNtCs2TrN21NlPz_5alloc3vec3VechEE15decode_user_keyB4_
FN:250,_RNvMNtCs9G0t2qE8rAk_9kv_engine3keyINtB2_3KeyINtNtCs2TrN21NlPz_5alloc3vec3VechEE16encoded_user_keyB4_
FN:284,_RNvMNtCs9G0t2qE8rAk_9kv_engine3keyINtB2_3KeyINtNtCs2TrN21NlPz_5alloc3vec3VechEE19for_testing_key_refB4_
FN:266,_RNvMNtCs9G0t2qE8rAk_9kv_engine3keyINtB2_3KeyINtNtCs2TrN21NlPz_5alloc3vec3VechEE20decode_user_key_intoB4_
FN:245,_RNvMNtCs9G0t2qE8rAk_9kv_engine3keyINtB2_3KeyINtNtCs2TrN21NlPz_5alloc3vec3VechEE2tsB4_
FN:236,_RNvMNtCs9G0t2qE8rAk_9kv_engine3keyINtB2_3KeyINtNtCs2TrN21NlPz_5alloc3vec3VechEE3lenB4_
FN:277,_RNvMNtCs9G0t2qE8rAk_9kv_engine3keyINtB2_3KeyINtNtCs2TrN21NlPz_5alloc3vec3VechEE7raw_refB4_
FN:240,_RNvMNtCs9G0t2qE8rAk_9kv_engine3keyINtB2_3KeyINtNtCs2TrN21NlPz_5alloc3vec3VechEE8is_emptyB4_
FN:255,_RNvMNtCs9G0t2qE8rAk_9kv_engine3keyINtB2_3KeyNtNtCs3nU4b9VY2Ln_5bytes5bytes5BytesE15decode_user_keyB4_
FN:250,_RNvMNtCs9G0t2qE8rAk_9kv_engine3keyINtB2_3KeyNtNtCs3nU4b9VY2Ln_5bytes5bytes5BytesE16encoded_user_keyB4_
FN:260,_RNvMNtCs9G0t2qE8rAk_9kv_engine3keyINtB2_3KeyNtNtCs3nU4b9VY2Ln_5bytes5bytes5BytesE19decode_user_key_cowB4_
FN:284,_RNvMNtCs9G0t2qE8rAk_9kv_engine3keyINtB2_3KeyNtNtCs3nU4b9VY2Ln_5bytes5bytes5BytesE19for_testing_key_refB4_
FN:245,_RNvMNtCs9G0t2qE8rAk_9kv_engine3keyINtB2_3KeyNtNtCs3nU4b9VY2Ln_5bytes5bytes5BytesE2tsB4_
FN:236,_RNvMNtCs9G0t2qE8rAk_9kv_engine3keyINtB2_3KeyNtNtCs3nU4b9VY2Ln_5bytes5bytes5BytesE3lenB4_
FN:277,_RNvMNtCs9G0t2qE8rAk_9kv_engine3keyINtB2_3KeyNtNtCs3nU4b9VY2Ln_5bytes5bytes5BytesE7raw_refB4_
FN:232,_RNvMNtCs9G0t2qE8rAk_9kv_engine3keyINtB2_3KeyRShE10into_innerB4_
FN:293,_RNvMNtCs9G0t2qE8rAk_9kv_engine3keyINtB2_3KeyRShE14for_testing_tsB4_
FN:255,_RNvMNtCs9G0t2qE8rAk_9kv_engine3keyINtB2_3KeyRShE15decode_user_keyB4_
FN:250,_RNvMNtCs9G0t2qE8rAk_9kv_engine3keyINtB2_3KeyRShE16encoded_user_keyB4_
FN:284,_RNvMNtCs9G0t2qE8rAk_9kv_engine3keyINtB2_3KeyRShE19for_testing_key_refB4_
FN:266,_RNvMNtCs9G0t2qE8rAk_9kv_engine3keyINtB2_3KeyRShE20decode_user_key_intoB4_
FN:245,_RNvMNtCs9G0t2qE8rAk_9kv_engine3keyINtB2_3KeyRShE2tsB4_
FN:236,_RNvMNtCs9G0t2qE8rAk_9kv_engine3keyINtB2_3KeyRShE3lenB4_
FN:277,_RNvMNtCs9G0t2qE8rAk_9kv_engine3keyINtB2_3KeyRShE7raw_refB4_
FN:240,_RNvMNtCs9G0t2qE8rAk_9kv_engine3keyINtB2_3KeyRShE8is_emptyB4_
FN:394,_RNvXs2_NtCs9G0t2qE8rAk_9kv_engine3keyINtB5_3KeyINtNtCs2TrN21NlPz_5alloc3vec3VechEENtNtCslfAf2Mv2Tp5_4core3fmt5Debug3fmtB7_
FN:394,_RNvXs2_NtCs9G0t2qE8rAk_9kv_engine3keyINtB5_3KeyNtNtCs3nU4b9VY2Ln_5bytes5bytes5BytesENtNtCslfAf2Mv2Tp5_4core3fmt5Debug3fmtB7_
FN:394,_RNvXs2_NtCs9G0t2qE8rAk_9kv_engine3keyINtB5_3KeyRShENtNtCslfAf2Mv2Tp5_4core3fmt5Debug3fmtB7_
FN:400,_RNvXs3_NtCs9G0t2qE8rAk_9kv_engine3keyINtB5_3KeyINtNtCs2TrN21NlPz_5alloc3vec3VechEENtNtCslfAf2Mv2Tp5_4core7default7Default7defaultB7_
FN:406,_RNvXs4_NtCs9G0t2qE8rAk_9kv_engine3keyINtB5_3KeyNtNtCs3nU4b9VY2Ln_5bytes5bytes5BytesENtNtCslfAf2Mv2Tp5_4core3cmp9PartialEq2eqB7_
FN:406,_RNvXs4_NtCs9G0t2qE8rAk_9kv_engine3keyINtB5_3KeyRShENtNtCslfAf2Mv2Tp5_4core3cmp9PartialEq2eqB7_
FN:414,_RNvXs6_NtCs9G0t2qE8rAk_9kv_engine3keyINtB5_3KeyINtNtCs2TrN21NlPz_5alloc3vec3VechEENtNtCslfAf2Mv2Tp5_4core5clone5Clone5cloneB7_
FN:414,_RNvXs6_NtCs9G0t2qE8rAk_9kv_engine3keyINtB5_3KeyNtNtCs3nU4b9VY2Ln_5bytes5bytes5BytesENtNtCslfAf2Mv2Tp5_4core5clone5Clone5cloneB7_
FN:422,_RNvXs8_NtCs9G0t2qE8rAk_9kv_engine3keyINtB5_3KeyNtNtCs3nU4b9VY2Ln_5bytes5bytes5BytesENtNtCslfAf2Mv2Tp5_4core3cmp10PartialOrd11partial_cmpB7_
FN:422,_RNvXs8_NtCs9G0t2qE8rAk_9kv_engine3keyINtB5_3KeyRShENtNtCslfAf2Mv2Tp5_4core3cmp10PartialOrd11partial_cmpB7_
FN:428,_RNvXs9_NtCs9G0t2qE8rAk_9kv_engine3keyINtB5_3KeyNtNtCs3nU4b9VY2Ln_5bytes5bytes5BytesENtNtCslfAf2Mv2Tp5_4core3cmp3Ord3cmpB7_
FN:428,_RNvXs9_NtCs9G0t2qE8rAk_9kv_engine3keyINtB5_3KeyRShENtNtCslfAf2Mv2Tp5_4core3cmp3Ord3cmpB7_
FN:359,_RNvMs0_NtCs9G0t2qE8rAk_9kv_engine3keyINtB5_3KeyNtNtCs3nU4b9VY2Ln_5bytes5bytes5BytesE10from_bytes
FN:354,_RNvMs0_NtCs9G0t2qE8rAk_9kv_engine3keyINtB5_3KeyNtNtCs3nU4b9VY2Ln_5bytes5bytes5BytesE12as_key_slice
FN:364,_RNvMs0_NtCs9G0t2qE8rAk_9kv_engine3keyINtB5_3KeyNtNtCs3nU4b9VY2Ln_5bytes5bytes5BytesE28for_testing_from_bytes_no_ts
FN:375,_RNvMs1_NtCs9G0t2qE8rAk_9kv_engine3keyINtB5_3KeyRShE10from_slice
FN:370,_RNvMs1_NtCs9G0t2qE8rAk_9kv_engine3keyINtB5_3KeyRShE10to_key_vec
FN:383,_RNvMs1_NtCs9G0t2qE8rAk_9kv_engine3keyINtB5_3KeyRShE28for_testing_from_slice_no_ts
FN:388,_RNvMs1_NtCs9G0t2qE8rAk_9kv_engine3keyINtB5_3KeyRShE30for_testing_from_slice_with_ts
FN:339,_RNvMs_NtCs9G0t2qE8rAk_9kv_engine3keyINtB4_3KeyINtNtCs2TrN21NlPz_5alloc3vec3VechEE12as_key_slice
FN:343,_RNvMs_NtCs9G0t2qE8rAk_9kv_engine3keyINtB4_3KeyINtNtCs2TrN21NlPz_5alloc3vec3VechEE14into_key_bytes
FN:333,_RNvMs_NtCs9G0t2qE8rAk_9kv_engine3keyINtB4_3KeyINtNtCs2TrN21NlPz_5alloc3vec3VechEE14set_from_slice
FN:309,_RNvMs_NtCs9G0t2qE8rAk_9kv_engine3keyINtB4_3KeyINtNtCs2TrN21NlPz_5alloc3vec3VechEE16from_user_key_ts
FN:314,_RNvMs_NtCs9G0t2qE8rAk_9kv_engine3keyINtB4_3KeyINtNtCs2TrN21NlPz_5alloc3vec3VechEE20set_from_user_key_ts
FN:348,_RNvMs_NtCs9G0t2qE8rAk_9kv_engine3keyINtB4_3KeyINtNtCs2TrN21NlPz_5alloc3vec3VechEE26for_testing_from_vec_no_ts
FN:299,_RNvMs_NtCs9G0t2qE8rAk_9kv_engine3keyINtB4_3KeyINtNtCs2TrN21NlPz_5alloc3vec3VechEE3new
FN:322,_RNvMs_NtCs9G0t2qE8rAk_9kv_engine3keyINtB4_3KeyINtNtCs2TrN21NlPz_5alloc3vec3VechEE5clear
FN:327,_RNvMs_NtCs9G0t2qE8rAk_9kv_engine3keyINtB4_3KeyINtNtCs2TrN21NlPz_5alloc3vec3VechEE6append
FN:304,_RNvMs_NtCs9G0t2qE8rAk_9kv_engine3keyINtB4_3KeyINtNtCs2TrN21NlPz_5alloc3vec3VechEE8from_vec
FN:161,_RNvNtCs9G0t2qE8rAk_9kv_engine3key10extract_ts
FN:208,_RNvNtCs9G0t2qE8rAk_9kv_engine3key15decode_user_key
FN:221,_RNvNtCs9G0t2qE8rAk_9kv_engine3key19decode_user_key_cow
FN:68,_RNvNtCs9G0t2qE8rAk_9kv_engine3key19encode_internal_key
FN:173,_RNvNtCs9G0t2qE8rAk_9kv_engine3key20decode_user_key_into
FN:151,_RNvNtCs9G0t2qE8rAk_9kv_engine3key23encoded_user_key_prefix
FN:15,_RNvNtCs9G0t2qE8rAk_9kv_engine3key23shared_bytes_from_slice
FN:137,_RNvNtCs9G0t2qE8rAk_9kv_engine3key24encoded_internal_key_len
FN:81,_RNvNtCs9G0t2qE8rAk_9kv_engine3key26encode_internal_key_to_buf
FN:49,_RNvNtCs9G0t2qE8rAk_9kv_engine3key32encode_memcomparable_user_key_to
FN:813,_RNvNtNtCs9G0t2qE8rAk_9kv_engine3key5testss_14test_key_debug
FN:805,_RNvNtNtCs9G0t2qE8rAk_9kv_engine3key5testss_16test_key_default
FN:822,_RNvNtNtCs9G0t2qE8rAk_9kv_engine3key5testss_19test_key_into_inner
FN:463,_RNvNtNtCs9G0t2qE8rAk_9kv_engine3key5testss_21test_encode_empty_key
FN:473,_RNvNtNtCs9G0t2qE8rAk_9kv_engine3key5testss_21test_encode_short_key
FN:854,_RNvNtNtCs9G0t2qE8rAk_9kv_engine3key5testss_23test_key_for_testing_ts
FN:569,_RNvNtNtCs9G0t2qE8rAk_9kv_engine3key5testss_24test_key_ts_and_user_key
FN:507,_RNvNtNtCs9G0t2qE8rAk_9kv_engine3key5testss_25test_encode_all_zeros_key
FN:494,_RNvNtNtCs9G0t2qE8rAk_9kv_engine3key5testss_25test_encode_two_group_key
FN:702,_RNvNtNtCs9G0t2qE8rAk_9kv_engine3key5testss_25test_extract_ts_too_short
FN:747,_RNvNtNtCs9G0t2qE8rAk_9kv_engine3key5testss_25test_key_bytes_from_bytes
FN:829,_RNvNtNtCs9G0t2qE8rAk_9kv_engine3key5testss_25test_key_slice_into_inner
FN:755,_RNvNtNtCs9G0t2qE8rAk_9kv_engine3key5testss_25test_key_slice_to_key_vec
FN:886,_RNvNtNtCs9G0t2qE8rAk_9kv_engine3key5testss_26test_decode_user_key_short
FN:483,_RNvNtNtCs9G0t2qE8rAk_9kv_engine3key5testss_26test_encode_full_group_key
FN:721,_RNvNtNtCs9G0t2qE8rAk_9kv_engine3key5testss_26test_key_vec_new_and_clear
FN:739,_RNvNtNtCs9G0t2qE8rAk_9kv_engine3key5testss_27test_key_vec_into_key_bytes
FN:731,_RNvNtNtCs9G0t2qE8rAk_9kv_engine3key5testss_27test_key_vec_set_from_slice
FN:550,_RNvNtNtCs9G0t2qE8rAk_9kv_engine3key5testss_28test_encoded_user_key_prefix
FN:440,_RNvNtNtCs9G0t2qE8rAk_9kv_engine3key5testss_29test_encode_decode_round_trip
FN:578,_RNvNtNtCs9G0t2qE8rAk_9kv_engine3key5testss_29test_key_ordering_newer_first
FN:542,_RNvNtNtCs9G0t2qE8rAk_9kv_engine3key5testss_30test_decode_user_key_too_short
FN:651,_RNvNtNtCs9G0t2qE8rAk_9kv_engine3key5testss_31test_decode_user_key_into_empty
FN:607,_RNvNtNtCs9G0t2qE8rAk_9kv_engine3key5testss_31test_encode_internal_key_to_buf
FN:708,_RNvNtNtCs9G0t2qE8rAk_9kv_engine3key5testss_31test_extract_ts_exactly_minimum
FN:876,_RNvNtNtCs9G0t2qE8rAk_9kv_engine3key5testss_31test_extract_ts_malformed_short
FN:770,_RNvNtNtCs9G0t2qE8rAk_9kv_engine3key5testss_31test_for_testing_from_vec_no_ts
FN:861,_RNvNtNtCs9G0t2qE8rAk_9kv_engine3key5testss_32test_key_vec_for_testing_key_ref
FN:633,_RNvNtNtCs9G0t2qE8rAk_9kv_engine3key5testss_32test_keyvec_set_from_user_key_ts
FN:776,_RNvNtNtCs9G0t2qE8rAk_9kv_engine3key5testss_33test_for_testing_from_bytes_no_ts
FN:764,_RNvNtNtCs9G0t2qE8rAk_9kv_engine3key5testss_33test_for_testing_from_slice_no_ts
FN:881,_RNvNtNtCs9G0t2qE8rAk_9kv_engine3key5testss_34test_encoded_user_key_prefix_short
FN:845,_RNvNtNtCs9G0t2qE8rAk_9kv_engine3key5testss_34test_key_encoded_user_key_fallback
FN:791,_RNvNtNtCs9G0t2qE8rAk_9kv_engine3key5testss_34test_shared_bytes_from_slice_empty
FN:533,_RNvNtNtCs9G0t2qE8rAk_9kv_engine3key5testss_35test_decode_user_key_cow_with_zeros
FN:782,_RNvNtNtCs9G0t2qE8rAk_9kv_engine3key5testss_35test_for_testing_from_slice_with_ts
FN:593,_RNvNtNtCs9G0t2qE8rAk_9kv_engine3key5testss_35test_key_ordering_full_group_prefix
FN:664,_RNvNtNtCs9G0t2qE8rAk_9kv_engine3key5testss_36test_decode_user_key_into_bad_marker
FN:837,_RNvNtNtCs9G0t2qE8rAk_9kv_engine3key5testss_36test_key_decode_user_key_into_method
FN:520,_RNvNtNtCs9G0t2qE8rAk_9kv_engine3key5testss_37test_decode_user_key_cow_always_owned
FN:586,_RNvNtNtCs9G0t2qE8rAk_9kv_engine3key5testss_37test_key_ordering_different_user_keys
FN:797,_RNvNtNtCs9G0t2qE8rAk_9kv_engine3key5testss_37test_shared_bytes_from_slice_nonempty
FN:623,_RNvNtNtCs9G0t2qE8rAk_9kv_engine3key5testss_38test_encode_internal_key_to_buf_append
FN:641,_RNvNtNtCs9G0t2qE8rAk_9kv_engine3key5testss_38test_keyvec_set_from_user_key_ts_reuse
FN:870,_RNvNtNtCs9G0t2qE8rAk_9kv_engine3key5testss_40test_decode_user_key_cow_malformed_short
FN:560,_RNvNtNtCs9G0t2qE8rAk_9kv_engine3key5testss_40test_encoded_user_key_prefix_multi_group
FN:673,_RNvNtNtCs9G0t2qE8rAk_9kv_engine3key5testss_42test_decode_user_key_into_non_zero_padding
FN:615,_RNvNtNtCs9G0t2qE8rAk_9kv_engine3key5testss_42test_encode_internal_key_to_buf_with_zeros
FN:657,_RNvNtNtCs9G0t2qE8rAk_9kv_engine3key5testss_47test_decode_user_key_into_not_multiple_of_group
FN:686,_RNvNtNtCs9G0t2qE8rAk_9kv_engine3key5testss_48test_decode_user_key_into_empty_terminator_group
FN:118,_RINvNtCshcgQatfXnqn_9kv_engine3key26encode_internal_key_inlineKpEB4_
FN:232,_RNvMNtCshcgQatfXnqn_9kv_engine3keyINtB2_3KeypE10into_innerB4_
FN:293,_RNvMNtCshcgQatfXnqn_9kv_engine3keyINtB2_3KeypE14for_testing_tsB4_
FN:284,_RNvMNtCshcgQatfXnqn_9kv_engine3keyINtB2_3KeypE19for_testing_key_refB4_
FN:90,_RNvNtCshcgQatfXnqn_9kv_engine3key36encode_memcomparable_user_key_inlineB3_
FN:394,_RNvXININtCshcgQatfXnqn_9kv_engine3keys2_0pEINtB5_3KeypENtNtCslfAf2Mv2Tp5_4core3fmt5Debug3fmtB7_
FN:400,_RNvXININtCshcgQatfXnqn_9kv_engine3keys3_0pEINtB5_3KeypENtNtCslfAf2Mv2Tp5_4core7default7Default7defaultB7_
FN:251,_RNCNvMNtCshcgQatfXnqn_9kv_engine3keyINtB4_3KeyNtNtCs3nU4b9VY2Ln_5bytes5bytes5BytesE16encoded_user_key0B6_
FN:256,_RNCNvMNtCshcgQatfXnqn_9kv_engine3keyINtB4_3KeyRShE15decode_user_key0B6_
FN:251,_RNCNvMNtCshcgQatfXnqn_9kv_engine3keyINtB4_3KeyRShE16encoded_user_key0B6_
FN:191,_RNCNvNtCshcgQatfXnqn_9kv_engine3key20decode_user_key_into0B5_
FN:141,_RNCNvNtCshcgQatfXnqn_9kv_engine3key24encoded_internal_key_len0B5_
FN:277,_RNvMNtCshcgQatfXnqn_9kv_engine3keyINtB2_3KeyINtNtCs2TrN21NlPz_5alloc3vec3VechEE7raw_refB4_
FN:250,_RNvMNtCshcgQatfXnqn_9kv_engine3keyINtB2_3KeyNtNtCs3nU4b9VY2Ln_5bytes5bytes5BytesE16encoded_user_keyB4_
FN:260,_RNvMNtCshcgQatfXnqn_9kv_engine3keyINtB2_3KeyNtNtCs3nU4b9VY2Ln_5bytes5bytes5BytesE19decode_user_key_cowB4_
FN:236,_RNvMNtCshcgQatfXnqn_9kv_engine3keyINtB2_3KeyNtNtCs3nU4b9VY2Ln_5bytes5bytes5BytesE3lenB4_
FN:277,_RNvMNtCshcgQatfXnqn_9kv_engine3keyINtB2_3KeyNtNtCs3nU4b9VY2Ln_5bytes5bytes5BytesE7raw_refB4_
FN:255,_RNvMNtCshcgQatfXnqn_9kv_engine3keyINtB2_3KeyRShE15decode_user_keyB4_
FN:250,_RNvMNtCshcgQatfXnqn_9kv_engine3keyINtB2_3KeyRShE16encoded_user_keyB4_
FN:266,_RNvMNtCshcgQatfXnqn_9kv_engine3keyINtB2_3KeyRShE20decode_user_key_intoB4_
FN:245,_RNvMNtCshcgQatfXnqn_9kv_engine3keyINtB2_3KeyRShE2tsB4_
FN:236,_RNvMNtCshcgQatfXnqn_9kv_engine3keyINtB2_3KeyRShE3lenB4_
FN:277,_RNvMNtCshcgQatfXnqn_9kv_engine3keyINtB2_3KeyRShE7raw_refB4_
FN:240,_RNvMNtCshcgQatfXnqn_9kv_engine3keyINtB2_3KeyRShE8is_emptyB4_
FN:406,_RNvXs4_NtCshcgQatfXnqn_9kv_engine3keyINtB5_3KeyRShENtNtCslfAf2Mv2Tp5_4core3cmp9PartialEq2eqB7_
FN:414,_RNvXs6_NtCshcgQatfXnqn_9kv_engine3keyINtB5_3KeyINtNtCs2TrN21NlPz_5alloc3vec3VechEENtNtCslfAf2Mv2Tp5_4core5clone5Clone5cloneB7_
FN:414,_RNvXs6_NtCshcgQatfXnqn_9kv_engine3keyINtB5_3KeyNtNtCs3nU4b9VY2Ln_5bytes5bytes5BytesENtNtCslfAf2Mv2Tp5_4core5clone5Clone5cloneB7_
FN:422,_RNvXs8_NtCshcgQatfXnqn_9kv_engine3keyINtB5_3KeyNtNtCs3nU4b9VY2Ln_5bytes5bytes5BytesENtNtCslfAf2Mv2Tp5_4core3cmp10PartialOrd11partial_cmpB7_
FN:422,_RNvXs8_NtCshcgQatfXnqn_9kv_engine3keyINtB5_3KeyRShENtNtCslfAf2Mv2Tp5_4core3cmp10PartialOrd11partial_cmpB7_
FN:428,_RNvXs9_NtCshcgQatfXnqn_9kv_engine3keyINtB5_3KeyNtNtCs3nU4b9VY2Ln_5bytes5bytes5BytesENtNtCslfAf2Mv2Tp5_4core3cmp3Ord3cmpB7_
FN:428,_RNvXs9_NtCshcgQatfXnqn_9kv_engine3keyINtB5_3KeyRShENtNtCslfAf2Mv2Tp5_4core3cmp3Ord3cmpB7_
FN:359,_RNvMs0_NtCshcgQatfXnqn_9kv_engine3keyINtB5_3KeyNtNtCs3nU4b9VY2Ln_5bytes5bytes5BytesE10from_bytes
FN:354,_RNvMs0_NtCshcgQatfXnqn_9kv_engine3keyINtB5_3KeyNtNtCs3nU4b9VY2Ln_5bytes5bytes5BytesE12as_key_slice
FN:364,_RNvMs0_NtCshcgQatfXnqn_9kv_engine3keyINtB5_3KeyNtNtCs3nU4b9VY2Ln_5bytes5bytes5BytesE28for_testing_from_bytes_no_ts
FN:375,_RNvMs1_NtCshcgQatfXnqn_9kv_engine3keyINtB5_3KeyRShE10from_slice
FN:370,_RNvMs1_NtCshcgQatfXnqn_9kv_engine3keyINtB5_3KeyRShE10to_key_vec
FN:383,_RNvMs1_NtCshcgQatfXnqn_9kv_engine3keyINtB5_3KeyRShE28for_testing_from_slice_no_ts
FN:388,_RNvMs1_NtCshcgQatfXnqn_9kv_engine3keyINtB5_3KeyRShE30for_testing_from_slice_with_ts
FN:339,_RNvMs_NtCshcgQatfXnqn_9kv_engine3keyINtB4_3KeyINtNtCs2TrN21NlPz_5alloc3vec3VechEE12as_key_slice
FN:343,_RNvMs_NtCshcgQatfXnqn_9kv_engine3keyINtB4_3KeyINtNtCs2TrN21NlPz_5alloc3vec3VechEE14into_key_bytes
FN:333,_RNvMs_NtCshcgQatfXnqn_9kv_engine3keyINtB4_3KeyINtNtCs2TrN21NlPz_5alloc3vec3VechEE14set_from_slice
FN:309,_RNvMs_NtCshcgQatfXnqn_9kv_engine3keyINtB4_3KeyINtNtCs2TrN21NlPz_5alloc3vec3VechEE16from_user_key_ts
FN:314,_RNvMs_NtCshcgQatfXnqn_9kv_engine3keyINtB4_3KeyINtNtCs2TrN21NlPz_5alloc3vec3VechEE20set_from_user_key_ts
FN:348,_RNvMs_NtCshcgQatfXnqn_9kv_engine3keyINtB4_3KeyINtNtCs2TrN21NlPz_5alloc3vec3VechEE26for_testing_from_vec_no_ts
FN:299,_RNvMs_NtCshcgQatfXnqn_9kv_engine3keyINtB4_3KeyINtNtCs2TrN21NlPz_5alloc3vec3VechEE3new
FN:322,_RNvMs_NtCshcgQatfXnqn_9kv_engine3keyINtB4_3KeyINtNtCs2TrN21NlPz_5alloc3vec3VechEE5clear
FN:327,_RNvMs_NtCshcgQatfXnqn_9kv_engine3keyINtB4_3KeyINtNtCs2TrN21NlPz_5alloc3vec3VechEE6append
FN:304,_RNvMs_NtCshcgQatfXnqn_9kv_engine3keyINtB4_3KeyINtNtCs2TrN21NlPz_5alloc3vec3VechEE8from_vec
FN:161,_RNvNtCshcgQatfXnqn_9kv_engine3key10extract_ts
FN:208,_RNvNtCshcgQatfXnqn_9kv_engine3key15decode_user_key
FN:221,_RNvNtCshcgQatfXnqn_9kv_engine3key19decode_user_key_cow
FN:68,_RNvNtCshcgQatfXnqn_9kv_engine3key19encode_internal_key
FN:173,_RNvNtCshcgQatfXnqn_9kv_engine3key20decode_user_key_into
FN:151,_RNvNtCshcgQatfXnqn_9kv_engine3key23encoded_user_key_prefix
FN:15,_RNvNtCshcgQatfXnqn_9kv_engine3key23shared_bytes_from_slice
FN:137,_RNvNtCshcgQatfXnqn_9kv_engine3key24encoded_internal_key_len
FN:81,_RNvNtCshcgQatfXnqn_9kv_engine3key26encode_internal_key_to_buf
FN:49,_RNvNtCshcgQatfXnqn_9kv_engine3key32encode_memcomparable_user_key_to
FNDA:0,_RINvNtCs9G0t2qE8rAk_9kv_engine3key26encode_internal_key_inlineKpEB4_
FNDA:0,_RNvNtCs9G0t2qE8rAk_9kv_engine3key36encode_memcomparable_user_key_inlineB3_
FNDA:0,_RNCNvMNtCs9G0t2qE8rAk_9kv_engine3keyINtB4_3KeyINtNtCs2TrN21NlPz_5alloc3vec3VechEE15decode_user_key0B6_
FNDA:1000,_RNCNvMNtCs9G0t2qE8rAk_9kv_engine3keyINtB4_3KeyINtNtCs2TrN21NlPz_5alloc3vec3VechEE16encoded_user_key0B6_
FNDA:0,_RNCNvMNtCs9G0t2qE8rAk_9kv_engine3keyINtB4_3KeyNtNtCs3nU4b9VY2Ln_5bytes5bytes5BytesE15decode_user_key0B6_
FNDA:0,_RNCNvMNtCs9G0t2qE8rAk_9kv_engine3keyINtB4_3KeyNtNtCs3nU4b9VY2Ln_5bytes5bytes5BytesE16encoded_user_key0B6_
FNDA:64,_RNCNvMNtCs9G0t2qE8rAk_9kv_engine3keyINtB4_3KeyRShE15decode_user_key0B6_
FNDA:1508,_RNCNvMNtCs9G0t2qE8rAk_9kv_engine3keyINtB4_3KeyRShE16encoded_user_key0B6_
FNDA:192671,_RNCNvNtCs9G0t2qE8rAk_9kv_engine3key20decode_user_key_into0B5_
FNDA:24646,_RNCNvNtCs9G0t2qE8rAk_9kv_engine3key24encoded_internal_key_len0B5_
FNDA:1,_RNvMNtCs9G0t2qE8rAk_9kv_engine3keyINtB2_3KeyINtNtCs2TrN21NlPz_5alloc3vec3VechEE10into_innerB4_
FNDA:5,_RNvMNtCs9G0t2qE8rAk_9kv_engine3keyINtB2_3KeyINtNtCs2TrN21NlPz_5alloc3vec3VechEE15decode_user_keyB4_
FNDA:2004,_RNvMNtCs9G0t2qE8rAk_9kv_engine3keyINtB2_3KeyINtNtCs2TrN21NlPz_5alloc3vec3VechEE16encoded_user_keyB4_
FNDA:2003,_RNvMNtCs9G0t2qE8rAk_9kv_engine3keyINtB2_3KeyINtNtCs2TrN21NlPz_5alloc3vec3VechEE19for_testing_key_refB4_
FNDA:1,_RNvMNtCs9G0t2qE8rAk_9kv_engine3keyINtB2_3KeyINtNtCs2TrN21NlPz_5alloc3vec3VechEE20decode_user_key_intoB4_
FNDA:5,_RNvMNtCs9G0t2qE8rAk_9kv_engine3keyINtB2_3KeyINtNtCs2TrN21NlPz_5alloc3vec3VechEE2tsB4_
FNDA:1,_RNvMNtCs9G0t2qE8rAk_9kv_engine3keyINtB2_3KeyINtNtCs2TrN21NlPz_5alloc3vec3VechEE3lenB4_
FNDA:44576,_RNvMNtCs9G0t2qE8rAk_9kv_engine3keyINtB2_3KeyINtNtCs2TrN21NlPz_5alloc3vec3VechEE7raw_refB4_
FNDA:3,_RNvMNtCs9G0t2qE8rAk_9kv_engine3keyINtB2_3KeyINtNtCs2TrN21NlPz_5alloc3vec3VechEE8is_emptyB4_
FNDA:2,_RNvMNtCs9G0t2qE8rAk_9kv_engine3keyINtB2_3KeyNtNtCs3nU4b9VY2Ln_5bytes5bytes5BytesE15decode_user_keyB4_
FNDA:19553,_RNvMNtCs9G0t2qE8rAk_9kv_engine3keyINtB2_3KeyNtNtCs3nU4b9VY2Ln_5bytes5bytes5BytesE16encoded_user_keyB4_
FNDA:22,_RNvMNtCs9G0t2qE8rAk_9kv_engine3keyINtB2_3KeyNtNtCs3nU4b9VY2Ln_5bytes5bytes5BytesE19decode_user_key_cowB4_
FNDA:2,_RNvMNtCs9G0t2qE8rAk_9kv_engine3keyINtB2_3KeyNtNtCs3nU4b9VY2Ln_5bytes5bytes5BytesE19for_testing_key_refB4_
FNDA:2,_RNvMNtCs9G0t2qE8rAk_9kv_engine3keyINtB2_3KeyNtNtCs3nU4b9VY2Ln_5bytes5bytes5BytesE2tsB4_
FNDA:31056,_RNvMNtCs9G0t2qE8rAk_9kv_engine3keyINtB2_3KeyNtNtCs3nU4b9VY2Ln_5bytes5bytes5BytesE3lenB4_
FNDA:15678,_RNvMNtCs9G0t2qE8rAk_9kv_engine3keyINtB2_3KeyNtNtCs3nU4b9VY2Ln_5bytes5bytes5BytesE7raw_refB4_
FNDA:1,_RNvMNtCs9G0t2qE8rAk_9kv_engine3keyINtB2_3KeyRShE10into_innerB4_
FNDA:1,_RNvMNtCs9G0t2qE8rAk_9kv_engine3keyINtB2_3KeyRShE14for_testing_tsB4_
FNDA:173,_RNvMNtCs9G0t2qE8rAk_9kv_engine3keyINtB2_3KeyRShE15decode_user_keyB4_
FNDA:97897,_RNvMNtCs9G0t2qE8rAk_9kv_engine3keyINtB2_3KeyRShE16encoded_user_keyB4_
FNDA:2117,_RNvMNtCs9G0t2qE8rAk_9kv_engine3keyINtB2_3KeyRShE19for_testing_key_refB4_
FNDA:51543,_RNvMNtCs9G0t2qE8rAk_9kv_engine3keyINtB2_3KeyRShE20decode_user_key_intoB4_
FNDA:32581,_RNvMNtCs9G0t2qE8rAk_9kv_engine3keyINtB2_3KeyRShE2tsB4_
FNDA:70070,_RNvMNtCs9G0t2qE8rAk_9kv_engine3keyINtB2_3KeyRShE3lenB4_
FNDA:108698,_RNvMNtCs9G0t2qE8rAk_9kv_engine3keyINtB2_3KeyRShE7raw_refB4_
FNDA:30177,_RNvMNtCs9G0t2qE8rAk_9kv_engine3keyINtB2_3KeyRShE8is_emptyB4_
FNDA:1,_RNvXs2_NtCs9G0t2qE8rAk_9kv_engine3keyINtB5_3KeyINtNtCs2TrN21NlPz_5alloc3vec3VechEENtNtCslfAf2Mv2Tp5_4core3fmt5Debug3fmtB7_
FNDA:0,_RNvXs2_NtCs9G0t2qE8rAk_9kv_engine3keyINtB5_3KeyNtNtCs3nU4b9VY2Ln_5bytes5bytes5BytesENtNtCslfAf2Mv2Tp5_4core3fmt5Debug3fmtB7_
FNDA:0,_RNvXs2_NtCs9G0t2qE8rAk_9kv_engine3keyINtB5_3KeyRShENtNtCslfAf2Mv2Tp5_4core3fmt5Debug3fmtB7_
FNDA:1,_RNvXs3_NtCs9G0t2qE8rAk_9kv_engine3keyINtB5_3KeyINtNtCs2TrN21NlPz_5alloc3vec3VechEENtNtCslfAf2Mv2Tp5_4core7default7Default7defaultB7_
FNDA:68,_RNvXs4_NtCs9G0t2qE8rAk_9kv_engine3keyINtB5_3KeyNtNtCs3nU4b9VY2Ln_5bytes5bytes5BytesENtNtCslfAf2Mv2Tp5_4core3cmp9PartialEq2eqB7_
FNDA:1418,_RNvXs4_NtCs9G0t2qE8rAk_9kv_engine3keyINtB5_3KeyRShENtNtCslfAf2Mv2Tp5_4core3cmp9PartialEq2eqB7_
FNDA:10267,_RNvXs6_NtCs9G0t2qE8rAk_9kv_engine3keyINtB5_3KeyINtNtCs2TrN21NlPz_5alloc3vec3VechEENtNtCslfAf2Mv2Tp5_4core5clone5Clone5cloneB7_
FNDA:636,_RNvXs6_NtCs9G0t2qE8rAk_9kv_engine3keyINtB5_3KeyNtNtCs3nU4b9VY2Ln_5bytes5bytes5BytesENtNtCslfAf2Mv2Tp5_4core5clone5Clone5cloneB7_
FNDA:9,_RNvXs8_NtCs9G0t2qE8rAk_9kv_engine3keyINtB5_3KeyNtNtCs3nU4b9VY2Ln_5bytes5bytes5BytesENtNtCslfAf2Mv2Tp5_4core3cmp10PartialOrd11partial_cmpB7_
FNDA:1175,_RNvXs8_NtCs9G0t2qE8rAk_9kv_engine3keyINtB5_3KeyRShENtNtCslfAf2Mv2Tp5_4core3cmp10PartialOrd11partial_cmpB7_
FNDA:13,_RNvXs9_NtCs9G0t2qE8rAk_9kv_engine3keyINtB5_3KeyNtNtCs3nU4b9VY2Ln_5bytes5bytes5BytesENtNtCslfAf2Mv2Tp5_4core3cmp3Ord3cmpB7_
FNDA:1452,_RNvXs9_NtCs9G0t2qE8rAk_9kv_engine3keyINtB5_3KeyRShENtNtCslfAf2Mv2Tp5_4core3cmp3Ord3cmpB7_
FNDA:33698,_RNvMs0_NtCs9G0t2qE8rAk_9kv_engine3keyINtB5_3KeyNtNtCs3nU4b9VY2Ln_5bytes5bytes5BytesE10from_bytes
FNDA:78624,_RNvMs0_NtCs9G0t2qE8rAk_9kv_engine3keyINtB5_3KeyNtNtCs3nU4b9VY2Ln_5bytes5bytes5BytesE12as_key_slice
FNDA:1,_RNvMs0_NtCs9G0t2qE8rAk_9kv_engine3keyINtB5_3KeyNtNtCs3nU4b9VY2Ln_5bytes5bytes5BytesE28for_testing_from_bytes_no_ts
FNDA:59277,_RNvMs1_NtCs9G0t2qE8rAk_9kv_engine3keyINtB5_3KeyRShE10from_slice
FNDA:18,_RNvMs1_NtCs9G0t2qE8rAk_9kv_engine3keyINtB5_3KeyRShE10to_key_vec
FNDA:1350,_RNvMs1_NtCs9G0t2qE8rAk_9kv_engine3keyINtB5_3KeyRShE28for_testing_from_slice_no_ts
FNDA:1,_RNvMs1_NtCs9G0t2qE8rAk_9kv_engine3keyINtB5_3KeyRShE30for_testing_from_slice_with_ts
FNDA:60068,_RNvMs_NtCs9G0t2qE8rAk_9kv_engine3keyINtB4_3KeyINtNtCs2TrN21NlPz_5alloc3vec3VechEE12as_key_slice
FNDA:198,_RNvMs_NtCs9G0t2qE8rAk_9kv_engine3keyINtB4_3KeyINtNtCs2TrN21NlPz_5alloc3vec3VechEE14into_key_bytes
FNDA:1,_RNvMs_NtCs9G0t2qE8rAk_9kv_engine3keyINtB4_3KeyINtNtCs2TrN21NlPz_5alloc3vec3VechEE14set_from_slice
FNDA:1967,_RNvMs_NtCs9G0t2qE8rAk_9kv_engine3keyINtB4_3KeyINtNtCs2TrN21NlPz_5alloc3vec3VechEE16from_user_key_ts
FNDA:2,_RNvMs_NtCs9G0t2qE8rAk_9kv_engine3keyINtB4_3KeyINtNtCs2TrN21NlPz_5alloc3vec3VechEE20set_from_user_key_ts
FNDA:1502,_RNvMs_NtCs9G0t2qE8rAk_9kv_engine3keyINtB4_3KeyINtNtCs2TrN21NlPz_5alloc3vec3VechEE26for_testing_from_vec_no_ts
FNDA:3,_RNvMs_NtCs9G0t2qE8rAk_9kv_engine3keyINtB4_3KeyINtNtCs2TrN21NlPz_5alloc3vec3VechEE3new
FNDA:15867,_RNvMs_NtCs9G0t2qE8rAk_9kv_engine3keyINtB4_3KeyINtNtCs2TrN21NlPz_5alloc3vec3VechEE5clear
FNDA:24107,_RNvMs_NtCs9G0t2qE8rAk_9kv_engine3keyINtB4_3KeyINtNtCs2TrN21NlPz_5alloc3vec3VechEE6append
FNDA:10447,_RNvMs_NtCs9G0t2qE8rAk_9kv_engine3keyINtB4_3KeyINtNtCs2TrN21NlPz_5alloc3vec3VechEE8from_vec
FNDA:39178,_RNvNtCs9G0t2qE8rAk_9kv_engine3key10extract_ts
FNDA:532,_RNvNtCs9G0t2qE8rAk_9kv_engine3key15decode_user_key
FNDA:37,_RNvNtCs9G0t2qE8rAk_9kv_engine3key19decode_user_key_cow
FNDA:32861,_RNvNtCs9G0t2qE8rAk_9kv_engine3key19encode_internal_key
FNDA:51597,_RNvNtCs9G0t2qE8rAk_9kv_engine3key20decode_user_key_into
FNDA:189460,_RNvNtCs9G0t2qE8rAk_9kv_engine3key23encoded_user_key_prefix
FNDA:62691,_RNvNtCs9G0t2qE8rAk_9kv_engine3key23shared_bytes_from_slice
FNDA:24646,_RNvNtCs9G0t2qE8rAk_9kv_engine3key24encoded_internal_key_len
FNDA:110,_RNvNtCs9G0t2qE8rAk_9kv_engine3key26encode_internal_key_to_buf
FNDA:32971,_RNvNtCs9G0t2qE8rAk_9kv_engine3key32encode_memcomparable_user_key_to
FNDA:1,_RNvNtNtCs9G0t2qE8rAk_9kv_engine3key5testss_14test_key_debug
FNDA:1,_RNvNtNtCs9G0t2qE8rAk_9kv_engine3key5testss_16test_key_default
FNDA:1,_RNvNtNtCs9G0t2qE8rAk_9kv_engine3key5testss_19test_key_into_inner
FNDA:1,_RNvNtNtCs9G0t2qE8rAk_9kv_engine3key5testss_21test_encode_empty_key
FNDA:1,_RNvNtNtCs9G0t2qE8rAk_9kv_engine3key5testss_21test_encode_short_key
FNDA:1,_RNvNtNtCs9G0t2qE8rAk_9kv_engine3key5testss_23test_key_for_testing_ts
FNDA:1,_RNvNtNtCs9G0t2qE8rAk_9kv_engine3key5testss_24test_key_ts_and_user_key
FNDA:1,_RNvNtNtCs9G0t2qE8rAk_9kv_engine3key5testss_25test_encode_all_zeros_key
FNDA:1,_RNvNtNtCs9G0t2qE8rAk_9kv_engine3key5testss_25test_encode_two_group_key
FNDA:1,_RNvNtNtCs9G0t2qE8rAk_9kv_engine3key5testss_25test_extract_ts_too_short
FNDA:1,_RNvNtNtCs9G0t2qE8rAk_9kv_engine3key5testss_25test_key_bytes_from_bytes
FNDA:1,_RNvNtNtCs9G0t2qE8rAk_9kv_engine3key5testss_25test_key_slice_into_inner
FNDA:1,_RNvNtNtCs9G0t2qE8rAk_9kv_engine3key5testss_25test_key_slice_to_key_vec
FNDA:1,_RNvNtNtCs9G0t2qE8rAk_9kv_engine3key5testss_26test_decode_user_key_short
FNDA:1,_RNvNtNtCs9G0t2qE8rAk_9kv_engine3key5testss_26test_encode_full_group_key
FNDA:1,_RNvNtNtCs9G0t2qE8rAk_9kv_engine3key5testss_26test_key_vec_new_and_clear
FNDA:1,_RNvNtNtCs9G0t2qE8rAk_9kv_engine3key5testss_27test_key_vec_into_key_bytes
FNDA:1,_RNvNtNtCs9G0t2qE8rAk_9kv_engine3key5testss_27test_key_vec_set_from_slice
FNDA:1,_RNvNtNtCs9G0t2qE8rAk_9kv_engine3key5testss_28test_encoded_user_key_prefix
FNDA:1,_RNvNtNtCs9G0t2qE8rAk_9kv_engine3key5testss_29test_encode_decode_round_trip
FNDA:1,_RNvNtNtCs9G0t2qE8rAk_9kv_engine3key5testss_29test_key_ordering_newer_first
FNDA:1,_RNvNtNtCs9G0t2qE8rAk_9kv_engine3key5testss_30test_decode_user_key_too_short
FNDA:1,_RNvNtNtCs9G0t2qE8rAk_9kv_engine3key5testss_31test_decode_user_key_into_empty
FNDA:1,_RNvNtNtCs9G0t2qE8rAk_9kv_engine3key5testss_31test_encode_internal_key_to_buf
FNDA:1,_RNvNtNtCs9G0t2qE8rAk_9kv_engine3key5testss_31test_extract_ts_exactly_minimum
FNDA:1,_RNvNtNtCs9G0t2qE8rAk_9kv_engine3key5testss_31test_extract_ts_malformed_short
FNDA:1,_RNvNtNtCs9G0t2qE8rAk_9kv_engine3key5testss_31test_for_testing_from_vec_no_ts
FNDA:1,_RNvNtNtCs9G0t2qE8rAk_9kv_engine3key5testss_32test_key_vec_for_testing_key_ref
FNDA:1,_RNvNtNtCs9G0t2qE8rAk_9kv_engine3key5testss_32test_keyvec_set_from_user_key_ts
FNDA:1,_RNvNtNtCs9G0t2qE8rAk_9kv_engine3key5testss_33test_for_testing_from_bytes_no_ts
FNDA:1,_RNvNtNtCs9G0t2qE8rAk_9kv_engine3key5testss_33test_for_testing_from_slice_no_ts
FNDA:1,_RNvNtNtCs9G0t2qE8rAk_9kv_engine3key5testss_34test_encoded_user_key_prefix_short
FNDA:1,_RNvNtNtCs9G0t2qE8rAk_9kv_engine3key5testss_34test_key_encoded_user_key_fallback
FNDA:1,_RNvNtNtCs9G0t2qE8rAk_9kv_engine3key5testss_34test_shared_bytes_from_slice_empty
FNDA:1,_RNvNtNtCs9G0t2qE8rAk_9kv_engine3key5testss_35test_decode_user_key_cow_with_zeros
FNDA:1,_RNvNtNtCs9G0t2qE8rAk_9kv_engine3key5testss_35test_for_testing_from_slice_with_ts
FNDA:1,_RNvNtNtCs9G0t2qE8rAk_9kv_engine3key5testss_35test_key_ordering_full_group_prefix
FNDA:1,_RNvNtNtCs9G0t2qE8rAk_9kv_engine3key5testss_36test_decode_user_key_into_bad_marker
FNDA:1,_RNvNtNtCs9G0t2qE8rAk_9kv_engine3key5testss_36test_key_decode_user_key_into_method
FNDA:1,_RNvNtNtCs9G0t2qE8rAk_9kv_engine3key5testss_37test_decode_user_key_cow_always_owned
FNDA:1,_RNvNtNtCs9G0t2qE8rAk_9kv_engine3key5testss_37test_key_ordering_different_user_keys
FNDA:1,_RNvNtNtCs9G0t2qE8rAk_9kv_engine3key5testss_37test_shared_bytes_from_slice_nonempty
FNDA:1,_RNvNtNtCs9G0t2qE8rAk_9kv_engine3key5testss_38test_encode_internal_key_to_buf_append
FNDA:1,_RNvNtNtCs9G0t2qE8rAk_9kv_engine3key5testss_38test_keyvec_set_from_user_key_ts_reuse
FNDA:1,_RNvNtNtCs9G0t2qE8rAk_9kv_engine3key5testss_40test_decode_user_key_cow_malformed_short
FNDA:1,_RNvNtNtCs9G0t2qE8rAk_9kv_engine3key5testss_40test_encoded_user_key_prefix_multi_group
FNDA:1,_RNvNtNtCs9G0t2qE8rAk_9kv_engine3key5testss_42test_decode_user_key_into_non_zero_padding
FNDA:1,_RNvNtNtCs9G0t2qE8rAk_9kv_engine3key5testss_42test_encode_internal_key_to_buf_with_zeros
FNDA:1,_RNvNtNtCs9G0t2qE8rAk_9kv_engine3key5testss_47test_decode_user_key_into_not_multiple_of_group
FNDA:1,_RNvNtNtCs9G0t2qE8rAk_9kv_engine3key5testss_48test_decode_user_key_into_empty_terminator_group
FNDA:0,_RINvNtCshcgQatfXnqn_9kv_engine3key26encode_internal_key_inlineKpEB4_
FNDA:0,_RNvMNtCshcgQatfXnqn_9kv_engine3keyINtB2_3KeypE10into_innerB4_
FNDA:0,_RNvMNtCshcgQatfXnqn_9kv_engine3keyINtB2_3KeypE14for_testing_tsB4_
FNDA:0,_RNvMNtCshcgQatfXnqn_9kv_engine3keyINtB2_3KeypE19for_testing_key_refB4_
FNDA:0,_RNvNtCshcgQatfXnqn_9kv_engine3key36encode_memcomparable_user_key_inlineB3_
FNDA:0,_RNvXININtCshcgQatfXnqn_9kv_engine3keys2_0pEINtB5_3KeypENtNtCslfAf2Mv2Tp5_4core3fmt5Debug3fmtB7_
FNDA:0,_RNvXININtCshcgQatfXnqn_9kv_engine3keys3_0pEINtB5_3KeypENtNtCslfAf2Mv2Tp5_4core7default7Default7defaultB7_
FNDA:0,_RNCNvMNtCshcgQatfXnqn_9kv_engine3keyINtB4_3KeyNtNtCs3nU4b9VY2Ln_5bytes5bytes5BytesE16encoded_user_key0B6_
FNDA:0,_RNCNvMNtCshcgQatfXnqn_9kv_engine3keyINtB4_3KeyRShE15decode_user_key0B6_
FNDA:0,_RNCNvMNtCshcgQatfXnqn_9kv_engine3keyINtB4_3KeyRShE16encoded_user_key0B6_
FNDA:0,_RNCNvNtCshcgQatfXnqn_9kv_engine3key20decode_user_key_into0B5_
FNDA:0,_RNCNvNtCshcgQatfXnqn_9kv_engine3key24encoded_internal_key_len0B5_
FNDA:0,_RNvMNtCshcgQatfXnqn_9kv_engine3keyINtB2_3KeyINtNtCs2TrN21NlPz_5alloc3vec3VechEE7raw_refB4_
FNDA:0,_RNvMNtCshcgQatfXnqn_9kv_engine3keyINtB2_3KeyNtNtCs3nU4b9VY2Ln_5bytes5bytes5BytesE16encoded_user_keyB4_
FNDA:0,_RNvMNtCshcgQatfXnqn_9kv_engine3keyINtB2_3KeyNtNtCs3nU4b9VY2Ln_5bytes5bytes5BytesE19decode_user_key_cowB4_
FNDA:0,_RNvMNtCshcgQatfXnqn_9kv_engine3keyINtB2_3KeyNtNtCs3nU4b9VY2Ln_5bytes5bytes5BytesE3lenB4_
FNDA:0,_RNvMNtCshcgQatfXnqn_9kv_engine3keyINtB2_3KeyNtNtCs3nU4b9VY2Ln_5bytes5bytes5BytesE7raw_refB4_
FNDA:0,_RNvMNtCshcgQatfXnqn_9kv_engine3keyINtB2_3KeyRShE15decode_user_keyB4_
FNDA:0,_RNvMNtCshcgQatfXnqn_9kv_engine3keyINtB2_3KeyRShE16encoded_user_keyB4_
FNDA:0,_RNvMNtCshcgQatfXnqn_9kv_engine3keyINtB2_3KeyRShE20decode_user_key_intoB4_
FNDA:0,_RNvMNtCshcgQatfXnqn_9kv_engine3keyINtB2_3KeyRShE2tsB4_
FNDA:0,_RNvMNtCshcgQatfXnqn_9kv_engine3keyINtB2_3KeyRShE3lenB4_
FNDA:0,_RNvMNtCshcgQatfXnqn_9kv_engine3keyINtB2_3KeyRShE7raw_refB4_
FNDA:0,_RNvMNtCshcgQatfXnqn_9kv_engine3keyINtB2_3KeyRShE8is_emptyB4_
FNDA:0,_RNvXs4_NtCshcgQatfXnqn_9kv_engine3keyINtB5_3KeyRShENtNtCslfAf2Mv2Tp5_4core3cmp9PartialEq2eqB7_
FNDA:0,_RNvXs6_NtCshcgQatfXnqn_9kv_engine3keyINtB5_3KeyINtNtCs2TrN21NlPz_5alloc3vec3VechEENtNtCslfAf2Mv2Tp5_4core5clone5Clone5cloneB7_
FNDA:0,_RNvXs6_NtCshcgQatfXnqn_9kv_engine3keyINtB5_3KeyNtNtCs3nU4b9VY2Ln_5bytes5bytes5BytesENtNtCslfAf2Mv2Tp5_4core5clone5Clone5cloneB7_
FNDA:0,_RNvXs8_NtCshcgQatfXnqn_9kv_engine3keyINtB5_3KeyNtNtCs3nU4b9VY2Ln_5bytes5bytes5BytesENtNtCslfAf2Mv2Tp5_4core3cmp10PartialOrd11partial_cmpB7_
FNDA:0,_RNvXs8_NtCshcgQatfXnqn_9kv_engine3keyINtB5_3KeyRShENtNtCslfAf2Mv2Tp5_4core3cmp10PartialOrd11partial_cmpB7_
FNDA:0,_RNvXs9_NtCshcgQatfXnqn_9kv_engine3keyINtB5_3KeyNtNtCs3nU4b9VY2Ln_5bytes5bytes5BytesENtNtCslfAf2Mv2Tp5_4core3cmp3Ord3cmpB7_
FNDA:0,_RNvXs9_NtCshcgQatfXnqn_9kv_engine3keyINtB5_3KeyRShENtNtCslfAf2Mv2Tp5_4core3cmp3Ord3cmpB7_
FNDA:0,_RNvMs0_NtCshcgQatfXnqn_9kv_engine3keyINtB5_3KeyNtNtCs3nU4b9VY2Ln_5bytes5bytes5BytesE10from_bytes
FNDA:0,_RNvMs0_NtCshcgQatfXnqn_9kv_engine3keyINtB5_3KeyNtNtCs3nU4b9VY2Ln_5bytes5bytes5BytesE12as_key_slice
FNDA:0,_RNvMs0_NtCshcgQatfXnqn_9kv_engine3keyINtB5_3KeyNtNtCs3nU4b9VY2Ln_5bytes5bytes5BytesE28for_testing_from_bytes_no_ts
FNDA:0,_RNvMs1_NtCshcgQatfXnqn_9kv_engine3keyINtB5_3KeyRShE10from_slice
FNDA:0,_RNvMs1_NtCshcgQatfXnqn_9kv_engine3keyINtB5_3KeyRShE10to_key_vec
FNDA:0,_RNvMs1_NtCshcgQatfXnqn_9kv_engine3keyINtB5_3KeyRShE28for_testing_from_slice_no_ts
FNDA:0,_RNvMs1_NtCshcgQatfXnqn_9kv_engine3keyINtB5_3KeyRShE30for_testing_from_slice_with_ts
FNDA:0,_RNvMs_NtCshcgQatfXnqn_9kv_engine3keyINtB4_3KeyINtNtCs2TrN21NlPz_5alloc3vec3VechEE12as_key_slice
FNDA:0,_RNvMs_NtCshcgQatfXnqn_9kv_engine3keyINtB4_3KeyINtNtCs2TrN21NlPz_5alloc3vec3VechEE14into_key_bytes
FNDA:0,_RNvMs_NtCshcgQatfXnqn_9kv_engine3keyINtB4_3KeyINtNtCs2TrN21NlPz_5alloc3vec3VechEE14set_from_slice
FNDA:0,_RNvMs_NtCshcgQatfXnqn_9kv_engine3keyINtB4_3KeyINtNtCs2TrN21NlPz_5alloc3vec3VechEE16from_user_key_ts
FNDA:0,_RNvMs_NtCshcgQatfXnqn_9kv_engine3keyINtB4_3KeyINtNtCs2TrN21NlPz_5alloc3vec3VechEE20set_from_user_key_ts
FNDA:0,_RNvMs_NtCshcgQatfXnqn_9kv_engine3keyINtB4_3KeyINtNtCs2TrN21NlPz_5alloc3vec3VechEE26for_testing_from_vec_no_ts
FNDA:0,_RNvMs_NtCshcgQatfXnqn_9kv_engine3keyINtB4_3KeyINtNtCs2TrN21NlPz_5alloc3vec3VechEE3new
FNDA:0,_RNvMs_NtCshcgQatfXnqn_9kv_engine3keyINtB4_3KeyINtNtCs2TrN21NlPz_5alloc3vec3VechEE5clear
FNDA:0,_RNvMs_NtCshcgQatfXnqn_9kv_engine3keyINtB4_3KeyINtNtCs2TrN21NlPz_5alloc3vec3VechEE6append
FNDA:0,_RNvMs_NtCshcgQatfXnqn_9kv_engine3keyINtB4_3KeyINtNtCs2TrN21NlPz_5alloc3vec3VechEE8from_vec
FNDA:0,_RNvNtCshcgQatfXnqn_9kv_engine3key10extract_ts
FNDA:0,_RNvNtCshcgQatfXnqn_9kv_engine3key15decode_user_key
FNDA:0,_RNvNtCshcgQatfXnqn_9kv_engine3key19decode_user_key_cow
FNDA:0,_RNvNtCshcgQatfXnqn_9kv_engine3key19encode_internal_key
FNDA:0,_RNvNtCshcgQatfXnqn_9kv_engine3key20decode_user_key_into
FNDA:0,_RNvNtCshcgQatfXnqn_9kv_engine3key23encoded_user_key_prefix
FNDA:0,_RNvNtCshcgQatfXnqn_9kv_engine3key23shared_bytes_from_slice
FNDA:0,_RNvNtCshcgQatfXnqn_9kv_engine3key24encoded_internal_key_len
FNDA:0,_RNvNtCshcgQatfXnqn_9kv_engine3key26encode_internal_key_to_buf
FNDA:0,_RNvNtCshcgQatfXnqn_9kv_engine3key32encode_memcomparable_user_key_to
FNF:100
FNH:98
DA:15,62691
DA:16,62691
DA:17,2
DA:18,62689
DA:19,62689
DA:20,62689
DA:22,62689
DA:23,62691
DA:49,32971
DA:50,32971
DA:51,32971
DA:52,5482
DA:53,5482
DA:54,5482
DA:55,32971
DA:61,32971
DA:62,32971
DA:63,32971
DA:64,32971
DA:65,32971
DA:68,32861
DA:70,32861
DA:71,32861
DA:72,32861
DA:73,32861
DA:74,32861
DA:75,32861
DA:77,32861
DA:78,32861
DA:81,110
DA:82,110
DA:83,110
DA:84,110
DA:85,110
DA:90,0
DA:91,0
DA:92,0
DA:93,0
DA:94,0
DA:95,0
DA:96,0
DA:97,0
DA:98,0
DA:99,0
DA:100,0
DA:101,0
DA:102,0
DA:103,0
DA:104,0
DA:105,0
DA:106,0
DA:107,0
DA:108,0
DA:118,0
DA:119,0
DA:120,0
DA:121,0
DA:122,0
DA:123,0
DA:124,0
DA:125,0
DA:128,0
DA:129,0
DA:130,0
DA:131,0
DA:132,0
DA:133,0
DA:137,24646
DA:138,24646
DA:139,24646
DA:140,24646
DA:141,24646
DA:142,24646
DA:143,24646
DA:151,189460
DA:153,189460
DA:154,2993
DA:155,186467
DA:156,186467
DA:157,189460
DA:161,39178
DA:162,39178
DA:163,328
DA:164,38850
DA:165,38850
DA:166,38850
DA:168,38850
DA:169,39178
DA:173,51597
DA:174,51597
DA:176,51597
DA:177,2
DA:178,51595
DA:179,51595
DA:180,64820
DA:181,64820
DA:182,64820
DA:183,64820
DA:184,64820
DA:185,1
DA:186,64819
DA:187,64819
DA:189,51594
DA:190,51594
DA:191,192671
DA:193,1
DA:194,51593
DA:195,51593
DA:196,51593
DA:198,51593
DA:199,13225
DA:200,13225
DA:201,13225
DA:203,0
DA:204,51597
DA:208,532
DA:209,532
DA:210,385
DA:211,385
DA:212,385
DA:214,0
DA:216,532
DA:221,37
DA:222,37
DA:223,37
DA:232,2
DA:233,2
DA:234,2
DA:236,101127
DA:237,101127
DA:238,101127
DA:240,30180
DA:241,30180
DA:242,30180
DA:245,32588
DA:246,32588
DA:247,32588
DA:250,119454
DA:251,119454
DA:252,119454
DA:255,180
DA:256,180
DA:257,180
DA:260,22
DA:261,22
DA:262,22
DA:266,51544
DA:267,51544
DA:268,51207
DA:270,51207
DA:271,337
DA:272,337
DA:273,337
DA:274,51544
DA:277,168952
DA:278,168952
DA:279,168952
DA:284,4122
DA:285,4122
DA:286,4122
DA:288,0
DA:290,4122
DA:293,1
DA:294,1
DA:295,1
DA:299,3
DA:300,3
DA:301,3
DA:304,10447
DA:305,10447
DA:306,10447
DA:309,1967
DA:310,1967
DA:311,1967
DA:314,2
DA:315,2
DA:316,2
DA:317,2
DA:318,2
DA:319,2
DA:322,15867
DA:323,15867
DA:324,15867
DA:327,24107
DA:328,24107
DA:329,24107
DA:333,1
DA:334,1
DA:335,1
DA:336,1
DA:337,1
DA:339,60068
DA:340,60068
DA:341,60068
DA:343,198
DA:344,198
DA:345,198
DA:348,1502
DA:349,1502
DA:350,1502
DA:354,78624
DA:355,78624
DA:356,78624
DA:359,33698
DA:360,33698
DA:361,33698
DA:364,1
DA:365,1
DA:366,1
DA:370,18
DA:371,18
DA:372,18
DA:375,59277
DA:376,59277
DA:377,59277
DA:383,1350
DA:384,1350
DA:385,1350
DA:388,1
DA:389,1
DA:390,1
DA:394,1
DA:395,1
DA:396,1
DA:400,1
DA:401,1
DA:402,1
DA:406,1486
DA:407,1486
DA:408,1486
DA:414,10903
DA:415,10903
DA:416,10903
DA:422,1184
DA:423,1184
DA:424,1184
DA:428,1465
DA:429,1465
DA:430,1465
DA:440,1
DA:441,1
DA:442,1
DA:443,1
DA:444,1
DA:445,1
DA:446,1
DA:447,1
DA:448,1
DA:449,1
DA:450,1
DA:451,1
DA:453,10
DA:454,10
DA:455,10
DA:456,10
DA:458,1
DA:463,1
DA:464,1
DA:466,1
DA:467,1
DA:469,1
DA:470,1
DA:473,1
DA:475,1
DA:476,1
DA:477,1
DA:478,1
DA:479,1
DA:480,1
DA:483,1
DA:485,1
DA:486,1
DA:487,1
DA:488,1
DA:489,1
DA:490,1
DA:491,1
DA:494,1
DA:497,1
DA:498,1
DA:499,1
DA:500,1
DA:501,1
DA:502,1
DA:503,1
DA:504,1
DA:507,1
DA:508,1
DA:509,1
DA:510,1
DA:511,1
DA:512,1
DA:513,1
DA:514,1
DA:515,1
DA:520,1
DA:522,1
DA:523,1
DA:524,1
DA:526,1
DA:527,1
DA:528,0
DA:530,1
DA:533,1
DA:534,1
DA:535,1
DA:536,1
DA:537,1
DA:542,1
DA:544,1
DA:545,1
DA:550,1
DA:551,1
DA:552,1
DA:554,1
DA:555,1
DA:556,1
DA:557,1
DA:560,1
DA:561,1
DA:562,1
DA:563,1
DA:564,1
DA:569,1
DA:570,1
DA:571,1
DA:572,1
DA:574,1
DA:575,1
DA:578,1
DA:580,1
DA:581,1
DA:582,1
DA:583,1
DA:586,1
DA:587,1
DA:588,1
DA:589,1
DA:590,1
DA:593,1
DA:596,1
DA:597,1
DA:598,1
DA:599,1
DA:602,1
DA:607,1
DA:608,1
DA:609,1
DA:610,1
DA:611,1
DA:612,1
DA:615,1
DA:616,1
DA:617,1
DA:618,1
DA:619,1
DA:620,1
DA:623,1
DA:624,1
DA:625,1
DA:626,1
DA:627,1
DA:628,1
DA:633,1
DA:634,1
DA:635,1
DA:636,1
DA:637,1
DA:638,1
DA:641,1
DA:642,1
DA:643,1
DA:644,1
DA:645,1
DA:646,1
DA:651,1
DA:652,1
DA:653,1
DA:654,1
DA:657,1
DA:659,1
DA:660,1
DA:661,1
DA:664,1
DA:666,1
DA:667,1
DA:668,1
DA:669,1
DA:670,1
DA:673,1
DA:675,1
DA:676,1
DA:678,1
DA:679,1
DA:680,1
DA:681,1
DA:682,1
DA:683,1
DA:686,1
DA:689,1
DA:690,1
DA:692,1
DA:693,1
DA:694,1
DA:695,1
DA:696,1
DA:697,1
DA:702,1
DA:704,1
DA:705,1
DA:708,1
DA:711,1
DA:712,1
DA:713,1
DA:714,1
DA:715,1
DA:716,1
DA:721,1
DA:722,1
DA:723,1
DA:724,1
DA:725,1
DA:726,1
DA:727,1
DA:728,1
DA:731,1
DA:732,1
DA:733,1
DA:734,1
DA:735,1
DA:736,1
DA:739,1
DA:740,1
DA:741,1
DA:742,1
DA:743,1
DA:744,1
DA:747,1
DA:748,1
DA:749,1
DA:750,1
DA:751,1
DA:752,1
DA:755,1
DA:756,1
DA:757,1
DA:758,1
DA:759,1
DA:760,1
DA:761,1
DA:764,1
DA:765,1
DA:766,1
DA:767,1
DA:770,1
DA:771,1
DA:772,1
DA:773,1
DA:776,1
DA:777,1
DA:778,1
DA:779,1
DA:782,1
DA:783,1
DA:784,1
DA:785,1
DA:786,1
DA:791,1
DA:792,1
DA:793,1
DA:794,1
DA:797,1
DA:798,1
DA:799,1
DA:800,1
DA:805,1
DA:806,1
DA:807,1
DA:808,1
DA:813,1
DA:814,1
DA:815,1
DA:816,1
DA:817,1
DA:822,1
DA:823,1
DA:824,1
DA:825,1
DA:826,1
DA:829,1
DA:830,1
DA:831,1
DA:832,1
DA:833,1
DA:834,1
DA:837,1
DA:838,1
DA:839,1
DA:840,1
DA:841,1
DA:842,1
DA:845,1
DA:848,1
DA:849,1
DA:850,1
DA:851,1
DA:854,1
DA:855,1
DA:856,1
DA:857,1
DA:858,1
DA:861,1
DA:862,1
DA:865,1
DA:866,1
DA:867,1
DA:870,1
DA:872,1
DA:873,1
DA:876,1
DA:877,1
DA:878,1
DA:881,1
DA:882,1
DA:883,1
DA:886,1
DA:887,1
DA:888,1
BRF:0
BRH:0
LF:532
LH:495
end_of_record
SF:/home/liu/proj/toy-kv-engine/kv-engine/src/lib.rs
FN:28,_RNCNvCs9G0t2qE8rAk_9kv_engine12init_logging0B3_
FN:22,_RNvCs9G0t2qE8rAk_9kv_engine12init_logging
FN:41,_RNvNtCs9G0t2qE8rAk_9kv_engine14logforth_testss_34init_logging_is_safe_to_call_twice
FN:28,_RNCNvCshcgQatfXnqn_9kv_engine12init_logging0B3_
FN:22,_RNvCshcgQatfXnqn_9kv_engine12init_logging
FNDA:2,_RNCNvCs9G0t2qE8rAk_9kv_engine12init_logging0B3_
FNDA:2,_RNvCs9G0t2qE8rAk_9kv_engine12init_logging
FNDA:1,_RNvNtCs9G0t2qE8rAk_9kv_engine14logforth_testss_34init_logging_is_safe_to_call_twice
FNDA:0,_RNCNvCshcgQatfXnqn_9kv_engine12init_logging0B3_
FNDA:0,_RNvCshcgQatfXnqn_9kv_engine12init_logging
FNF:3
FNH:3
DA:22,2
DA:27,2
DA:28,2
DA:29,2
DA:30,2
DA:31,2
DA:32,2
DA:33,2
DA:41,1
DA:42,1
DA:43,1
DA:44,1
DA:45,1
DA:46,1
DA:48,1
DA:49,1
BRF:0
BRH:0
LF:17
LH:17
end_of_record
SF:/home/liu/proj/toy-kv-engine/kv-engine/src/lsm_iterator.rs
FN:322,_RNvMs2_NtCs9G0t2qE8rAk_9kv_engine12lsm_iteratorNtB5_12ScanIterator10into_inner
FN:168,_RNvMNtCs9G0t2qE8rAk_9kv_engine12lsm_iteratorNtB2_11LsmIterator11check_bound
FN:89,_RNvMNtCs9G0t2qE8rAk_9kv_engine12lsm_iteratorNtB2_11LsmIterator15skip_tombstones
FN:45,_RNvMNtCs9G0t2qE8rAk_9kv_engine12lsm_iteratorNtB2_11LsmIterator3new
FN:314,_RNvMs2_NtCs9G0t2qE8rAk_9kv_engine12lsm_iteratorNtB5_12ScanIterator3new
FN:349,_RNvXs3_NtCs9G0t2qE8rAk_9kv_engine12lsm_iteratorNtB5_12ScanIteratorNtNtB7_9iterators15StorageIterator20num_active_iterators
FN:337,_RNvXs3_NtCs9G0t2qE8rAk_9kv_engine12lsm_iteratorNtB5_12ScanIteratorNtNtB7_9iterators15StorageIterator3key
FN:345,_RNvXs3_NtCs9G0t2qE8rAk_9kv_engine12lsm_iteratorNtB5_12ScanIteratorNtNtB7_9iterators15StorageIterator4next
FN:333,_RNvXs3_NtCs9G0t2qE8rAk_9kv_engine12lsm_iteratorNtB5_12ScanIteratorNtNtB7_9iterators15StorageIterator5value
FN:341,_RNvXs3_NtCs9G0t2qE8rAk_9kv_engine12lsm_iteratorNtB5_12ScanIteratorNtNtB7_9iterators15StorageIterator8is_valid
FN:234,_RNvXs_NtCs9G0t2qE8rAk_9kv_engine12lsm_iteratorNtB4_11LsmIteratorNtNtB6_9iterators15StorageIterator20num_active_iterators
FN:184,_RNvXs_NtCs9G0t2qE8rAk_9kv_engine12lsm_iteratorNtB4_11LsmIteratorNtNtB6_9iterators15StorageIterator3key
FN:196,_RNvXs_NtCs9G0t2qE8rAk_9kv_engine12lsm_iteratorNtB4_11LsmIteratorNtNtB6_9iterators15StorageIterator4next
FN:192,_RNvXs_NtCs9G0t2qE8rAk_9kv_engine12lsm_iteratorNtB4_11LsmIteratorNtNtB6_9iterators15StorageIterator5value
FN:180,_RNvXs_NtCs9G0t2qE8rAk_9kv_engine12lsm_iteratorNtB4_11LsmIteratorNtNtB6_9iterators15StorageIterator8is_valid
FN:117,_RNCNvMNtCs9G0t2qE8rAk_9kv_engine12lsm_iteratorNtB4_11LsmIterator15skip_tombstones0B6_
FN:151,_RNCNvMNtCs9G0t2qE8rAk_9kv_engine12lsm_iteratorNtB4_11LsmIterator15skip_tombstoness_0B6_
FN:249,_RNvMs0_NtCs9G0t2qE8rAk_9kv_engine12lsm_iteratorINtB5_13FusedIteratorNtB5_11LsmIteratorE3newB7_
FN:249,_RNvMs0_NtCs9G0t2qE8rAk_9kv_engine12lsm_iteratorINtB5_13FusedIteratorNtNtNtB7_5tests7harness12MockIteratorE3newB7_
FN:296,_RNvXs1_NtCs9G0t2qE8rAk_9kv_engine12lsm_iteratorINtB5_13FusedIteratorNtB5_11LsmIteratorENtNtB7_9iterators15StorageIterator20num_active_iteratorsB7_
FN:267,_RNvXs1_NtCs9G0t2qE8rAk_9kv_engine12lsm_iteratorINtB5_13FusedIteratorNtB5_11LsmIteratorENtNtB7_9iterators15StorageIterator3keyB7_
FN:281,_RNvXs1_NtCs9G0t2qE8rAk_9kv_engine12lsm_iteratorINtB5_13FusedIteratorNtB5_11LsmIteratorENtNtB7_9iterators15StorageIterator4nextB7_
FN:274,_RNvXs1_NtCs9G0t2qE8rAk_9kv_engine12lsm_iteratorINtB5_13FusedIteratorNtB5_11LsmIteratorENtNtB7_9iterators15StorageIterator5valueB7_
FN:263,_RNvXs1_NtCs9G0t2qE8rAk_9kv_engine12lsm_iteratorINtB5_13FusedIteratorNtB5_11LsmIteratorENtNtB7_9iterators15StorageIterator8is_validB7_
FN:281,_RNvXs1_NtCs9G0t2qE8rAk_9kv_engine12lsm_iteratorINtB5_13FusedIteratorNtNtNtB7_5tests7harness12MockIteratorENtNtB7_9iterators15StorageIterator4nextB7_
FN:263,_RNvXs1_NtCs9G0t2qE8rAk_9kv_engine12lsm_iteratorINtB5_13FusedIteratorNtNtNtB7_5tests7harness12MockIteratorENtNtB7_9iterators15StorageIterator8is_validB7_
FN:168,_RNvMNtCshcgQatfXnqn_9kv_engine12lsm_iteratorNtB2_11LsmIterator11check_bound
FN:89,_RNvMNtCshcgQatfXnqn_9kv_engine12lsm_iteratorNtB2_11LsmIterator15skip_tombstones
FN:45,_RNvMNtCshcgQatfXnqn_9kv_engine12lsm_iteratorNtB2_11LsmIterator3new
FN:314,_RNvMs2_NtCshcgQatfXnqn_9kv_engine12lsm_iteratorNtB5_12ScanIterator3new
FN:349,_RNvXs3_NtCshcgQatfXnqn_9kv_engine12lsm_iteratorNtB5_12ScanIteratorNtNtB7_9iterators15StorageIterator20num_active_iterators
FN:337,_RNvXs3_NtCshcgQatfXnqn_9kv_engine12lsm_iteratorNtB5_12ScanIteratorNtNtB7_9iterators15StorageIterator3key
FN:345,_RNvXs3_NtCshcgQatfXnqn_9kv_engine12lsm_iteratorNtB5_12ScanIteratorNtNtB7_9iterators15StorageIterator4next
FN:333,_RNvXs3_NtCshcgQatfXnqn_9kv_engine12lsm_iteratorNtB5_12ScanIteratorNtNtB7_9iterators15StorageIterator5value
FN:341,_RNvXs3_NtCshcgQatfXnqn_9kv_engine12lsm_iteratorNtB5_12ScanIteratorNtNtB7_9iterators15StorageIterator8is_valid
FN:234,_RNvXs_NtCshcgQatfXnqn_9kv_engine12lsm_iteratorNtB4_11LsmIteratorNtNtB6_9iterators15StorageIterator20num_active_iterators
FN:184,_RNvXs_NtCshcgQatfXnqn_9kv_engine12lsm_iteratorNtB4_11LsmIteratorNtNtB6_9iterators15StorageIterator3key
FN:196,_RNvXs_NtCshcgQatfXnqn_9kv_engine12lsm_iteratorNtB4_11LsmIteratorNtNtB6_9iterators15StorageIterator4next
FN:192,_RNvXs_NtCshcgQatfXnqn_9kv_engine12lsm_iteratorNtB4_11LsmIteratorNtNtB6_9iterators15StorageIterator5value
FN:180,_RNvXs_NtCshcgQatfXnqn_9kv_engine12lsm_iteratorNtB4_11LsmIteratorNtNtB6_9iterators15StorageIterator8is_valid
FN:322,_RNvMs2_NtCshcgQatfXnqn_9kv_engine12lsm_iteratorNtB5_12ScanIterator10into_inner
FN:117,_RNCNvMNtCshcgQatfXnqn_9kv_engine12lsm_iteratorNtB4_11LsmIterator15skip_tombstones0B6_
FN:151,_RNCNvMNtCshcgQatfXnqn_9kv_engine12lsm_iteratorNtB4_11LsmIterator15skip_tombstoness_0B6_
FN:249,_RNvMs0_NtCshcgQatfXnqn_9kv_engine12lsm_iteratorINtB5_13FusedIteratorNtB5_11LsmIteratorE3newB7_
FN:296,_RNvXs1_NtCshcgQatfXnqn_9kv_engine12lsm_iteratorINtB5_13FusedIteratorNtB5_11LsmIteratorENtNtB7_9iterators15StorageIterator20num_active_iteratorsB7_
FN:267,_RNvXs1_NtCshcgQatfXnqn_9kv_engine12lsm_iteratorINtB5_13FusedIteratorNtB5_11LsmIteratorENtNtB7_9iterators15StorageIterator3keyB7_
FN:281,_RNvXs1_NtCshcgQatfXnqn_9kv_engine12lsm_iteratorINtB5_13FusedIteratorNtB5_11LsmIteratorENtNtB7_9iterators15StorageIterator4nextB7_
FN:274,_RNvXs1_NtCshcgQatfXnqn_9kv_engine12lsm_iteratorINtB5_13FusedIteratorNtB5_11LsmIteratorENtNtB7_9iterators15StorageIterator5valueB7_
FN:263,_RNvXs1_NtCshcgQatfXnqn_9kv_engine12lsm_iteratorINtB5_13FusedIteratorNtB5_11LsmIteratorENtNtB7_9iterators15StorageIterator8is_validB7_
FNDA:0,_RNvMs2_NtCs9G0t2qE8rAk_9kv_engine12lsm_iteratorNtB5_12ScanIterator10into_inner
FNDA:683,_RNvMNtCs9G0t2qE8rAk_9kv_engine12lsm_iteratorNtB2_11LsmIterator11check_bound
FNDA:234,_RNvMNtCs9G0t2qE8rAk_9kv_engine12lsm_iteratorNtB2_11LsmIterator15skip_tombstones
FNDA:79,_RNvMNtCs9G0t2qE8rAk_9kv_engine12lsm_iteratorNtB2_11LsmIterator3new
FNDA:75,_RNvMs2_NtCs9G0t2qE8rAk_9kv_engine12lsm_iteratorNtB5_12ScanIterator3new
FNDA:9,_RNvXs3_NtCs9G0t2qE8rAk_9kv_engine12lsm_iteratorNtB5_12ScanIteratorNtNtB7_9iterators15StorageIterator20num_active_iterators
FNDA:148,_RNvXs3_NtCs9G0t2qE8rAk_9kv_engine12lsm_iteratorNtB5_12ScanIteratorNtNtB7_9iterators15StorageIterator3key
FNDA:154,_RNvXs3_NtCs9G0t2qE8rAk_9kv_engine12lsm_iteratorNtB5_12ScanIteratorNtNtB7_9iterators15StorageIterator4next
FNDA:118,_RNvXs3_NtCs9G0t2qE8rAk_9kv_engine12lsm_iteratorNtB5_12ScanIteratorNtNtB7_9iterators15StorageIterator5value
FNDA:220,_RNvXs3_NtCs9G0t2qE8rAk_9kv_engine12lsm_iteratorNtB5_12ScanIteratorNtNtB7_9iterators15StorageIterator8is_valid
FNDA:9,_RNvXs_NtCs9G0t2qE8rAk_9kv_engine12lsm_iteratorNtB4_11LsmIteratorNtNtB6_9iterators15StorageIterator20num_active_iterators
FNDA:157,_RNvXs_NtCs9G0t2qE8rAk_9kv_engine12lsm_iteratorNtB4_11LsmIteratorNtNtB6_9iterators15StorageIterator3key
FNDA:155,_RNvXs_NtCs9G0t2qE8rAk_9kv_engine12lsm_iteratorNtB4_11LsmIteratorNtNtB6_9iterators15StorageIterator4next
FNDA:122,_RNvXs_NtCs9G0t2qE8rAk_9kv_engine12lsm_iteratorNtB4_11LsmIteratorNtNtB6_9iterators15StorageIterator5value
FNDA:683,_RNvXs_NtCs9G0t2qE8rAk_9kv_engine12lsm_iteratorNtB4_11LsmIteratorNtNtB6_9iterators15StorageIterator8is_valid
FNDA:197,_RNCNvMNtCs9G0t2qE8rAk_9kv_engine12lsm_iteratorNtB4_11LsmIterator15skip_tombstones0B6_
FNDA:7,_RNCNvMNtCs9G0t2qE8rAk_9kv_engine12lsm_iteratorNtB4_11LsmIterator15skip_tombstoness_0B6_
FNDA:79,_RNvMs0_NtCs9G0t2qE8rAk_9kv_engine12lsm_iteratorINtB5_13FusedIteratorNtB5_11LsmIteratorE3newB7_
FNDA:2,_RNvMs0_NtCs9G0t2qE8rAk_9kv_engine12lsm_iteratorINtB5_13FusedIteratorNtNtNtB7_5tests7harness12MockIteratorE3newB7_
FNDA:9,_RNvXs1_NtCs9G0t2qE8rAk_9kv_engine12lsm_iteratorINtB5_13FusedIteratorNtB5_11LsmIteratorENtNtB7_9iterators15StorageIterator20num_active_iteratorsB7_
FNDA:157,_RNvXs1_NtCs9G0t2qE8rAk_9kv_engine12lsm_iteratorINtB5_13FusedIteratorNtB5_11LsmIteratorENtNtB7_9iterators15StorageIterator3keyB7_
FNDA:161,_RNvXs1_NtCs9G0t2qE8rAk_9kv_engine12lsm_iteratorINtB5_13FusedIteratorNtB5_11LsmIteratorENtNtB7_9iterators15StorageIterator4nextB7_
FNDA:122,_RNvXs1_NtCs9G0t2qE8rAk_9kv_engine12lsm_iteratorINtB5_13FusedIteratorNtB5_11LsmIteratorENtNtB7_9iterators15StorageIterator5valueB7_
FNDA:522,_RNvXs1_NtCs9G0t2qE8rAk_9kv_engine12lsm_iteratorINtB5_13FusedIteratorNtB5_11LsmIteratorENtNtB7_9iterators15StorageIterator8is_validB7_
FNDA:6,_RNvXs1_NtCs9G0t2qE8rAk_9kv_engine12lsm_iteratorINtB5_13FusedIteratorNtNtNtB7_5tests7harness12MockIteratorENtNtB7_9iterators15StorageIterator4nextB7_
FNDA:4,_RNvXs1_NtCs9G0t2qE8rAk_9kv_engine12lsm_iteratorINtB5_13FusedIteratorNtNtNtB7_5tests7harness12MockIteratorENtNtB7_9iterators15StorageIterator8is_validB7_
FNDA:0,_RNvMNtCshcgQatfXnqn_9kv_engine12lsm_iteratorNtB2_11LsmIterator11check_bound
FNDA:0,_RNvMNtCshcgQatfXnqn_9kv_engine12lsm_iteratorNtB2_11LsmIterator15skip_tombstones
FNDA:0,_RNvMNtCshcgQatfXnqn_9kv_engine12lsm_iteratorNtB2_11LsmIterator3new
FNDA:0,_RNvMs2_NtCshcgQatfXnqn_9kv_engine12lsm_iteratorNtB5_12ScanIterator3new
FNDA:0,_RNvXs3_NtCshcgQatfXnqn_9kv_engine12lsm_iteratorNtB5_12ScanIteratorNtNtB7_9iterators15StorageIterator20num_active_iterators
FNDA:0,_RNvXs3_NtCshcgQatfXnqn_9kv_engine12lsm_iteratorNtB5_12ScanIteratorNtNtB7_9iterators15StorageIterator3key
FNDA:0,_RNvXs3_NtCshcgQatfXnqn_9kv_engine12lsm_iteratorNtB5_12ScanIteratorNtNtB7_9iterators15StorageIterator4next
FNDA:0,_RNvXs3_NtCshcgQatfXnqn_9kv_engine12lsm_iteratorNtB5_12ScanIteratorNtNtB7_9iterators15StorageIterator5value
FNDA:0,_RNvXs3_NtCshcgQatfXnqn_9kv_engine12lsm_iteratorNtB5_12ScanIteratorNtNtB7_9iterators15StorageIterator8is_valid
FNDA:0,_RNvXs_NtCshcgQatfXnqn_9kv_engine12lsm_iteratorNtB4_11LsmIteratorNtNtB6_9iterators15StorageIterator20num_active_iterators
FNDA:0,_RNvXs_NtCshcgQatfXnqn_9kv_engine12lsm_iteratorNtB4_11LsmIteratorNtNtB6_9iterators15StorageIterator3key
FNDA:0,_RNvXs_NtCshcgQatfXnqn_9kv_engine12lsm_iteratorNtB4_11LsmIteratorNtNtB6_9iterators15StorageIterator4next
FNDA:0,_RNvXs_NtCshcgQatfXnqn_9kv_engine12lsm_iteratorNtB4_11LsmIteratorNtNtB6_9iterators15StorageIterator5value
FNDA:0,_RNvXs_NtCshcgQatfXnqn_9kv_engine12lsm_iteratorNtB4_11LsmIteratorNtNtB6_9iterators15StorageIterator8is_valid
FNDA:0,_RNvMs2_NtCshcgQatfXnqn_9kv_engine12lsm_iteratorNtB5_12ScanIterator10into_inner
FNDA:0,_RNCNvMNtCshcgQatfXnqn_9kv_engine12lsm_iteratorNtB4_11LsmIterator15skip_tombstones0B6_
FNDA:0,_RNCNvMNtCshcgQatfXnqn_9kv_engine12lsm_iteratorNtB4_11LsmIterator15skip_tombstoness_0B6_
FNDA:0,_RNvMs0_NtCshcgQatfXnqn_9kv_engine12lsm_iteratorINtB5_13FusedIteratorNtB5_11LsmIteratorE3newB7_
FNDA:0,_RNvXs1_NtCshcgQatfXnqn_9kv_engine12lsm_iteratorINtB5_13FusedIteratorNtB5_11LsmIteratorENtNtB7_9iterators15StorageIterator20num_active_iteratorsB7_
FNDA:0,_RNvXs1_NtCshcgQatfXnqn_9kv_engine12lsm_iteratorINtB5_13FusedIteratorNtB5_11LsmIteratorENtNtB7_9iterators15StorageIterator3keyB7_
FNDA:0,_RNvXs1_NtCshcgQatfXnqn_9kv_engine12lsm_iteratorINtB5_13FusedIteratorNtB5_11LsmIteratorENtNtB7_9iterators15StorageIterator4nextB7_
FNDA:0,_RNvXs1_NtCshcgQatfXnqn_9kv_engine12lsm_iteratorINtB5_13FusedIteratorNtB5_11LsmIteratorENtNtB7_9iterators15StorageIterator5valueB7_
FNDA:0,_RNvXs1_NtCshcgQatfXnqn_9kv_engine12lsm_iteratorINtB5_13FusedIteratorNtB5_11LsmIteratorENtNtB7_9iterators15StorageIterator8is_validB7_
FNF:23
FNH:22
DA:45,79
DA:46,79
DA:47,79
DA:48,79
DA:49,79
DA:50,79
DA:51,79
DA:52,79
DA:53,79
DA:55,79
DA:56,79
DA:57,79
DA:58,79
DA:59,79
DA:60,79
DA:61,0
DA:63,79
DA:64,72
DA:65,72
DA:66,72
DA:67,72
DA:69,7
DA:72,79
DA:73,79
DA:74,79
DA:75,79
DA:76,79
DA:77,79
DA:78,79
DA:79,79
DA:80,79
DA:81,79
DA:82,79
DA:89,234
DA:90,234
DA:91,234
DA:92,234
DA:93,234
DA:94,234
DA:95,234
DA:96,255
DA:99,195
DA:100,195
DA:101,195
DA:102,195
DA:105,195
DA:106,17
DA:107,178
DA:108,0
DA:110,195
DA:111,200
DA:112,199
DA:117,197
DA:119,5
DA:122,195
DA:124,3
DA:125,192
DA:126,0
DA:127,192
DA:129,12
DA:130,35
DA:131,33
DA:133,23
DA:136,0
DA:138,12
DA:139,180
DA:144,180
DA:145,180
DA:146,17
DA:148,17
DA:149,17
DA:150,17
DA:151,17
DA:154,12
DA:155,12
DA:157,6
DA:159,6
DA:160,11
DA:161,163
DA:162,174
DA:164,60
DA:165,234
DA:168,683
DA:169,683
DA:170,374
DA:171,24
DA:172,285
DA:174,683
DA:180,683
DA:181,683
DA:182,683
DA:184,157
DA:185,157
DA:186,157
DA:188,0
DA:190,157
DA:192,122
DA:193,122
DA:194,122
DA:196,155
DA:197,155
DA:201,340
DA:202,290
DA:204,185
DA:207,155
DA:208,155
DA:209,155
DA:210,155
DA:211,155
DA:212,155
DA:213,0
DA:215,155
DA:216,102
DA:217,102
DA:218,102
DA:219,102
DA:220,102
DA:222,0
DA:224,0
DA:225,0
DA:227,0
DA:231,155
DA:232,155
DA:234,9
DA:235,9
DA:236,9
DA:249,81
DA:250,81
DA:251,81
DA:252,81
DA:253,81
DA:254,81
DA:263,526
DA:264,526
DA:265,526
DA:267,157
DA:268,157
DA:269,0
DA:270,157
DA:271,157
DA:272,157
DA:274,122
DA:275,122
DA:276,0
DA:277,122
DA:278,122
DA:279,122
DA:281,167
DA:282,167
DA:283,2
DA:284,165
DA:286,165
DA:287,156
DA:289,1
DA:290,1
DA:291,164
DA:293,164
DA:294,167
DA:296,9
DA:297,9
DA:298,9
DA:314,75
DA:315,75
DA:316,75
DA:317,75
DA:318,75
DA:319,75
DA:322,0
DA:323,0
DA:324,0
DA:333,118
DA:334,118
DA:335,118
DA:337,148
DA:338,148
DA:339,148
DA:341,220
DA:342,220
DA:343,220
DA:345,154
DA:346,154
DA:347,154
DA:349,9
DA:350,9
DA:351,9
BRF:0
BRH:0
LF:187
LH:172
end_of_record
SF:/home/liu/proj/toy-kv-engine/kv-engine/src/lsm_storage.rs
FN:2666,_RNCNvMsd_NtCs9G0t2qE8rAk_9kv_engine11lsm_storageNtB7_15LsmStorageInner19get_with_kind_inner0B9_
FN:2681,_RNCNvMsd_NtCs9G0t2qE8rAk_9kv_engine11lsm_storageNtB7_15LsmStorageInner19get_with_kind_inners0_0B9_
FN:2689,_RNCNvMsd_NtCs9G0t2qE8rAk_9kv_engine11lsm_storageNtB7_15LsmStorageInner19get_with_kind_inners1_0B9_
FN:2697,_RNCNvMsd_NtCs9G0t2qE8rAk_9kv_engine11lsm_storageNtB7_15LsmStorageInner19get_with_kind_inners2_0B9_
FN:2667,_RNCNvMsd_NtCs9G0t2qE8rAk_9kv_engine11lsm_storageNtB7_15LsmStorageInner19get_with_kind_inners_0B9_
FN:3321,_RNCNvMsd_NtCs9G0t2qE8rAk_9kv_engine11lsm_storageNtB7_15LsmStorageInner31compare_and_set_batch_with_kind0B9_
FN:447,_RNvMs3_NtCs9G0t2qE8rAk_9kv_engine11lsm_storageNtB5_17LsmStorageOptions27default_for_compaction_test
FN:438,_RNvMs3_NtCs9G0t2qE8rAk_9kv_engine11lsm_storageNtB5_17LsmStorageOptions27default_for_scan_flush_test
FN:1041,_RNvMsc_NtCs9G0t2qE8rAk_9kv_engine11lsm_storageNtB5_8KvEngine13write_profile
FN:883,_RNvMsc_NtCs9G0t2qE8rAk_9kv_engine11lsm_storageNtB5_8KvEngine4sync
FN:2129,_RNvMsd_NtCs9G0t2qE8rAk_9kv_engine11lsm_storageNtB5_15LsmStorageInner13get_with_kind
FN:2660,_RNvMsd_NtCs9G0t2qE8rAk_9kv_engine11lsm_storageNtB5_15LsmStorageInner19get_with_kind_inner
FN:3219,_RNvMsd_NtCs9G0t2qE8rAk_9kv_engine11lsm_storageNtB5_15LsmStorageInner25compare_and_set_with_kind
FN:3257,_RNvMsd_NtCs9G0t2qE8rAk_9kv_engine11lsm_storageNtB5_15LsmStorageInner31compare_and_set_batch_with_kind
FN:741,_RNvXsb_NtCs9G0t2qE8rAk_9kv_engine11lsm_storageNtB5_8KvEngineNtNtNtCslfAf2Mv2Tp5_4core3ops4drop4Drop4drop
FN:500,_RINvMs4_NtCs9G0t2qE8rAk_9kv_engine11lsm_storageNtB6_23CompactionFilterRequest6prefixINtNtCs2TrN21NlPz_5alloc3vec3VechEEB8_
FN:500,_RINvMs4_NtCs9G0t2qE8rAk_9kv_engine11lsm_storageNtB6_23CompactionFilterRequest6prefixNtNtCs3nU4b9VY2Ln_5bytes5bytes5BytesEB8_
FN:820,_RINvMsc_NtCs9G0t2qE8rAk_9kv_engine11lsm_storageNtB6_8KvEngine11write_batchINtNtCs2TrN21NlPz_5alloc3vec3VechEEB8_
FN:820,_RINvMsc_NtCs9G0t2qE8rAk_9kv_engine11lsm_storageNtB6_8KvEngine11write_batchRShEB8_
FN:793,_RINvMsc_NtCs9G0t2qE8rAk_9kv_engine11lsm_storageNtB6_8KvEngine4openRNtNtCs5uWf4xGOoVW_8tempfile3dir7TempDirEB8_
FN:793,_RINvMsc_NtCs9G0t2qE8rAk_9kv_engine11lsm_storageNtB6_8KvEngine4openRNtNtCskaANe6KdTWL_3std4path4PathEB8_
FN:3417,_RINvMsd_NtCs9G0t2qE8rAk_9kv_engine11lsm_storageNtB6_15LsmStorageInner11write_batchINtNtCs2TrN21NlPz_5alloc3vec3VechEEB8_
FN:3417,_RINvMsd_NtCs9G0t2qE8rAk_9kv_engine11lsm_storageNtB6_15LsmStorageInner11write_batchRShEB8_
FN:3873,_RINvMsd_NtCs9G0t2qE8rAk_9kv_engine11lsm_storageNtB6_15LsmStorageInner18path_of_sst_staticRNtNtCskaANe6KdTWL_3std4path4PathEB8_
FN:3873,_RINvMsd_NtCs9G0t2qE8rAk_9kv_engine11lsm_storageNtB6_15LsmStorageInner18path_of_sst_staticRNtNtCskaANe6KdTWL_3std4path7PathBufEB8_
FN:3881,_RINvMsd_NtCs9G0t2qE8rAk_9kv_engine11lsm_storageNtB6_15LsmStorageInner18path_of_wal_staticRNtNtCs5uWf4xGOoVW_8tempfile3dir7TempDirEB8_
FN:3881,_RINvMsd_NtCs9G0t2qE8rAk_9kv_engine11lsm_storageNtB6_15LsmStorageInner18path_of_wal_staticRNtNtCskaANe6KdTWL_3std4path4PathEB8_
FN:3881,_RINvMsd_NtCs9G0t2qE8rAk_9kv_engine11lsm_storageNtB6_15LsmStorageInner18path_of_wal_staticRNtNtCskaANe6KdTWL_3std4path7PathBufEB8_
FN:1067,_RINvMsd_NtCs9G0t2qE8rAk_9kv_engine11lsm_storageNtB6_15LsmStorageInner4openRNtNtCs5uWf4xGOoVW_8tempfile3dir7TempDirEB8_
FN:1067,_RINvMsd_NtCs9G0t2qE8rAk_9kv_engine11lsm_storageNtB6_15LsmStorageInner4openRNtNtCskaANe6KdTWL_3std4path4PathEB8_
FN:3421,_RNCINvMsd_NtCs9G0t2qE8rAk_9kv_engine11lsm_storageNtB8_15LsmStorageInner11write_batchINtNtCs2TrN21NlPz_5alloc3vec3VechEE0Ba_
FN:3442,_RNCINvMsd_NtCs9G0t2qE8rAk_9kv_engine11lsm_storageNtB8_15LsmStorageInner11write_batchINtNtCs2TrN21NlPz_5alloc3vec3VechEEs0_0Ba_
FN:3542,_RNCINvMsd_NtCs9G0t2qE8rAk_9kv_engine11lsm_storageNtB8_15LsmStorageInner11write_batchINtNtCs2TrN21NlPz_5alloc3vec3VechEEs1_0Ba_
FN:3557,_RNCINvMsd_NtCs9G0t2qE8rAk_9kv_engine11lsm_storageNtB8_15LsmStorageInner11write_batchINtNtCs2TrN21NlPz_5alloc3vec3VechEEs2_0Ba_
FN:3568,_RNCINvMsd_NtCs9G0t2qE8rAk_9kv_engine11lsm_storageNtB8_15LsmStorageInner11write_batchINtNtCs2TrN21NlPz_5alloc3vec3VechEEs3_0Ba_
FN:3655,_RNCINvMsd_NtCs9G0t2qE8rAk_9kv_engine11lsm_storageNtB8_15LsmStorageInner11write_batchINtNtCs2TrN21NlPz_5alloc3vec3VechEEs4_0Ba_
FN:3660,_RNCINvMsd_NtCs9G0t2qE8rAk_9kv_engine11lsm_storageNtB8_15LsmStorageInner11write_batchINtNtCs2TrN21NlPz_5alloc3vec3VechEEs5_0Ba_
FN:3671,_RNCINvMsd_NtCs9G0t2qE8rAk_9kv_engine11lsm_storageNtB8_15LsmStorageInner11write_batchINtNtCs2TrN21NlPz_5alloc3vec3VechEEs6_0Ba_
FN:3424,_RNCINvMsd_NtCs9G0t2qE8rAk_9kv_engine11lsm_storageNtB8_15LsmStorageInner11write_batchINtNtCs2TrN21NlPz_5alloc3vec3VechEEs_0Ba_
FN:3421,_RNCINvMsd_NtCs9G0t2qE8rAk_9kv_engine11lsm_storageNtB8_15LsmStorageInner11write_batchRShE0Ba_
FN:3442,_RNCINvMsd_NtCs9G0t2qE8rAk_9kv_engine11lsm_storageNtB8_15LsmStorageInner11write_batchRShEs0_0Ba_
FN:3542,_RNCINvMsd_NtCs9G0t2qE8rAk_9kv_engine11lsm_storageNtB8_15LsmStorageInner11write_batchRShEs1_0Ba_
FN:3557,_RNCINvMsd_NtCs9G0t2qE8rAk_9kv_engine11lsm_storageNtB8_15LsmStorageInner11write_batchRShEs2_0Ba_
FN:3568,_RNCINvMsd_NtCs9G0t2qE8rAk_9kv_engine11lsm_storageNtB8_15LsmStorageInner11write_batchRShEs3_0Ba_
FN:3655,_RNCINvMsd_NtCs9G0t2qE8rAk_9kv_engine11lsm_storageNtB8_15LsmStorageInner11write_batchRShEs4_0Ba_
FN:3660,_RNCINvMsd_NtCs9G0t2qE8rAk_9kv_engine11lsm_storageNtB8_15LsmStorageInner11write_batchRShEs5_0Ba_
FN:3671,_RNCINvMsd_NtCs9G0t2qE8rAk_9kv_engine11lsm_storageNtB8_15LsmStorageInner11write_batchRShEs6_0Ba_
FN:3424,_RNCINvMsd_NtCs9G0t2qE8rAk_9kv_engine11lsm_storageNtB8_15LsmStorageInner11write_batchRShEs_0Ba_
FN:1246,_RNCINvMsd_NtCs9G0t2qE8rAk_9kv_engine11lsm_storageNtB8_15LsmStorageInner4openRNtNtCs5uWf4xGOoVW_8tempfile3dir7TempDirEs1_0Ba_
FN:1264,_RNCINvMsd_NtCs9G0t2qE8rAk_9kv_engine11lsm_storageNtB8_15LsmStorageInner4openRNtNtCs5uWf4xGOoVW_8tempfile3dir7TempDirEs2_0Ba_
FN:1286,_RNCINvMsd_NtCs9G0t2qE8rAk_9kv_engine11lsm_storageNtB8_15LsmStorageInner4openRNtNtCs5uWf4xGOoVW_8tempfile3dir7TempDirEs3_0Ba_
FN:1287,_RNCINvMsd_NtCs9G0t2qE8rAk_9kv_engine11lsm_storageNtB8_15LsmStorageInner4openRNtNtCs5uWf4xGOoVW_8tempfile3dir7TempDirEs4_0Ba_
FN:1292,_RNCINvMsd_NtCs9G0t2qE8rAk_9kv_engine11lsm_storageNtB8_15LsmStorageInner4openRNtNtCs5uWf4xGOoVW_8tempfile3dir7TempDirEs6_0Ba_
FN:1246,_RNCINvMsd_NtCs9G0t2qE8rAk_9kv_engine11lsm_storageNtB8_15LsmStorageInner4openRNtNtCskaANe6KdTWL_3std4path4PathEs1_0Ba_
FN:1264,_RNCINvMsd_NtCs9G0t2qE8rAk_9kv_engine11lsm_storageNtB8_15LsmStorageInner4openRNtNtCskaANe6KdTWL_3std4path4PathEs2_0Ba_
FN:1286,_RNCINvMsd_NtCs9G0t2qE8rAk_9kv_engine11lsm_storageNtB8_15LsmStorageInner4openRNtNtCskaANe6KdTWL_3std4path4PathEs3_0Ba_
FN:1287,_RNCINvMsd_NtCs9G0t2qE8rAk_9kv_engine11lsm_storageNtB8_15LsmStorageInner4openRNtNtCskaANe6KdTWL_3std4path4PathEs4_0Ba_
FN:1292,_RNCINvMsd_NtCs9G0t2qE8rAk_9kv_engine11lsm_storageNtB8_15LsmStorageInner4openRNtNtCskaANe6KdTWL_3std4path4PathEs6_0Ba_
FN:90,_RNCNCNvMNtCs9G0t2qE8rAk_9kv_engine11lsm_storageNtB6_15LsmStorageState6create00B8_
FN:2478,_RNCNCNvMsd_NtCs9G0t2qE8rAk_9kv_engine11lsm_storageNtB9_15LsmStorageInner10scan_inners4_00Bb_
FN:3062,_RNCNCNvMsd_NtCs9G0t2qE8rAk_9kv_engine11lsm_storageNtB9_15LsmStorageInner14lookup_sst_raws6_00Bb_
FN:3098,_RNCNCNvMsd_NtCs9G0t2qE8rAk_9kv_engine11lsm_storageNtB9_15LsmStorageInner14lookup_sst_raws8_00Bb_
FN:3158,_RNCNCNvMsd_NtCs9G0t2qE8rAk_9kv_engine11lsm_storageNtB9_15LsmStorageInner14lookup_sst_rawsb_00Bb_
FN:2746,_RNCNCNvMsd_NtCs9G0t2qE8rAk_9kv_engine11lsm_storageNtB9_15LsmStorageInner24newest_memtable_range_ts00Bb_
FN:1637,_RNCNCNvMsd_NtCs9G0t2qE8rAk_9kv_engine11lsm_storageNtB9_15LsmStorageInner9batch_gets8_00Bb_
FN:1661,_RNCNCNvMsd_NtCs9G0t2qE8rAk_9kv_engine11lsm_storageNtB9_15LsmStorageInner9batch_getsc_00Bb_
FN:1663,_RNCNCNvMsd_NtCs9G0t2qE8rAk_9kv_engine11lsm_storageNtB9_15LsmStorageInner9batch_getsc_0s0_0Bb_
FN:1662,_RNCNCNvMsd_NtCs9G0t2qE8rAk_9kv_engine11lsm_storageNtB9_15LsmStorageInner9batch_getsc_0s_0Bb_
FN:85,_RNCNvMNtCs9G0t2qE8rAk_9kv_engine11lsm_storageNtB4_15LsmStorageState6create0B6_
FN:233,_RNCNvMs_NtCs9G0t2qE8rAk_9kv_engine11lsm_storageNtB6_21ManifestRecoveryState22replay_manifest_record0B8_
FN:248,_RNCNvMs_NtCs9G0t2qE8rAk_9kv_engine11lsm_storageNtB6_21ManifestRecoveryState22replay_manifest_records0_0B8_
FN:250,_RNCNvMs_NtCs9G0t2qE8rAk_9kv_engine11lsm_storageNtB6_21ManifestRecoveryState22replay_manifest_records1_0B8_
FN:302,_RNCNvMs_NtCs9G0t2qE8rAk_9kv_engine11lsm_storageNtB6_21ManifestRecoveryState22replay_manifest_records2_0B8_
FN:240,_RNCNvMs_NtCs9G0t2qE8rAk_9kv_engine11lsm_storageNtB6_21ManifestRecoveryState22replay_manifest_records_0B8_
FN:666,_RNCNvMsa_NtCs9G0t2qE8rAk_9kv_engine11lsm_storageNtB7_24CompactionFilterRegistry4list0B9_
FN:953,_RNCNvMsc_NtCs9G0t2qE8rAk_9kv_engine11lsm_storageNtB7_8KvEngine10trigger_gc0B9_
FN:984,_RNCNvMsc_NtCs9G0t2qE8rAk_9kv_engine11lsm_storageNtB7_8KvEngine11cache_stats0B9_
FN:1003,_RNCNvMsc_NtCs9G0t2qE8rAk_9kv_engine11lsm_storageNtB7_8KvEngine21range_tombstone_stats0B9_
FN:760,_RNCNvMsc_NtCs9G0t2qE8rAk_9kv_engine11lsm_storageNtB7_8KvEngine5close0B9_
FN:764,_RNCNvMsc_NtCs9G0t2qE8rAk_9kv_engine11lsm_storageNtB7_8KvEngine5closes_0B9_
FN:2292,_RNCNvMsd_NtCs9G0t2qE8rAk_9kv_engine11lsm_storageNtB7_15LsmStorageInner10scan_inner0B9_
FN:2299,_RNCNvMsd_NtCs9G0t2qE8rAk_9kv_engine11lsm_storageNtB7_15LsmStorageInner10scan_inners0_0B9_
FN:2468,_RNCNvMsd_NtCs9G0t2qE8rAk_9kv_engine11lsm_storageNtB7_15LsmStorageInner10scan_inners1_0B9_
FN:2474,_RNCNvMsd_NtCs9G0t2qE8rAk_9kv_engine11lsm_storageNtB7_15LsmStorageInner10scan_inners4_0B9_
FN:2293,_RNCNvMsd_NtCs9G0t2qE8rAk_9kv_engine11lsm_storageNtB7_15LsmStorageInner10scan_inners_0B9_
FN:2214,_RNCNvMsd_NtCs9G0t2qE8rAk_9kv_engine11lsm_storageNtB7_15LsmStorageInner11get_with_ts0B9_
FN:2232,_RNCNvMsd_NtCs9G0t2qE8rAk_9kv_engine11lsm_storageNtB7_15LsmStorageInner11get_with_tss0_0B9_
FN:2224,_RNCNvMsd_NtCs9G0t2qE8rAk_9kv_engine11lsm_storageNtB7_15LsmStorageInner11get_with_tss_0B9_
FN:4149,_RNCNvMsd_NtCs9G0t2qE8rAk_9kv_engine11lsm_storageNtB7_15LsmStorageInner11prefix_scan0B9_
FN:4150,_RNCNvMsd_NtCs9G0t2qE8rAk_9kv_engine11lsm_storageNtB7_15LsmStorageInner11prefix_scans_0B9_
FN:2042,_RNCNvMsd_NtCs9G0t2qE8rAk_9kv_engine11lsm_storageNtB7_15LsmStorageInner13resolve_value0B9_
FN:2967,_RNCNvMsd_NtCs9G0t2qE8rAk_9kv_engine11lsm_storageNtB7_15LsmStorageInner14lookup_sst_raw0B9_
FN:2984,_RNCNvMsd_NtCs9G0t2qE8rAk_9kv_engine11lsm_storageNtB7_15LsmStorageInner14lookup_sst_raws0_0B9_
FN:2989,_RNCNvMsd_NtCs9G0t2qE8rAk_9kv_engine11lsm_storageNtB7_15LsmStorageInner14lookup_sst_raws1_0B9_
FN:2996,_RNCNvMsd_NtCs9G0t2qE8rAk_9kv_engine11lsm_storageNtB7_15LsmStorageInner14lookup_sst_raws2_0B9_
FN:3014,_RNCNvMsd_NtCs9G0t2qE8rAk_9kv_engine11lsm_storageNtB7_15LsmStorageInner14lookup_sst_raws3_0B9_
FN:3026,_RNCNvMsd_NtCs9G0t2qE8rAk_9kv_engine11lsm_storageNtB7_15LsmStorageInner14lookup_sst_raws4_0B9_
FN:3038,_RNCNvMsd_NtCs9G0t2qE8rAk_9kv_engine11lsm_storageNtB7_15LsmStorageInner14lookup_sst_raws5_0B9_
FN:3061,_RNCNvMsd_NtCs9G0t2qE8rAk_9kv_engine11lsm_storageNtB7_15LsmStorageInner14lookup_sst_raws6_0B9_
FN:3079,_RNCNvMsd_NtCs9G0t2qE8rAk_9kv_engine11lsm_storageNtB7_15LsmStorageInner14lookup_sst_raws7_0B9_
FN:3097,_RNCNvMsd_NtCs9G0t2qE8rAk_9kv_engine11lsm_storageNtB7_15LsmStorageInner14lookup_sst_raws8_0B9_
FN:3137,_RNCNvMsd_NtCs9G0t2qE8rAk_9kv_engine11lsm_storageNtB7_15LsmStorageInner14lookup_sst_raws9_0B9_
FN:2981,_RNCNvMsd_NtCs9G0t2qE8rAk_9kv_engine11lsm_storageNtB7_15LsmStorageInner14lookup_sst_raws_0B9_
FN:3144,_RNCNvMsd_NtCs9G0t2qE8rAk_9kv_engine11lsm_storageNtB7_15LsmStorageInner14lookup_sst_rawsa_0B9_
FN:3157,_RNCNvMsd_NtCs9G0t2qE8rAk_9kv_engine11lsm_storageNtB7_15LsmStorageInner14lookup_sst_rawsb_0B9_
FN:1851,_RNCNvMsd_NtCs9G0t2qE8rAk_9kv_engine11lsm_storageNtB7_15LsmStorageInner15batch_get_small0B9_
FN:1866,_RNCNvMsd_NtCs9G0t2qE8rAk_9kv_engine11lsm_storageNtB7_15LsmStorageInner15batch_get_smalls0_0B9_
FN:1965,_RNCNvMsd_NtCs9G0t2qE8rAk_9kv_engine11lsm_storageNtB7_15LsmStorageInner15batch_get_smalls1_0B9_
FN:2004,_RNCNvMsd_NtCs9G0t2qE8rAk_9kv_engine11lsm_storageNtB7_15LsmStorageInner15batch_get_smalls2_0B9_
FN:1857,_RNCNvMsd_NtCs9G0t2qE8rAk_9kv_engine11lsm_storageNtB7_15LsmStorageInner15batch_get_smalls_0B9_
FN:2606,_RNCNvMsd_NtCs9G0t2qE8rAk_9kv_engine11lsm_storageNtB7_15LsmStorageInner16mvcc_write_batch0B9_
FN:2177,_RNCNvMsd_NtCs9G0t2qE8rAk_9kv_engine11lsm_storageNtB7_15LsmStorageInner19get_with_kind_at_ts0B9_
FN:1379,_RNCNvMsd_NtCs9G0t2qE8rAk_9kv_engine11lsm_storageNtB7_15LsmStorageInner21add_compaction_filter0B9_
FN:2938,_RNCNvMsd_NtCs9G0t2qE8rAk_9kv_engine11lsm_storageNtB7_15LsmStorageInner21batch_lookup_memtables0_0B9_
FN:2919,_RNCNvMsd_NtCs9G0t2qE8rAk_9kv_engine11lsm_storageNtB7_15LsmStorageInner21batch_lookup_memtables_0B9_
FN:2646,_RNCNvMsd_NtCs9G0t2qE8rAk_9kv_engine11lsm_storageNtB7_15LsmStorageInner22mvcc_write_batch_inner0B9_
FN:3941,_RNCNvMsd_NtCs9G0t2qE8rAk_9kv_engine11lsm_storageNtB7_15LsmStorageInner23maybe_snapshot_manifest0B9_
FN:2743,_RNCNvMsd_NtCs9G0t2qE8rAk_9kv_engine11lsm_storageNtB7_15LsmStorageInner24newest_memtable_range_ts0B9_
FN:2059,_RNCNvMsd_NtCs9G0t2qE8rAk_9kv_engine11lsm_storageNtB7_15LsmStorageInner24resolve_vlog_value_bytes0B9_
FN:2069,_RNCNvMsd_NtCs9G0t2qE8rAk_9kv_engine11lsm_storageNtB7_15LsmStorageInner24resolve_vlog_value_bytess_0B9_
FN:1416,_RNCNvMsd_NtCs9G0t2qE8rAk_9kv_engine11lsm_storageNtB7_15LsmStorageInner27add_compaction_filter_inner0B9_
FN:3353,_RNCNvMsd_NtCs9G0t2qE8rAk_9kv_engine11lsm_storageNtB7_15LsmStorageInner27compare_and_set_batch_at_ts0B9_
FN:3402,_RNCNvMsd_NtCs9G0t2qE8rAk_9kv_engine11lsm_storageNtB7_15LsmStorageInner27compare_and_set_batch_at_tss_0B9_
FN:4014,_RNCNvMsd_NtCs9G0t2qE8rAk_9kv_engine11lsm_storageNtB7_15LsmStorageInner29force_flush_next_imm_memtable0B9_
FN:1511,_RNCNvMsd_NtCs9G0t2qE8rAk_9kv_engine11lsm_storageNtB7_15LsmStorageInner3get0B9_
FN:1528,_RNCNvMsd_NtCs9G0t2qE8rAk_9kv_engine11lsm_storageNtB7_15LsmStorageInner3gets0_0B9_
FN:1538,_RNCNvMsd_NtCs9G0t2qE8rAk_9kv_engine11lsm_storageNtB7_15LsmStorageInner3gets1_0B9_
FN:1546,_RNCNvMsd_NtCs9G0t2qE8rAk_9kv_engine11lsm_storageNtB7_15LsmStorageInner3gets2_0B9_
FN:1512,_RNCNvMsd_NtCs9G0t2qE8rAk_9kv_engine11lsm_storageNtB7_15LsmStorageInner3gets_0B9_
FN:3725,_RNCNvMsd_NtCs9G0t2qE8rAk_9kv_engine11lsm_storageNtB7_15LsmStorageInner3put0B9_
FN:4137,_RNCNvMsd_NtCs9G0t2qE8rAk_9kv_engine11lsm_storageNtB7_15LsmStorageInner4scan0B9_
FN:4138,_RNCNvMsd_NtCs9G0t2qE8rAk_9kv_engine11lsm_storageNtB7_15LsmStorageInner4scans_0B9_
FN:3781,_RNCNvMsd_NtCs9G0t2qE8rAk_9kv_engine11lsm_storageNtB7_15LsmStorageInner6delete0B9_
FN:1574,_RNCNvMsd_NtCs9G0t2qE8rAk_9kv_engine11lsm_storageNtB7_15LsmStorageInner9batch_get0B9_
FN:1587,_RNCNvMsd_NtCs9G0t2qE8rAk_9kv_engine11lsm_storageNtB7_15LsmStorageInner9batch_gets0_0B9_
FN:1592,_RNCNvMsd_NtCs9G0t2qE8rAk_9kv_engine11lsm_storageNtB7_15LsmStorageInner9batch_gets1_0B9_
FN:1594,_RNCNvMsd_NtCs9G0t2qE8rAk_9kv_engine11lsm_storageNtB7_15LsmStorageInner9batch_gets2_0B9_
FN:1607,_RNCNvMsd_NtCs9G0t2qE8rAk_9kv_engine11lsm_storageNtB7_15LsmStorageInner9batch_gets3_0B9_
FN:1613,_RNCNvMsd_NtCs9G0t2qE8rAk_9kv_engine11lsm_storageNtB7_15LsmStorageInner9batch_gets4_0B9_
FN:1627,_RNCNvMsd_NtCs9G0t2qE8rAk_9kv_engine11lsm_storageNtB7_15LsmStorageInner9batch_gets5_0B9_
FN:1633,_RNCNvMsd_NtCs9G0t2qE8rAk_9kv_engine11lsm_storageNtB7_15LsmStorageInner9batch_gets8_0B9_
FN:1646,_RNCNvMsd_NtCs9G0t2qE8rAk_9kv_engine11lsm_storageNtB7_15LsmStorageInner9batch_gets9_0B9_
FN:1575,_RNCNvMsd_NtCs9G0t2qE8rAk_9kv_engine11lsm_storageNtB7_15LsmStorageInner9batch_gets_0B9_
FN:1657,_RNCNvMsd_NtCs9G0t2qE8rAk_9kv_engine11lsm_storageNtB7_15LsmStorageInner9batch_getsc_0B9_
FN:1671,_RNCNvMsd_NtCs9G0t2qE8rAk_9kv_engine11lsm_storageNtB7_15LsmStorageInner9batch_getsd_0B9_
FN:1721,_RNCNvMsd_NtCs9G0t2qE8rAk_9kv_engine11lsm_storageNtB7_15LsmStorageInner9batch_getse_0B9_
FN:1766,_RNCNvMsd_NtCs9G0t2qE8rAk_9kv_engine11lsm_storageNtB7_15LsmStorageInner9batch_getsf_0B9_
FN:1778,_RNCNvMsd_NtCs9G0t2qE8rAk_9kv_engine11lsm_storageNtB7_15LsmStorageInner9batch_getsg_0B9_
FN:1811,_RNCNvMsd_NtCs9G0t2qE8rAk_9kv_engine11lsm_storageNtB7_15LsmStorageInner9batch_getsh_0B9_
FN:82,_RNvMNtCs9G0t2qE8rAk_9kv_engine11lsm_storageNtB2_15LsmStorageState6create
FN:342,_RNvMs1_NtCs9G0t2qE8rAk_9kv_engine11lsm_storageNtB5_18PrefixBloomOptions8validate
FN:429,_RNvMs3_NtCs9G0t2qE8rAk_9kv_engine11lsm_storageNtB5_17LsmStorageOptions16default_for_test
FN:518,_RNvMs5_NtCs9G0t2qE8rAk_9kv_engine11lsm_storageNtB5_25InstalledCompactionFilter4info
FN:526,_RNvMs5_NtCs9G0t2qE8rAk_9kv_engine11lsm_storageNtB5_25InstalledCompactionFilter7matches
FN:579,_RNvMs7_NtCs9G0t2qE8rAk_9kv_engine11lsm_storageNtB5_25RangeTombstoneAtomicStats11note_lookup
FN:589,_RNvMs7_NtCs9G0t2qE8rAk_9kv_engine11lsm_storageNtB5_25RangeTombstoneAtomicStats17note_covered_drop
FN:594,_RNvMs7_NtCs9G0t2qE8rAk_9kv_engine11lsm_storageNtB5_25RangeTombstoneAtomicStats22note_tombstone_drops_n
FN:584,_RNvMs7_NtCs9G0t2qE8rAk_9kv_engine11lsm_storageNtB5_25RangeTombstoneAtomicStats8note_hit
FN:599,_RNvMs7_NtCs9G0t2qE8rAk_9kv_engine11lsm_storageNtB5_25RangeTombstoneAtomicStats8snapshot
FN:624,_RNvMs9_NtCs9G0t2qE8rAk_9kv_engine11lsm_storageNtB5_27CompactionFilterAtomicStats10note_check
FN:636,_RNvMs9_NtCs9G0t2qE8rAk_9kv_engine11lsm_storageNtB5_27CompactionFilterAtomicStats8snapshot
FN:629,_RNvMs9_NtCs9G0t2qE8rAk_9kv_engine11lsm_storageNtB5_27CompactionFilterAtomicStats9note_drop
FN:127,_RNvMs_NtCs9G0t2qE8rAk_9kv_engine11lsm_storageNtB4_21ManifestRecoveryState22replay_manifest_record
FN:659,_RNvMsa_NtCs9G0t2qE8rAk_9kv_engine11lsm_storageNtB5_24CompactionFilterRegistry16snapshot_filters
FN:663,_RNvMsa_NtCs9G0t2qE8rAk_9kv_engine11lsm_storageNtB5_24CompactionFilterRegistry4list
FN:935,_RNvMsc_NtCs9G0t2qE8rAk_9kv_engine11lsm_storageNtB5_8KvEngine10trigger_gc
FN:971,_RNvMsc_NtCs9G0t2qE8rAk_9kv_engine11lsm_storageNtB5_8KvEngine10vlog_stats
FN:979,_RNvMsc_NtCs9G0t2qE8rAk_9kv_engine11lsm_storageNtB5_8KvEngine11cache_stats
FN:920,_RNvMsc_NtCs9G0t2qE8rAk_9kv_engine11lsm_storageNtB5_8KvEngine11drain_flush
FN:901,_RNvMsc_NtCs9G0t2qE8rAk_9kv_engine11lsm_storageNtB5_8KvEngine11force_flush
FN:896,_RNvMsc_NtCs9G0t2qE8rAk_9kv_engine11lsm_storageNtB5_8KvEngine11prefix_scan
FN:879,_RNvMsc_NtCs9G0t2qE8rAk_9kv_engine11lsm_storageNtB5_8KvEngine12delete_range
FN:824,_RNvMsc_NtCs9G0t2qE8rAk_9kv_engine11lsm_storageNtB5_8KvEngine21add_compaction_filter
FN:929,_RNvMsc_NtCs9G0t2qE8rAk_9kv_engine11lsm_storageNtB5_8KvEngine21force_full_compaction
FN:997,_RNvMsc_NtCs9G0t2qE8rAk_9kv_engine11lsm_storageNtB5_8KvEngine21range_tombstone_stats
FN:845,_RNvMsc_NtCs9G0t2qE8rAk_9kv_engine11lsm_storageNtB5_8KvEngine23compaction_filter_stats
FN:841,_RNvMsc_NtCs9G0t2qE8rAk_9kv_engine11lsm_storageNtB5_8KvEngine23list_compaction_filters
FN:837,_RNvMsc_NtCs9G0t2qE8rAk_9kv_engine11lsm_storageNtB5_8KvEngine24remove_compaction_filter
FN:828,_RNvMsc_NtCs9G0t2qE8rAk_9kv_engine11lsm_storageNtB5_8KvEngine33add_compaction_filter_with_cutoff
FN:849,_RNvMsc_NtCs9G0t2qE8rAk_9kv_engine11lsm_storageNtB5_8KvEngine3get
FN:861,_RNvMsc_NtCs9G0t2qE8rAk_9kv_engine11lsm_storageNtB5_8KvEngine3put
FN:887,_RNvMsc_NtCs9G0t2qE8rAk_9kv_engine11lsm_storageNtB5_8KvEngine4scan
FN:757,_RNvMsc_NtCs9G0t2qE8rAk_9kv_engine11lsm_storageNtB5_8KvEngine5close
FN:865,_RNvMsc_NtCs9G0t2qE8rAk_9kv_engine11lsm_storageNtB5_8KvEngine6delete
FN:816,_RNvMsc_NtCs9G0t2qE8rAk_9kv_engine11lsm_storageNtB5_8KvEngine7new_txn
FN:857,_RNvMsc_NtCs9G0t2qE8rAk_9kv_engine11lsm_storageNtB5_8KvEngine9batch_get
FN:2268,_RNvMsd_NtCs9G0t2qE8rAk_9kv_engine11lsm_storageNtB5_15LsmStorageInner10scan_inner
FN:2205,_RNvMsd_NtCs9G0t2qE8rAk_9kv_engine11lsm_storageNtB5_15LsmStorageInner11get_with_ts
FN:1060,_RNvMsd_NtCs9G0t2qE8rAk_9kv_engine11lsm_storageNtB5_15LsmStorageInner11next_sst_id
FN:3877,_RNvMsd_NtCs9G0t2qE8rAk_9kv_engine11lsm_storageNtB5_15LsmStorageInner11path_of_sst
FN:3885,_RNvMsd_NtCs9G0t2qE8rAk_9kv_engine11lsm_storageNtB5_15LsmStorageInner11path_of_wal
FN:4145,_RNvMsd_NtCs9G0t2qE8rAk_9kv_engine11lsm_storageNtB5_15LsmStorageInner11prefix_scan
FN:2623,_RNvMsd_NtCs9G0t2qE8rAk_9kv_engine11lsm_storageNtB5_15LsmStorageInner12record_write
FN:2247,_RNvMsd_NtCs9G0t2qE8rAk_9kv_engine11lsm_storageNtB5_15LsmStorageInner12scan_with_ts
FN:3188,_RNvMsd_NtCs9G0t2qE8rAk_9kv_engine11lsm_storageNtB5_15LsmStorageInner12values_match
FN:2033,_RNvMsd_NtCs9G0t2qE8rAk_9kv_engine11lsm_storageNtB5_15LsmStorageInner13resolve_value
FN:2950,_RNvMsd_NtCs9G0t2qE8rAk_9kv_engine11lsm_storageNtB5_15LsmStorageInner14lookup_sst_raw
FN:1842,_RNvMsd_NtCs9G0t2qE8rAk_9kv_engine11lsm_storageNtB5_15LsmStorageInner15batch_get_small
FN:2790,_RNvMsd_NtCs9G0t2qE8rAk_9kv_engine11lsm_storageNtB5_15LsmStorageInner15lookup_memtable
FN:2594,_RNvMsd_NtCs9G0t2qE8rAk_9kv_engine11lsm_storageNtB5_15LsmStorageInner16mvcc_write_batch
FN:2108,_RNvMsd_NtCs9G0t2qE8rAk_9kv_engine11lsm_storageNtB5_15LsmStorageInner16parse_value_kind
FN:3208,_RNvMsd_NtCs9G0t2qE8rAk_9kv_engine11lsm_storageNtB5_15LsmStorageInner17encode_kind_value
FN:2089,_RNvMsd_NtCs9G0t2qE8rAk_9kv_engine11lsm_storageNtB5_15LsmStorageInner17validate_key_size
FN:2139,_RNvMsd_NtCs9G0t2qE8rAk_9kv_engine11lsm_storageNtB5_15LsmStorageInner19get_with_kind_at_ts
FN:2757,_RNvMsd_NtCs9G0t2qE8rAk_9kv_engine11lsm_storageNtB5_15LsmStorageInner19newest_sst_range_ts
FN:3692,_RNvMsd_NtCs9G0t2qE8rAk_9kv_engine11lsm_storageNtB5_15LsmStorageInner19try_freeze_memtable
FN:1375,_RNvMsd_NtCs9G0t2qE8rAk_9kv_engine11lsm_storageNtB5_15LsmStorageInner21add_compaction_filter
FN:2880,_RNvMsd_NtCs9G0t2qE8rAk_9kv_engine11lsm_storageNtB5_15LsmStorageInner21batch_lookup_memtable
FN:3838,_RNvMsd_NtCs9G0t2qE8rAk_9kv_engine11lsm_storageNtB5_15LsmStorageInner21delete_range_internal
FN:3971,_RNvMsd_NtCs9G0t2qE8rAk_9kv_engine11lsm_storageNtB5_15LsmStorageInner21force_freeze_memtable
FN:2257,_RNvMsd_NtCs9G0t2qE8rAk_9kv_engine11lsm_storageNtB5_15LsmStorageInner21scan_with_prefix_hint
FN:2629,_RNvMsd_NtCs9G0t2qE8rAk_9kv_engine11lsm_storageNtB5_15LsmStorageInner22mvcc_write_batch_inner
FN:1467,_RNvMsd_NtCs9G0t2qE8rAk_9kv_engine11lsm_storageNtB5_15LsmStorageInner23compaction_filter_stats
FN:1463,_RNvMsd_NtCs9G0t2qE8rAk_9kv_engine11lsm_storageNtB5_15LsmStorageInner23list_compaction_filters
FN:3899,_RNvMsd_NtCs9G0t2qE8rAk_9kv_engine11lsm_storageNtB5_15LsmStorageInner23maybe_snapshot_manifest
FN:2552,_RNvMsd_NtCs9G0t2qE8rAk_9kv_engine11lsm_storageNtB5_15LsmStorageInner23scan_overlaps_fragments
FN:2716,_RNvMsd_NtCs9G0t2qE8rAk_9kv_engine11lsm_storageNtB5_15LsmStorageInner24newest_memtable_range_ts
FN:1441,_RNvMsd_NtCs9G0t2qE8rAk_9kv_engine11lsm_storageNtB5_15LsmStorageInner24remove_compaction_filter
FN:2053,_RNvMsd_NtCs9G0t2qE8rAk_9kv_engine11lsm_storageNtB5_15LsmStorageInner24resolve_vlog_value_bytes
FN:1404,_RNvMsd_NtCs9G0t2qE8rAk_9kv_engine11lsm_storageNtB5_15LsmStorageInner27add_compaction_filter_inner
FN:3333,_RNvMsd_NtCs9G0t2qE8rAk_9kv_engine11lsm_storageNtB5_15LsmStorageInner27compare_and_set_batch_at_ts
FN:1492,_RNvMsd_NtCs9G0t2qE8rAk_9kv_engine11lsm_storageNtB5_15LsmStorageInner27snapshot_compaction_filters
FN:3993,_RNvMsd_NtCs9G0t2qE8rAk_9kv_engine11lsm_storageNtB5_15LsmStorageInner29force_flush_next_imm_memtable
FN:1500,_RNvMsd_NtCs9G0t2qE8rAk_9kv_engine11lsm_storageNtB5_15LsmStorageInner29record_compaction_filter_drop
FN:3952,_RNvMsd_NtCs9G0t2qE8rAk_9kv_engine11lsm_storageNtB5_15LsmStorageInner30force_freeze_with_new_memtable
FN:1496,_RNvMsd_NtCs9G0t2qE8rAk_9kv_engine11lsm_storageNtB5_15LsmStorageInner30record_compaction_filter_check
FN:1386,_RNvMsd_NtCs9G0t2qE8rAk_9kv_engine11lsm_storageNtB5_15LsmStorageInner33add_compaction_filter_with_cutoff
FN:1472,_RNvMsd_NtCs9G0t2qE8rAk_9kv_engine11lsm_storageNtB5_15LsmStorageInner34validate_compaction_filter_request
FN:1505,_RNvMsd_NtCs9G0t2qE8rAk_9kv_engine11lsm_storageNtB5_15LsmStorageInner3get
FN:3715,_RNvMsd_NtCs9G0t2qE8rAk_9kv_engine11lsm_storageNtB5_15LsmStorageInner3put
FN:4130,_RNvMsd_NtCs9G0t2qE8rAk_9kv_engine11lsm_storageNtB5_15LsmStorageInner4scan
FN:1371,_RNvMsd_NtCs9G0t2qE8rAk_9kv_engine11lsm_storageNtB5_15LsmStorageInner4sync
FN:3778,_RNvMsd_NtCs9G0t2qE8rAk_9kv_engine11lsm_storageNtB5_15LsmStorageInner6delete
FN:4124,_RNvMsd_NtCs9G0t2qE8rAk_9kv_engine11lsm_storageNtB5_15LsmStorageInner7new_txn
FN:4161,_RNvMsd_NtCs9G0t2qE8rAk_9kv_engine11lsm_storageNtB5_15LsmStorageInner8into_vec
FN:3890,_RNvMsd_NtCs9G0t2qE8rAk_9kv_engine11lsm_storageNtB5_15LsmStorageInner8sync_dir
FN:1563,_RNvMsd_NtCs9G0t2qE8rAk_9kv_engine11lsm_storageNtB5_15LsmStorageInner9batch_get
FN:676,_RNvNtCs9G0t2qE8rAk_9kv_engine11lsm_storage18prefix_upper_bound
FN:331,_RNvXs0_NtCs9G0t2qE8rAk_9kv_engine11lsm_storageNtB5_18PrefixBloomOptionsNtNtCslfAf2Mv2Tp5_4core7default7Default7default
FN:409,_RNvXs2_NtCs9G0t2qE8rAk_9kv_engine11lsm_storageNtB5_17LsmStorageOptionsNtNtCslfAf2Mv2Tp5_4core7default7Default7default
FN:568,_RNvXs6_NtCs9G0t2qE8rAk_9kv_engine11lsm_storageNtB5_25RangeTombstoneAtomicStatsNtNtCslfAf2Mv2Tp5_4core7default7Default7default
FN:614,_RNvXs8_NtCs9G0t2qE8rAk_9kv_engine11lsm_storageNtB5_27CompactionFilterAtomicStatsNtNtCslfAf2Mv2Tp5_4core7default7Default7default
FN:793,_RINvMsc_NtCshcgQatfXnqn_9kv_engine11lsm_storageNtB6_8KvEngine4openRNtNtCskaANe6KdTWL_3std4path7PathBufECsjsmMyPGR1S6_10write_perf
FN:3873,_RINvMsd_NtCshcgQatfXnqn_9kv_engine11lsm_storageNtB6_15LsmStorageInner18path_of_sst_staticRNtNtCskaANe6KdTWL_3std4path4PathECsjsmMyPGR1S6_10write_perf
FN:3881,_RINvMsd_NtCshcgQatfXnqn_9kv_engine11lsm_storageNtB6_15LsmStorageInner18path_of_wal_staticRNtNtCskaANe6KdTWL_3std4path4PathECsjsmMyPGR1S6_10write_perf
FN:1067,_RINvMsd_NtCshcgQatfXnqn_9kv_engine11lsm_storageNtB6_15LsmStorageInner4openRNtNtCskaANe6KdTWL_3std4path7PathBufECsjsmMyPGR1S6_10write_perf
FN:1246,_RNCINvMsd_NtCshcgQatfXnqn_9kv_engine11lsm_storageNtB8_15LsmStorageInner4openRNtNtCskaANe6KdTWL_3std4path7PathBufEs1_0CsjsmMyPGR1S6_10write_perf
FN:1264,_RNCINvMsd_NtCshcgQatfXnqn_9kv_engine11lsm_storageNtB8_15LsmStorageInner4openRNtNtCskaANe6KdTWL_3std4path7PathBufEs2_0CsjsmMyPGR1S6_10write_perf
FN:1286,_RNCINvMsd_NtCshcgQatfXnqn_9kv_engine11lsm_storageNtB8_15LsmStorageInner4openRNtNtCskaANe6KdTWL_3std4path7PathBufEs3_0CsjsmMyPGR1S6_10write_perf
FN:1287,_RNCINvMsd_NtCshcgQatfXnqn_9kv_engine11lsm_storageNtB8_15LsmStorageInner4openRNtNtCskaANe6KdTWL_3std4path7PathBufEs4_0CsjsmMyPGR1S6_10write_perf
FN:1292,_RNCINvMsd_NtCshcgQatfXnqn_9kv_engine11lsm_storageNtB8_15LsmStorageInner4openRNtNtCskaANe6KdTWL_3std4path7PathBufEs6_0CsjsmMyPGR1S6_10write_perf
FN:500,_RINvMs4_NtCshcgQatfXnqn_9kv_engine11lsm_storageNtB6_23CompactionFilterRequest6prefixpEB8_
FN:820,_RINvMsc_NtCshcgQatfXnqn_9kv_engine11lsm_storageNtB6_8KvEngine11write_batchpEB8_
FN:793,_RINvMsc_NtCshcgQatfXnqn_9kv_engine11lsm_storageNtB6_8KvEngine4openpEB8_
FN:3417,_RINvMsd_NtCshcgQatfXnqn_9kv_engine11lsm_storageNtB6_15LsmStorageInner11write_batchpEB8_
FN:1067,_RINvMsd_NtCshcgQatfXnqn_9kv_engine11lsm_storageNtB6_15LsmStorageInner4openpEB8_
FN:3421,_RNCINvMsd_NtCshcgQatfXnqn_9kv_engine11lsm_storageNtB8_15LsmStorageInner11write_batchpE0Ba_
FN:3442,_RNCINvMsd_NtCshcgQatfXnqn_9kv_engine11lsm_storageNtB8_15LsmStorageInner11write_batchpEs0_0Ba_
FN:3542,_RNCINvMsd_NtCshcgQatfXnqn_9kv_engine11lsm_storageNtB8_15LsmStorageInner11write_batchpEs1_0Ba_
FN:3557,_RNCINvMsd_NtCshcgQatfXnqn_9kv_engine11lsm_storageNtB8_15LsmStorageInner11write_batchpEs2_0Ba_
FN:3568,_RNCINvMsd_NtCshcgQatfXnqn_9kv_engine11lsm_storageNtB8_15LsmStorageInner11write_batchpEs3_0Ba_
FN:3655,_RNCINvMsd_NtCshcgQatfXnqn_9kv_engine11lsm_storageNtB8_15LsmStorageInner11write_batchpEs4_0Ba_
FN:3660,_RNCINvMsd_NtCshcgQatfXnqn_9kv_engine11lsm_storageNtB8_15LsmStorageInner11write_batchpEs5_0Ba_
FN:3671,_RNCINvMsd_NtCshcgQatfXnqn_9kv_engine11lsm_storageNtB8_15LsmStorageInner11write_batchpEs6_0Ba_
FN:3424,_RNCINvMsd_NtCshcgQatfXnqn_9kv_engine11lsm_storageNtB8_15LsmStorageInner11write_batchpEs_0Ba_
FN:1246,_RNCINvMsd_NtCshcgQatfXnqn_9kv_engine11lsm_storageNtB8_15LsmStorageInner4openpEs1_0Ba_
FN:1264,_RNCINvMsd_NtCshcgQatfXnqn_9kv_engine11lsm_storageNtB8_15LsmStorageInner4openpEs2_0Ba_
FN:1286,_RNCINvMsd_NtCshcgQatfXnqn_9kv_engine11lsm_storageNtB8_15LsmStorageInner4openpEs3_0Ba_
FN:1287,_RNCINvMsd_NtCshcgQatfXnqn_9kv_engine11lsm_storageNtB8_15LsmStorageInner4openpEs4_0Ba_
FN:1292,_RNCINvMsd_NtCshcgQatfXnqn_9kv_engine11lsm_storageNtB8_15LsmStorageInner4openpEs6_0Ba_
FN:2666,_RNCNvMsd_NtCshcgQatfXnqn_9kv_engine11lsm_storageNtB7_15LsmStorageInner19get_with_kind_inner0B9_
FN:2681,_RNCNvMsd_NtCshcgQatfXnqn_9kv_engine11lsm_storageNtB7_15LsmStorageInner19get_with_kind_inners0_0B9_
FN:2689,_RNCNvMsd_NtCshcgQatfXnqn_9kv_engine11lsm_storageNtB7_15LsmStorageInner19get_with_kind_inners1_0B9_
FN:2697,_RNCNvMsd_NtCshcgQatfXnqn_9kv_engine11lsm_storageNtB7_15LsmStorageInner19get_with_kind_inners2_0B9_
FN:2667,_RNCNvMsd_NtCshcgQatfXnqn_9kv_engine11lsm_storageNtB7_15LsmStorageInner19get_with_kind_inners_0B9_
FN:3321,_RNCNvMsd_NtCshcgQatfXnqn_9kv_engine11lsm_storageNtB7_15LsmStorageInner31compare_and_set_batch_with_kind0B9_
FN:2129,_RNvMsd_NtCshcgQatfXnqn_9kv_engine11lsm_storageNtB5_15LsmStorageInner13get_with_kind
FN:2660,_RNvMsd_NtCshcgQatfXnqn_9kv_engine11lsm_storageNtB5_15LsmStorageInner19get_with_kind_inner
FN:3219,_RNvMsd_NtCshcgQatfXnqn_9kv_engine11lsm_storageNtB5_15LsmStorageInner25compare_and_set_with_kind
FN:3257,_RNvMsd_NtCshcgQatfXnqn_9kv_engine11lsm_storageNtB5_15LsmStorageInner31compare_and_set_batch_with_kind
FN:82,_RNvMNtCshcgQatfXnqn_9kv_engine11lsm_storageNtB2_15LsmStorageState6create
FN:342,_RNvMs1_NtCshcgQatfXnqn_9kv_engine11lsm_storageNtB5_18PrefixBloomOptions8validate
FN:429,_RNvMs3_NtCshcgQatfXnqn_9kv_engine11lsm_storageNtB5_17LsmStorageOptions16default_for_test
FN:447,_RNvMs3_NtCshcgQatfXnqn_9kv_engine11lsm_storageNtB5_17LsmStorageOptions27default_for_compaction_test
FN:438,_RNvMs3_NtCshcgQatfXnqn_9kv_engine11lsm_storageNtB5_17LsmStorageOptions27default_for_scan_flush_test
FN:518,_RNvMs5_NtCshcgQatfXnqn_9kv_engine11lsm_storageNtB5_25InstalledCompactionFilter4info
FN:526,_RNvMs5_NtCshcgQatfXnqn_9kv_engine11lsm_storageNtB5_25InstalledCompactionFilter7matches
FN:579,_RNvMs7_NtCshcgQatfXnqn_9kv_engine11lsm_storageNtB5_25RangeTombstoneAtomicStats11note_lookup
FN:589,_RNvMs7_NtCshcgQatfXnqn_9kv_engine11lsm_storageNtB5_25RangeTombstoneAtomicStats17note_covered_drop
FN:594,_RNvMs7_NtCshcgQatfXnqn_9kv_engine11lsm_storageNtB5_25RangeTombstoneAtomicStats22note_tombstone_drops_n
FN:584,_RNvMs7_NtCshcgQatfXnqn_9kv_engine11lsm_storageNtB5_25RangeTombstoneAtomicStats8note_hit
FN:599,_RNvMs7_NtCshcgQatfXnqn_9kv_engine11lsm_storageNtB5_25RangeTombstoneAtomicStats8snapshot
FN:624,_RNvMs9_NtCshcgQatfXnqn_9kv_engine11lsm_storageNtB5_27CompactionFilterAtomicStats10note_check
FN:636,_RNvMs9_NtCshcgQatfXnqn_9kv_engine11lsm_storageNtB5_27CompactionFilterAtomicStats8snapshot
FN:629,_RNvMs9_NtCshcgQatfXnqn_9kv_engine11lsm_storageNtB5_27CompactionFilterAtomicStats9note_drop
FN:127,_RNvMs_NtCshcgQatfXnqn_9kv_engine11lsm_storageNtB4_21ManifestRecoveryState22replay_manifest_record
FN:659,_RNvMsa_NtCshcgQatfXnqn_9kv_engine11lsm_storageNtB5_24CompactionFilterRegistry16snapshot_filters
FN:663,_RNvMsa_NtCshcgQatfXnqn_9kv_engine11lsm_storageNtB5_24CompactionFilterRegistry4list
FN:935,_RNvMsc_NtCshcgQatfXnqn_9kv_engine11lsm_storageNtB5_8KvEngine10trigger_gc
FN:971,_RNvMsc_NtCshcgQatfXnqn_9kv_engine11lsm_storageNtB5_8KvEngine10vlog_stats
FN:979,_RNvMsc_NtCshcgQatfXnqn_9kv_engine11lsm_storageNtB5_8KvEngine11cache_stats
FN:920,_RNvMsc_NtCshcgQatfXnqn_9kv_engine11lsm_storageNtB5_8KvEngine11drain_flush
FN:901,_RNvMsc_NtCshcgQatfXnqn_9kv_engine11lsm_storageNtB5_8KvEngine11force_flush
FN:896,_RNvMsc_NtCshcgQatfXnqn_9kv_engine11lsm_storageNtB5_8KvEngine11prefix_scan
FN:879,_RNvMsc_NtCshcgQatfXnqn_9kv_engine11lsm_storageNtB5_8KvEngine12delete_range
FN:1041,_RNvMsc_NtCshcgQatfXnqn_9kv_engine11lsm_storageNtB5_8KvEngine13write_profile
FN:824,_RNvMsc_NtCshcgQatfXnqn_9kv_engine11lsm_storageNtB5_8KvEngine21add_compaction_filter
FN:929,_RNvMsc_NtCshcgQatfXnqn_9kv_engine11lsm_storageNtB5_8KvEngine21force_full_compaction
FN:997,_RNvMsc_NtCshcgQatfXnqn_9kv_engine11lsm_storageNtB5_8KvEngine21range_tombstone_stats
FN:845,_RNvMsc_NtCshcgQatfXnqn_9kv_engine11lsm_storageNtB5_8KvEngine23compaction_filter_stats
FN:841,_RNvMsc_NtCshcgQatfXnqn_9kv_engine11lsm_storageNtB5_8KvEngine23list_compaction_filters
FN:837,_RNvMsc_NtCshcgQatfXnqn_9kv_engine11lsm_storageNtB5_8KvEngine24remove_compaction_filter
FN:828,_RNvMsc_NtCshcgQatfXnqn_9kv_engine11lsm_storageNtB5_8KvEngine33add_compaction_filter_with_cutoff
FN:849,_RNvMsc_NtCshcgQatfXnqn_9kv_engine11lsm_storageNtB5_8KvEngine3get
FN:861,_RNvMsc_NtCshcgQatfXnqn_9kv_engine11lsm_storageNtB5_8KvEngine3put
FN:887,_RNvMsc_NtCshcgQatfXnqn_9kv_engine11lsm_storageNtB5_8KvEngine4scan
FN:883,_RNvMsc_NtCshcgQatfXnqn_9kv_engine11lsm_storageNtB5_8KvEngine4sync
FN:757,_RNvMsc_NtCshcgQatfXnqn_9kv_engine11lsm_storageNtB5_8KvEngine5close
FN:865,_RNvMsc_NtCshcgQatfXnqn_9kv_engine11lsm_storageNtB5_8KvEngine6delete
FN:816,_RNvMsc_NtCshcgQatfXnqn_9kv_engine11lsm_storageNtB5_8KvEngine7new_txn
FN:857,_RNvMsc_NtCshcgQatfXnqn_9kv_engine11lsm_storageNtB5_8KvEngine9batch_get
FN:2268,_RNvMsd_NtCshcgQatfXnqn_9kv_engine11lsm_storageNtB5_15LsmStorageInner10scan_inner
FN:2205,_RNvMsd_NtCshcgQatfXnqn_9kv_engine11lsm_storageNtB5_15LsmStorageInner11get_with_ts
FN:1060,_RNvMsd_NtCshcgQatfXnqn_9kv_engine11lsm_storageNtB5_15LsmStorageInner11next_sst_id
FN:3877,_RNvMsd_NtCshcgQatfXnqn_9kv_engine11lsm_storageNtB5_15LsmStorageInner11path_of_sst
FN:3885,_RNvMsd_NtCshcgQatfXnqn_9kv_engine11lsm_storageNtB5_15LsmStorageInner11path_of_wal
FN:4145,_RNvMsd_NtCshcgQatfXnqn_9kv_engine11lsm_storageNtB5_15LsmStorageInner11prefix_scan
FN:2623,_RNvMsd_NtCshcgQatfXnqn_9kv_engine11lsm_storageNtB5_15LsmStorageInner12record_write
FN:2247,_RNvMsd_NtCshcgQatfXnqn_9kv_engine11lsm_storageNtB5_15LsmStorageInner12scan_with_ts
FN:3188,_RNvMsd_NtCshcgQatfXnqn_9kv_engine11lsm_storageNtB5_15LsmStorageInner12values_match
FN:2033,_RNvMsd_NtCshcgQatfXnqn_9kv_engine11lsm_storageNtB5_15LsmStorageInner13resolve_value
FN:2950,_RNvMsd_NtCshcgQatfXnqn_9kv_engine11lsm_storageNtB5_15LsmStorageInner14lookup_sst_raw
FN:1842,_RNvMsd_NtCshcgQatfXnqn_9kv_engine11lsm_storageNtB5_15LsmStorageInner15batch_get_small
FN:2790,_RNvMsd_NtCshcgQatfXnqn_9kv_engine11lsm_storageNtB5_15LsmStorageInner15lookup_memtable
FN:2594,_RNvMsd_NtCshcgQatfXnqn_9kv_engine11lsm_storageNtB5_15LsmStorageInner16mvcc_write_batch
FN:2108,_RNvMsd_NtCshcgQatfXnqn_9kv_engine11lsm_storageNtB5_15LsmStorageInner16parse_value_kind
FN:3208,_RNvMsd_NtCshcgQatfXnqn_9kv_engine11lsm_storageNtB5_15LsmStorageInner17encode_kind_value
FN:2089,_RNvMsd_NtCshcgQatfXnqn_9kv_engine11lsm_storageNtB5_15LsmStorageInner17validate_key_size
FN:2139,_RNvMsd_NtCshcgQatfXnqn_9kv_engine11lsm_storageNtB5_15LsmStorageInner19get_with_kind_at_ts
FN:2757,_RNvMsd_NtCshcgQatfXnqn_9kv_engine11lsm_storageNtB5_15LsmStorageInner19newest_sst_range_ts
FN:3692,_RNvMsd_NtCshcgQatfXnqn_9kv_engine11lsm_storageNtB5_15LsmStorageInner19try_freeze_memtable
FN:1375,_RNvMsd_NtCshcgQatfXnqn_9kv_engine11lsm_storageNtB5_15LsmStorageInner21add_compaction_filter
FN:2880,_RNvMsd_NtCshcgQatfXnqn_9kv_engine11lsm_storageNtB5_15LsmStorageInner21batch_lookup_memtable
FN:3838,_RNvMsd_NtCshcgQatfXnqn_9kv_engine11lsm_storageNtB5_15LsmStorageInner21delete_range_internal
FN:3971,_RNvMsd_NtCshcgQatfXnqn_9kv_engine11lsm_storageNtB5_15LsmStorageInner21force_freeze_memtable
FN:2257,_RNvMsd_NtCshcgQatfXnqn_9kv_engine11lsm_storageNtB5_15LsmStorageInner21scan_with_prefix_hint
FN:2629,_RNvMsd_NtCshcgQatfXnqn_9kv_engine11lsm_storageNtB5_15LsmStorageInner22mvcc_write_batch_inner
FN:1467,_RNvMsd_NtCshcgQatfXnqn_9kv_engine11lsm_storageNtB5_15LsmStorageInner23compaction_filter_stats
FN:1463,_RNvMsd_NtCshcgQatfXnqn_9kv_engine11lsm_storageNtB5_15LsmStorageInner23list_compaction_filters
FN:3899,_RNvMsd_NtCshcgQatfXnqn_9kv_engine11lsm_storageNtB5_15LsmStorageInner23maybe_snapshot_manifest
FN:2552,_RNvMsd_NtCshcgQatfXnqn_9kv_engine11lsm_storageNtB5_15LsmStorageInner23scan_overlaps_fragments
FN:2716,_RNvMsd_NtCshcgQatfXnqn_9kv_engine11lsm_storageNtB5_15LsmStorageInner24newest_memtable_range_ts
FN:1441,_RNvMsd_NtCshcgQatfXnqn_9kv_engine11lsm_storageNtB5_15LsmStorageInner24remove_compaction_filter
FN:2053,_RNvMsd_NtCshcgQatfXnqn_9kv_engine11lsm_storageNtB5_15LsmStorageInner24resolve_vlog_value_bytes
FN:1404,_RNvMsd_NtCshcgQatfXnqn_9kv_engine11lsm_storageNtB5_15LsmStorageInner27add_compaction_filter_inner
FN:3333,_RNvMsd_NtCshcgQatfXnqn_9kv_engine11lsm_storageNtB5_15LsmStorageInner27compare_and_set_batch_at_ts
FN:1492,_RNvMsd_NtCshcgQatfXnqn_9kv_engine11lsm_storageNtB5_15LsmStorageInner27snapshot_compaction_filters
FN:3993,_RNvMsd_NtCshcgQatfXnqn_9kv_engine11lsm_storageNtB5_15LsmStorageInner29force_flush_next_imm_memtable
FN:1500,_RNvMsd_NtCshcgQatfXnqn_9kv_engine11lsm_storageNtB5_15LsmStorageInner29record_compaction_filter_drop
FN:3952,_RNvMsd_NtCshcgQatfXnqn_9kv_engine11lsm_storageNtB5_15LsmStorageInner30force_freeze_with_new_memtable
FN:1496,_RNvMsd_NtCshcgQatfXnqn_9kv_engine11lsm_storageNtB5_15LsmStorageInner30record_compaction_filter_check
FN:1386,_RNvMsd_NtCshcgQatfXnqn_9kv_engine11lsm_storageNtB5_15LsmStorageInner33add_compaction_filter_with_cutoff
FN:1472,_RNvMsd_NtCshcgQatfXnqn_9kv_engine11lsm_storageNtB5_15LsmStorageInner34validate_compaction_filter_request
FN:1505,_RNvMsd_NtCshcgQatfXnqn_9kv_engine11lsm_storageNtB5_15LsmStorageInner3get
FN:3715,_RNvMsd_NtCshcgQatfXnqn_9kv_engine11lsm_storageNtB5_15LsmStorageInner3put
FN:4130,_RNvMsd_NtCshcgQatfXnqn_9kv_engine11lsm_storageNtB5_15LsmStorageInner4scan
FN:1371,_RNvMsd_NtCshcgQatfXnqn_9kv_engine11lsm_storageNtB5_15LsmStorageInner4sync
FN:3778,_RNvMsd_NtCshcgQatfXnqn_9kv_engine11lsm_storageNtB5_15LsmStorageInner6delete
FN:4124,_RNvMsd_NtCshcgQatfXnqn_9kv_engine11lsm_storageNtB5_15LsmStorageInner7new_txn
FN:4161,_RNvMsd_NtCshcgQatfXnqn_9kv_engine11lsm_storageNtB5_15LsmStorageInner8into_vec
FN:3890,_RNvMsd_NtCshcgQatfXnqn_9kv_engine11lsm_storageNtB5_15LsmStorageInner8sync_dir
FN:1563,_RNvMsd_NtCshcgQatfXnqn_9kv_engine11lsm_storageNtB5_15LsmStorageInner9batch_get
FN:676,_RNvNtCshcgQatfXnqn_9kv_engine11lsm_storage18prefix_upper_bound
FN:331,_RNvXs0_NtCshcgQatfXnqn_9kv_engine11lsm_storageNtB5_18PrefixBloomOptionsNtNtCslfAf2Mv2Tp5_4core7default7Default7default
FN:409,_RNvXs2_NtCshcgQatfXnqn_9kv_engine11lsm_storageNtB5_17LsmStorageOptionsNtNtCslfAf2Mv2Tp5_4core7default7Default7default
FN:568,_RNvXs6_NtCshcgQatfXnqn_9kv_engine11lsm_storageNtB5_25RangeTombstoneAtomicStatsNtNtCslfAf2Mv2Tp5_4core7default7Default7default
FN:614,_RNvXs8_NtCshcgQatfXnqn_9kv_engine11lsm_storageNtB5_27CompactionFilterAtomicStatsNtNtCslfAf2Mv2Tp5_4core7default7Default7default
FN:3873,_RINvMsd_NtCshcgQatfXnqn_9kv_engine11lsm_storageNtB6_15LsmStorageInner18path_of_sst_staticRNtNtCskaANe6KdTWL_3std4path7PathBufEB8_
FN:3881,_RINvMsd_NtCshcgQatfXnqn_9kv_engine11lsm_storageNtB6_15LsmStorageInner18path_of_wal_staticRNtNtCskaANe6KdTWL_3std4path7PathBufEB8_
FN:90,_RNCNCNvMNtCshcgQatfXnqn_9kv_engine11lsm_storageNtB6_15LsmStorageState6create00B8_
FN:2478,_RNCNCNvMsd_NtCshcgQatfXnqn_9kv_engine11lsm_storageNtB9_15LsmStorageInner10scan_inners4_00Bb_
FN:3062,_RNCNCNvMsd_NtCshcgQatfXnqn_9kv_engine11lsm_storageNtB9_15LsmStorageInner14lookup_sst_raws6_00Bb_
FN:3098,_RNCNCNvMsd_NtCshcgQatfXnqn_9kv_engine11lsm_storageNtB9_15LsmStorageInner14lookup_sst_raws8_00Bb_
FN:3158,_RNCNCNvMsd_NtCshcgQatfXnqn_9kv_engine11lsm_storageNtB9_15LsmStorageInner14lookup_sst_rawsb_00Bb_
FN:2746,_RNCNCNvMsd_NtCshcgQatfXnqn_9kv_engine11lsm_storageNtB9_15LsmStorageInner24newest_memtable_range_ts00Bb_
FN:1637,_RNCNCNvMsd_NtCshcgQatfXnqn_9kv_engine11lsm_storageNtB9_15LsmStorageInner9batch_gets8_00Bb_
FN:1661,_RNCNCNvMsd_NtCshcgQatfXnqn_9kv_engine11lsm_storageNtB9_15LsmStorageInner9batch_getsc_00Bb_
FN:1663,_RNCNCNvMsd_NtCshcgQatfXnqn_9kv_engine11lsm_storageNtB9_15LsmStorageInner9batch_getsc_0s0_0Bb_
FN:1662,_RNCNCNvMsd_NtCshcgQatfXnqn_9kv_engine11lsm_storageNtB9_15LsmStorageInner9batch_getsc_0s_0Bb_
FN:85,_RNCNvMNtCshcgQatfXnqn_9kv_engine11lsm_storageNtB4_15LsmStorageState6create0B6_
FN:233,_RNCNvMs_NtCshcgQatfXnqn_9kv_engine11lsm_storageNtB6_21ManifestRecoveryState22replay_manifest_record0B8_
FN:248,_RNCNvMs_NtCshcgQatfXnqn_9kv_engine11lsm_storageNtB6_21ManifestRecoveryState22replay_manifest_records0_0B8_
FN:250,_RNCNvMs_NtCshcgQatfXnqn_9kv_engine11lsm_storageNtB6_21ManifestRecoveryState22replay_manifest_records1_0B8_
FN:302,_RNCNvMs_NtCshcgQatfXnqn_9kv_engine11lsm_storageNtB6_21ManifestRecoveryState22replay_manifest_records2_0B8_
FN:240,_RNCNvMs_NtCshcgQatfXnqn_9kv_engine11lsm_storageNtB6_21ManifestRecoveryState22replay_manifest_records_0B8_
FN:666,_RNCNvMsa_NtCshcgQatfXnqn_9kv_engine11lsm_storageNtB7_24CompactionFilterRegistry4list0B9_
FN:953,_RNCNvMsc_NtCshcgQatfXnqn_9kv_engine11lsm_storageNtB7_8KvEngine10trigger_gc0B9_
FN:984,_RNCNvMsc_NtCshcgQatfXnqn_9kv_engine11lsm_storageNtB7_8KvEngine11cache_stats0B9_
FN:1003,_RNCNvMsc_NtCshcgQatfXnqn_9kv_engine11lsm_storageNtB7_8KvEngine21range_tombstone_stats0B9_
FN:760,_RNCNvMsc_NtCshcgQatfXnqn_9kv_engine11lsm_storageNtB7_8KvEngine5close0B9_
FN:764,_RNCNvMsc_NtCshcgQatfXnqn_9kv_engine11lsm_storageNtB7_8KvEngine5closes_0B9_
FN:2292,_RNCNvMsd_NtCshcgQatfXnqn_9kv_engine11lsm_storageNtB7_15LsmStorageInner10scan_inner0B9_
FN:2299,_RNCNvMsd_NtCshcgQatfXnqn_9kv_engine11lsm_storageNtB7_15LsmStorageInner10scan_inners0_0B9_
FN:2468,_RNCNvMsd_NtCshcgQatfXnqn_9kv_engine11lsm_storageNtB7_15LsmStorageInner10scan_inners1_0B9_
FN:2474,_RNCNvMsd_NtCshcgQatfXnqn_9kv_engine11lsm_storageNtB7_15LsmStorageInner10scan_inners4_0B9_
FN:2293,_RNCNvMsd_NtCshcgQatfXnqn_9kv_engine11lsm_storageNtB7_15LsmStorageInner10scan_inners_0B9_
FN:2214,_RNCNvMsd_NtCshcgQatfXnqn_9kv_engine11lsm_storageNtB7_15LsmStorageInner11get_with_ts0B9_
FN:2232,_RNCNvMsd_NtCshcgQatfXnqn_9kv_engine11lsm_storageNtB7_15LsmStorageInner11get_with_tss0_0B9_
FN:2224,_RNCNvMsd_NtCshcgQatfXnqn_9kv_engine11lsm_storageNtB7_15LsmStorageInner11get_with_tss_0B9_
FN:4149,_RNCNvMsd_NtCshcgQatfXnqn_9kv_engine11lsm_storageNtB7_15LsmStorageInner11prefix_scan0B9_
FN:4150,_RNCNvMsd_NtCshcgQatfXnqn_9kv_engine11lsm_storageNtB7_15LsmStorageInner11prefix_scans_0B9_
FN:2042,_RNCNvMsd_NtCshcgQatfXnqn_9kv_engine11lsm_storageNtB7_15LsmStorageInner13resolve_value0B9_
FN:2967,_RNCNvMsd_NtCshcgQatfXnqn_9kv_engine11lsm_storageNtB7_15LsmStorageInner14lookup_sst_raw0B9_
FN:2984,_RNCNvMsd_NtCshcgQatfXnqn_9kv_engine11lsm_storageNtB7_15LsmStorageInner14lookup_sst_raws0_0B9_
FN:2989,_RNCNvMsd_NtCshcgQatfXnqn_9kv_engine11lsm_storageNtB7_15LsmStorageInner14lookup_sst_raws1_0B9_
FN:2996,_RNCNvMsd_NtCshcgQatfXnqn_9kv_engine11lsm_storageNtB7_15LsmStorageInner14lookup_sst_raws2_0B9_
FN:3014,_RNCNvMsd_NtCshcgQatfXnqn_9kv_engine11lsm_storageNtB7_15LsmStorageInner14lookup_sst_raws3_0B9_
FN:3026,_RNCNvMsd_NtCshcgQatfXnqn_9kv_engine11lsm_storageNtB7_15LsmStorageInner14lookup_sst_raws4_0B9_
FN:3038,_RNCNvMsd_NtCshcgQatfXnqn_9kv_engine11lsm_storageNtB7_15LsmStorageInner14lookup_sst_raws5_0B9_
FN:3061,_RNCNvMsd_NtCshcgQatfXnqn_9kv_engine11lsm_storageNtB7_15LsmStorageInner14lookup_sst_raws6_0B9_
FN:3079,_RNCNvMsd_NtCshcgQatfXnqn_9kv_engine11lsm_storageNtB7_15LsmStorageInner14lookup_sst_raws7_0B9_
FN:3097,_RNCNvMsd_NtCshcgQatfXnqn_9kv_engine11lsm_storageNtB7_15LsmStorageInner14lookup_sst_raws8_0B9_
FN:3137,_RNCNvMsd_NtCshcgQatfXnqn_9kv_engine11lsm_storageNtB7_15LsmStorageInner14lookup_sst_raws9_0B9_
FN:2981,_RNCNvMsd_NtCshcgQatfXnqn_9kv_engine11lsm_storageNtB7_15LsmStorageInner14lookup_sst_raws_0B9_
FN:3144,_RNCNvMsd_NtCshcgQatfXnqn_9kv_engine11lsm_storageNtB7_15LsmStorageInner14lookup_sst_rawsa_0B9_
FN:3157,_RNCNvMsd_NtCshcgQatfXnqn_9kv_engine11lsm_storageNtB7_15LsmStorageInner14lookup_sst_rawsb_0B9_
FN:1851,_RNCNvMsd_NtCshcgQatfXnqn_9kv_engine11lsm_storageNtB7_15LsmStorageInner15batch_get_small0B9_
FN:1866,_RNCNvMsd_NtCshcgQatfXnqn_9kv_engine11lsm_storageNtB7_15LsmStorageInner15batch_get_smalls0_0B9_
FN:1965,_RNCNvMsd_NtCshcgQatfXnqn_9kv_engine11lsm_storageNtB7_15LsmStorageInner15batch_get_smalls1_0B9_
FN:2004,_RNCNvMsd_NtCshcgQatfXnqn_9kv_engine11lsm_storageNtB7_15LsmStorageInner15batch_get_smalls2_0B9_
FN:1857,_RNCNvMsd_NtCshcgQatfXnqn_9kv_engine11lsm_storageNtB7_15LsmStorageInner15batch_get_smalls_0B9_
FN:2606,_RNCNvMsd_NtCshcgQatfXnqn_9kv_engine11lsm_storageNtB7_15LsmStorageInner16mvcc_write_batch0B9_
FN:2177,_RNCNvMsd_NtCshcgQatfXnqn_9kv_engine11lsm_storageNtB7_15LsmStorageInner19get_with_kind_at_ts0B9_
FN:1379,_RNCNvMsd_NtCshcgQatfXnqn_9kv_engine11lsm_storageNtB7_15LsmStorageInner21add_compaction_filter0B9_
FN:2938,_RNCNvMsd_NtCshcgQatfXnqn_9kv_engine11lsm_storageNtB7_15LsmStorageInner21batch_lookup_memtables0_0B9_
FN:2919,_RNCNvMsd_NtCshcgQatfXnqn_9kv_engine11lsm_storageNtB7_15LsmStorageInner21batch_lookup_memtables_0B9_
FN:2646,_RNCNvMsd_NtCshcgQatfXnqn_9kv_engine11lsm_storageNtB7_15LsmStorageInner22mvcc_write_batch_inner0B9_
FN:3941,_RNCNvMsd_NtCshcgQatfXnqn_9kv_engine11lsm_storageNtB7_15LsmStorageInner23maybe_snapshot_manifest0B9_
FN:2743,_RNCNvMsd_NtCshcgQatfXnqn_9kv_engine11lsm_storageNtB7_15LsmStorageInner24newest_memtable_range_ts0B9_
FN:2059,_RNCNvMsd_NtCshcgQatfXnqn_9kv_engine11lsm_storageNtB7_15LsmStorageInner24resolve_vlog_value_bytes0B9_
FN:2069,_RNCNvMsd_NtCshcgQatfXnqn_9kv_engine11lsm_storageNtB7_15LsmStorageInner24resolve_vlog_value_bytess_0B9_
FN:1416,_RNCNvMsd_NtCshcgQatfXnqn_9kv_engine11lsm_storageNtB7_15LsmStorageInner27add_compaction_filter_inner0B9_
FN:3353,_RNCNvMsd_NtCshcgQatfXnqn_9kv_engine11lsm_storageNtB7_15LsmStorageInner27compare_and_set_batch_at_ts0B9_
FN:3402,_RNCNvMsd_NtCshcgQatfXnqn_9kv_engine11lsm_storageNtB7_15LsmStorageInner27compare_and_set_batch_at_tss_0B9_
FN:4014,_RNCNvMsd_NtCshcgQatfXnqn_9kv_engine11lsm_storageNtB7_15LsmStorageInner29force_flush_next_imm_memtable0B9_
FN:1511,_RNCNvMsd_NtCshcgQatfXnqn_9kv_engine11lsm_storageNtB7_15LsmStorageInner3get0B9_
FN:1528,_RNCNvMsd_NtCshcgQatfXnqn_9kv_engine11lsm_storageNtB7_15LsmStorageInner3gets0_0B9_
FN:1538,_RNCNvMsd_NtCshcgQatfXnqn_9kv_engine11lsm_storageNtB7_15LsmStorageInner3gets1_0B9_
FN:1546,_RNCNvMsd_NtCshcgQatfXnqn_9kv_engine11lsm_storageNtB7_15LsmStorageInner3gets2_0B9_
FN:1512,_RNCNvMsd_NtCshcgQatfXnqn_9kv_engine11lsm_storageNtB7_15LsmStorageInner3gets_0B9_
FN:3725,_RNCNvMsd_NtCshcgQatfXnqn_9kv_engine11lsm_storageNtB7_15LsmStorageInner3put0B9_
FN:4137,_RNCNvMsd_NtCshcgQatfXnqn_9kv_engine11lsm_storageNtB7_15LsmStorageInner4scan0B9_
FN:4138,_RNCNvMsd_NtCshcgQatfXnqn_9kv_engine11lsm_storageNtB7_15LsmStorageInner4scans_0B9_
FN:3781,_RNCNvMsd_NtCshcgQatfXnqn_9kv_engine11lsm_storageNtB7_15LsmStorageInner6delete0B9_
FN:1574,_RNCNvMsd_NtCshcgQatfXnqn_9kv_engine11lsm_storageNtB7_15LsmStorageInner9batch_get0B9_
FN:1587,_RNCNvMsd_NtCshcgQatfXnqn_9kv_engine11lsm_storageNtB7_15LsmStorageInner9batch_gets0_0B9_
FN:1592,_RNCNvMsd_NtCshcgQatfXnqn_9kv_engine11lsm_storageNtB7_15LsmStorageInner9batch_gets1_0B9_
FN:1594,_RNCNvMsd_NtCshcgQatfXnqn_9kv_engine11lsm_storageNtB7_15LsmStorageInner9batch_gets2_0B9_
FN:1607,_RNCNvMsd_NtCshcgQatfXnqn_9kv_engine11lsm_storageNtB7_15LsmStorageInner9batch_gets3_0B9_
FN:1613,_RNCNvMsd_NtCshcgQatfXnqn_9kv_engine11lsm_storageNtB7_15LsmStorageInner9batch_gets4_0B9_
FN:1627,_RNCNvMsd_NtCshcgQatfXnqn_9kv_engine11lsm_storageNtB7_15LsmStorageInner9batch_gets5_0B9_
FN:1633,_RNCNvMsd_NtCshcgQatfXnqn_9kv_engine11lsm_storageNtB7_15LsmStorageInner9batch_gets8_0B9_
FN:1646,_RNCNvMsd_NtCshcgQatfXnqn_9kv_engine11lsm_storageNtB7_15LsmStorageInner9batch_gets9_0B9_
FN:1575,_RNCNvMsd_NtCshcgQatfXnqn_9kv_engine11lsm_storageNtB7_15LsmStorageInner9batch_gets_0B9_
FN:1657,_RNCNvMsd_NtCshcgQatfXnqn_9kv_engine11lsm_storageNtB7_15LsmStorageInner9batch_getsc_0B9_
FN:1671,_RNCNvMsd_NtCshcgQatfXnqn_9kv_engine11lsm_storageNtB7_15LsmStorageInner9batch_getsd_0B9_
FN:1721,_RNCNvMsd_NtCshcgQatfXnqn_9kv_engine11lsm_storageNtB7_15LsmStorageInner9batch_getse_0B9_
FN:1766,_RNCNvMsd_NtCshcgQatfXnqn_9kv_engine11lsm_storageNtB7_15LsmStorageInner9batch_getsf_0B9_
FN:1778,_RNCNvMsd_NtCshcgQatfXnqn_9kv_engine11lsm_storageNtB7_15LsmStorageInner9batch_getsg_0B9_
FN:1811,_RNCNvMsd_NtCshcgQatfXnqn_9kv_engine11lsm_storageNtB7_15LsmStorageInner9batch_getsh_0B9_
FN:741,_RNvXsb_NtCshcgQatfXnqn_9kv_engine11lsm_storageNtB5_8KvEngineNtNtNtCslfAf2Mv2Tp5_4core3ops4drop4Drop4drop
FNDA:0,_RNCNvMsd_NtCs9G0t2qE8rAk_9kv_engine11lsm_storageNtB7_15LsmStorageInner19get_with_kind_inner0B9_
FNDA:0,_RNCNvMsd_NtCs9G0t2qE8rAk_9kv_engine11lsm_storageNtB7_15LsmStorageInner19get_with_kind_inners0_0B9_
FNDA:0,_RNCNvMsd_NtCs9G0t2qE8rAk_9kv_engine11lsm_storageNtB7_15LsmStorageInner19get_with_kind_inners1_0B9_
FNDA:0,_RNCNvMsd_NtCs9G0t2qE8rAk_9kv_engine11lsm_storageNtB7_15LsmStorageInner19get_with_kind_inners2_0B9_
FNDA:0,_RNCNvMsd_NtCs9G0t2qE8rAk_9kv_engine11lsm_storageNtB7_15LsmStorageInner19get_with_kind_inners_0B9_
FNDA:0,_RNCNvMsd_NtCs9G0t2qE8rAk_9kv_engine11lsm_storageNtB7_15LsmStorageInner31compare_and_set_batch_with_kind0B9_
FNDA:0,_RNvMs3_NtCs9G0t2qE8rAk_9kv_engine11lsm_storageNtB5_17LsmStorageOptions27default_for_compaction_test
FNDA:0,_RNvMs3_NtCs9G0t2qE8rAk_9kv_engine11lsm_storageNtB5_17LsmStorageOptions27default_for_scan_flush_test
FNDA:0,_RNvMsc_NtCs9G0t2qE8rAk_9kv_engine11lsm_storageNtB5_8KvEngine13write_profile
FNDA:0,_RNvMsc_NtCs9G0t2qE8rAk_9kv_engine11lsm_storageNtB5_8KvEngine4sync
FNDA:0,_RNvMsd_NtCs9G0t2qE8rAk_9kv_engine11lsm_storageNtB5_15LsmStorageInner13get_with_kind
FNDA:0,_RNvMsd_NtCs9G0t2qE8rAk_9kv_engine11lsm_storageNtB5_15LsmStorageInner19get_with_kind_inner
FNDA:0,_RNvMsd_NtCs9G0t2qE8rAk_9kv_engine11lsm_storageNtB5_15LsmStorageInner25compare_and_set_with_kind
FNDA:0,_RNvMsd_NtCs9G0t2qE8rAk_9kv_engine11lsm_storageNtB5_15LsmStorageInner31compare_and_set_batch_with_kind
FNDA:182,_RNvXsb_NtCs9G0t2qE8rAk_9kv_engine11lsm_storageNtB5_8KvEngineNtNtNtCslfAf2Mv2Tp5_4core3ops4drop4Drop4drop
FNDA:8,_RINvMs4_NtCs9G0t2qE8rAk_9kv_engine11lsm_storageNtB6_23CompactionFilterRequest6prefixINtNtCs2TrN21NlPz_5alloc3vec3VechEEB8_
FNDA:12,_RINvMs4_NtCs9G0t2qE8rAk_9kv_engine11lsm_storageNtB6_23CompactionFilterRequest6prefixNtNtCs3nU4b9VY2Ln_5bytes5bytes5BytesEB8_
FNDA:1,_RINvMsc_NtCs9G0t2qE8rAk_9kv_engine11lsm_storageNtB6_8KvEngine11write_batchINtNtCs2TrN21NlPz_5alloc3vec3VechEEB8_
FNDA:11,_RINvMsc_NtCs9G0t2qE8rAk_9kv_engine11lsm_storageNtB6_8KvEngine11write_batchRShEB8_
FNDA:113,_RINvMsc_NtCs9G0t2qE8rAk_9kv_engine11lsm_storageNtB6_8KvEngine4openRNtNtCs5uWf4xGOoVW_8tempfile3dir7TempDirEB8_
FNDA:69,_RINvMsc_NtCs9G0t2qE8rAk_9kv_engine11lsm_storageNtB6_8KvEngine4openRNtNtCskaANe6KdTWL_3std4path4PathEB8_
FNDA:1,_RINvMsd_NtCs9G0t2qE8rAk_9kv_engine11lsm_storageNtB6_15LsmStorageInner11write_batchINtNtCs2TrN21NlPz_5alloc3vec3VechEEB8_
FNDA:21,_RINvMsd_NtCs9G0t2qE8rAk_9kv_engine11lsm_storageNtB6_15LsmStorageInner11write_batchRShEB8_
FNDA:17,_RINvMsd_NtCs9G0t2qE8rAk_9kv_engine11lsm_storageNtB6_15LsmStorageInner18path_of_sst_staticRNtNtCskaANe6KdTWL_3std4path4PathEB8_
FNDA:337,_RINvMsd_NtCs9G0t2qE8rAk_9kv_engine11lsm_storageNtB6_15LsmStorageInner18path_of_sst_staticRNtNtCskaANe6KdTWL_3std4path7PathBufEB8_
FNDA:6,_RINvMsd_NtCs9G0t2qE8rAk_9kv_engine11lsm_storageNtB6_15LsmStorageInner18path_of_wal_staticRNtNtCs5uWf4xGOoVW_8tempfile3dir7TempDirEB8_
FNDA:8,_RINvMsd_NtCs9G0t2qE8rAk_9kv_engine11lsm_storageNtB6_15LsmStorageInner18path_of_wal_staticRNtNtCskaANe6KdTWL_3std4path4PathEB8_
FNDA:21,_RINvMsd_NtCs9G0t2qE8rAk_9kv_engine11lsm_storageNtB6_15LsmStorageInner18path_of_wal_staticRNtNtCskaANe6KdTWL_3std4path7PathBufEB8_
FNDA:146,_RINvMsd_NtCs9G0t2qE8rAk_9kv_engine11lsm_storageNtB6_15LsmStorageInner4openRNtNtCs5uWf4xGOoVW_8tempfile3dir7TempDirEB8_
FNDA:123,_RINvMsd_NtCs9G0t2qE8rAk_9kv_engine11lsm_storageNtB6_15LsmStorageInner4openRNtNtCskaANe6KdTWL_3std4path4PathEB8_
FNDA:1,_RNCINvMsd_NtCs9G0t2qE8rAk_9kv_engine11lsm_storageNtB8_15LsmStorageInner11write_batchINtNtCs2TrN21NlPz_5alloc3vec3VechEE0Ba_
FNDA:0,_RNCINvMsd_NtCs9G0t2qE8rAk_9kv_engine11lsm_storageNtB8_15LsmStorageInner11write_batchINtNtCs2TrN21NlPz_5alloc3vec3VechEEs0_0Ba_
FNDA:0,_RNCINvMsd_NtCs9G0t2qE8rAk_9kv_engine11lsm_storageNtB8_15LsmStorageInner11write_batchINtNtCs2TrN21NlPz_5alloc3vec3VechEEs1_0Ba_
FNDA:0,_RNCINvMsd_NtCs9G0t2qE8rAk_9kv_engine11lsm_storageNtB8_15LsmStorageInner11write_batchINtNtCs2TrN21NlPz_5alloc3vec3VechEEs2_0Ba_
FNDA:0,_RNCINvMsd_NtCs9G0t2qE8rAk_9kv_engine11lsm_storageNtB8_15LsmStorageInner11write_batchINtNtCs2TrN21NlPz_5alloc3vec3VechEEs3_0Ba_
FNDA:0,_RNCINvMsd_NtCs9G0t2qE8rAk_9kv_engine11lsm_storageNtB8_15LsmStorageInner11write_batchINtNtCs2TrN21NlPz_5alloc3vec3VechEEs4_0Ba_
FNDA:0,_RNCINvMsd_NtCs9G0t2qE8rAk_9kv_engine11lsm_storageNtB8_15LsmStorageInner11write_batchINtNtCs2TrN21NlPz_5alloc3vec3VechEEs5_0Ba_
FNDA:0,_RNCINvMsd_NtCs9G0t2qE8rAk_9kv_engine11lsm_storageNtB8_15LsmStorageInner11write_batchINtNtCs2TrN21NlPz_5alloc3vec3VechEEs6_0Ba_
FNDA:1,_RNCINvMsd_NtCs9G0t2qE8rAk_9kv_engine11lsm_storageNtB8_15LsmStorageInner11write_batchINtNtCs2TrN21NlPz_5alloc3vec3VechEEs_0Ba_
FNDA:22,_RNCINvMsd_NtCs9G0t2qE8rAk_9kv_engine11lsm_storageNtB8_15LsmStorageInner11write_batchRShE0Ba_
FNDA:4,_RNCINvMsd_NtCs9G0t2qE8rAk_9kv_engine11lsm_storageNtB8_15LsmStorageInner11write_batchRShEs0_0Ba_
FNDA:15,_RNCINvMsd_NtCs9G0t2qE8rAk_9kv_engine11lsm_storageNtB8_15LsmStorageInner11write_batchRShEs1_0Ba_
FNDA:10,_RNCINvMsd_NtCs9G0t2qE8rAk_9kv_engine11lsm_storageNtB8_15LsmStorageInner11write_batchRShEs2_0Ba_
FNDA:17,_RNCINvMsd_NtCs9G0t2qE8rAk_9kv_engine11lsm_storageNtB8_15LsmStorageInner11write_batchRShEs3_0Ba_
FNDA:0,_RNCINvMsd_NtCs9G0t2qE8rAk_9kv_engine11lsm_storageNtB8_15LsmStorageInner11write_batchRShEs4_0Ba_
FNDA:0,_RNCINvMsd_NtCs9G0t2qE8rAk_9kv_engine11lsm_storageNtB8_15LsmStorageInner11write_batchRShEs5_0Ba_
FNDA:27,_RNCINvMsd_NtCs9G0t2qE8rAk_9kv_engine11lsm_storageNtB8_15LsmStorageInner11write_batchRShEs6_0Ba_
FNDA:46,_RNCINvMsd_NtCs9G0t2qE8rAk_9kv_engine11lsm_storageNtB8_15LsmStorageInner11write_batchRShEs_0Ba_
FNDA:0,_RNCINvMsd_NtCs9G0t2qE8rAk_9kv_engine11lsm_storageNtB8_15LsmStorageInner4openRNtNtCs5uWf4xGOoVW_8tempfile3dir7TempDirEs1_0Ba_
FNDA:0,_RNCINvMsd_NtCs9G0t2qE8rAk_9kv_engine11lsm_storageNtB8_15LsmStorageInner4openRNtNtCs5uWf4xGOoVW_8tempfile3dir7TempDirEs2_0Ba_
FNDA:0,_RNCINvMsd_NtCs9G0t2qE8rAk_9kv_engine11lsm_storageNtB8_15LsmStorageInner4openRNtNtCs5uWf4xGOoVW_8tempfile3dir7TempDirEs3_0Ba_
FNDA:0,_RNCINvMsd_NtCs9G0t2qE8rAk_9kv_engine11lsm_storageNtB8_15LsmStorageInner4openRNtNtCs5uWf4xGOoVW_8tempfile3dir7TempDirEs4_0Ba_
FNDA:0,_RNCINvMsd_NtCs9G0t2qE8rAk_9kv_engine11lsm_storageNtB8_15LsmStorageInner4openRNtNtCs5uWf4xGOoVW_8tempfile3dir7TempDirEs6_0Ba_
FNDA:0,_RNCINvMsd_NtCs9G0t2qE8rAk_9kv_engine11lsm_storageNtB8_15LsmStorageInner4openRNtNtCskaANe6KdTWL_3std4path4PathEs1_0Ba_
FNDA:0,_RNCINvMsd_NtCs9G0t2qE8rAk_9kv_engine11lsm_storageNtB8_15LsmStorageInner4openRNtNtCskaANe6KdTWL_3std4path4PathEs2_0Ba_
FNDA:0,_RNCINvMsd_NtCs9G0t2qE8rAk_9kv_engine11lsm_storageNtB8_15LsmStorageInner4openRNtNtCskaANe6KdTWL_3std4path4PathEs3_0Ba_
FNDA:0,_RNCINvMsd_NtCs9G0t2qE8rAk_9kv_engine11lsm_storageNtB8_15LsmStorageInner4openRNtNtCskaANe6KdTWL_3std4path4PathEs4_0Ba_
FNDA:0,_RNCINvMsd_NtCs9G0t2qE8rAk_9kv_engine11lsm_storageNtB8_15LsmStorageInner4openRNtNtCskaANe6KdTWL_3std4path4PathEs6_0Ba_
FNDA:138,_RNCNCNvMNtCs9G0t2qE8rAk_9kv_engine11lsm_storageNtB6_15LsmStorageState6create00B8_
FNDA:107,_RNCNCNvMsd_NtCs9G0t2qE8rAk_9kv_engine11lsm_storageNtB9_15LsmStorageInner10scan_inners4_00Bb_
FNDA:0,_RNCNCNvMsd_NtCs9G0t2qE8rAk_9kv_engine11lsm_storageNtB9_15LsmStorageInner14lookup_sst_raws6_00Bb_
FNDA:4365,_RNCNCNvMsd_NtCs9G0t2qE8rAk_9kv_engine11lsm_storageNtB9_15LsmStorageInner14lookup_sst_raws8_00Bb_
FNDA:0,_RNCNCNvMsd_NtCs9G0t2qE8rAk_9kv_engine11lsm_storageNtB9_15LsmStorageInner14lookup_sst_rawsb_00Bb_
FNDA:6,_RNCNCNvMsd_NtCs9G0t2qE8rAk_9kv_engine11lsm_storageNtB9_15LsmStorageInner24newest_memtable_range_ts00Bb_
FNDA:0,_RNCNCNvMsd_NtCs9G0t2qE8rAk_9kv_engine11lsm_storageNtB9_15LsmStorageInner9batch_gets8_00Bb_
FNDA:0,_RNCNCNvMsd_NtCs9G0t2qE8rAk_9kv_engine11lsm_storageNtB9_15LsmStorageInner9batch_getsc_00Bb_
FNDA:0,_RNCNCNvMsd_NtCs9G0t2qE8rAk_9kv_engine11lsm_storageNtB9_15LsmStorageInner9batch_getsc_0s0_0Bb_
FNDA:0,_RNCNCNvMsd_NtCs9G0t2qE8rAk_9kv_engine11lsm_storageNtB9_15LsmStorageInner9batch_getsc_0s_0Bb_
FNDA:538,_RNCNvMNtCs9G0t2qE8rAk_9kv_engine11lsm_storageNtB4_15LsmStorageState6create0B6_
FNDA:0,_RNCNvMs_NtCs9G0t2qE8rAk_9kv_engine11lsm_storageNtB6_21ManifestRecoveryState22replay_manifest_record0B8_
FNDA:1,_RNCNvMs_NtCs9G0t2qE8rAk_9kv_engine11lsm_storageNtB6_21ManifestRecoveryState22replay_manifest_records0_0B8_
FNDA:0,_RNCNvMs_NtCs9G0t2qE8rAk_9kv_engine11lsm_storageNtB6_21ManifestRecoveryState22replay_manifest_records1_0B8_
FNDA:1,_RNCNvMs_NtCs9G0t2qE8rAk_9kv_engine11lsm_storageNtB6_21ManifestRecoveryState22replay_manifest_records2_0B8_
FNDA:0,_RNCNvMs_NtCs9G0t2qE8rAk_9kv_engine11lsm_storageNtB6_21ManifestRecoveryState22replay_manifest_records_0B8_
FNDA:5,_RNCNvMsa_NtCs9G0t2qE8rAk_9kv_engine11lsm_storageNtB7_24CompactionFilterRegistry4list0B9_
FNDA:6,_RNCNvMsc_NtCs9G0t2qE8rAk_9kv_engine11lsm_storageNtB7_8KvEngine10trigger_gc0B9_
FNDA:1,_RNCNvMsc_NtCs9G0t2qE8rAk_9kv_engine11lsm_storageNtB7_8KvEngine11cache_stats0B9_
FNDA:0,_RNCNvMsc_NtCs9G0t2qE8rAk_9kv_engine11lsm_storageNtB7_8KvEngine21range_tombstone_stats0B9_
FNDA:0,_RNCNvMsc_NtCs9G0t2qE8rAk_9kv_engine11lsm_storageNtB7_8KvEngine5close0B9_
FNDA:0,_RNCNvMsc_NtCs9G0t2qE8rAk_9kv_engine11lsm_storageNtB7_8KvEngine5closes_0B9_
FNDA:46,_RNCNvMsd_NtCs9G0t2qE8rAk_9kv_engine11lsm_storageNtB7_15LsmStorageInner10scan_inner0B9_
FNDA:27,_RNCNvMsd_NtCs9G0t2qE8rAk_9kv_engine11lsm_storageNtB7_15LsmStorageInner10scan_inners0_0B9_
FNDA:15,_RNCNvMsd_NtCs9G0t2qE8rAk_9kv_engine11lsm_storageNtB7_15LsmStorageInner10scan_inners1_0B9_
FNDA:107,_RNCNvMsd_NtCs9G0t2qE8rAk_9kv_engine11lsm_storageNtB7_15LsmStorageInner10scan_inners4_0B9_
FNDA:44,_RNCNvMsd_NtCs9G0t2qE8rAk_9kv_engine11lsm_storageNtB7_15LsmStorageInner10scan_inners_0B9_
FNDA:2,_RNCNvMsd_NtCs9G0t2qE8rAk_9kv_engine11lsm_storageNtB7_15LsmStorageInner11get_with_ts0B9_
FNDA:0,_RNCNvMsd_NtCs9G0t2qE8rAk_9kv_engine11lsm_storageNtB7_15LsmStorageInner11get_with_tss0_0B9_
FNDA:0,_RNCNvMsd_NtCs9G0t2qE8rAk_9kv_engine11lsm_storageNtB7_15LsmStorageInner11get_with_tss_0B9_
FNDA:31,_RNCNvMsd_NtCs9G0t2qE8rAk_9kv_engine11lsm_storageNtB7_15LsmStorageInner11prefix_scan0B9_
FNDA:31,_RNCNvMsd_NtCs9G0t2qE8rAk_9kv_engine11lsm_storageNtB7_15LsmStorageInner11prefix_scans_0B9_
FNDA:0,_RNCNvMsd_NtCs9G0t2qE8rAk_9kv_engine11lsm_storageNtB7_15LsmStorageInner13resolve_value0B9_
FNDA:23,_RNCNvMsd_NtCs9G0t2qE8rAk_9kv_engine11lsm_storageNtB7_15LsmStorageInner14lookup_sst_raw0B9_
FNDA:0,_RNCNvMsd_NtCs9G0t2qE8rAk_9kv_engine11lsm_storageNtB7_15LsmStorageInner14lookup_sst_raws0_0B9_
FNDA:0,_RNCNvMsd_NtCs9G0t2qE8rAk_9kv_engine11lsm_storageNtB7_15LsmStorageInner14lookup_sst_raws1_0B9_
FNDA:24,_RNCNvMsd_NtCs9G0t2qE8rAk_9kv_engine11lsm_storageNtB7_15LsmStorageInner14lookup_sst_raws2_0B9_
FNDA:4,_RNCNvMsd_NtCs9G0t2qE8rAk_9kv_engine11lsm_storageNtB7_15LsmStorageInner14lookup_sst_raws3_0B9_
FNDA:0,_RNCNvMsd_NtCs9G0t2qE8rAk_9kv_engine11lsm_storageNtB7_15LsmStorageInner14lookup_sst_raws4_0B9_
FNDA:0,_RNCNvMsd_NtCs9G0t2qE8rAk_9kv_engine11lsm_storageNtB7_15LsmStorageInner14lookup_sst_raws5_0B9_
FNDA:5692,_RNCNvMsd_NtCs9G0t2qE8rAk_9kv_engine11lsm_storageNtB7_15LsmStorageInner14lookup_sst_raws6_0B9_
FNDA:9824,_RNCNvMsd_NtCs9G0t2qE8rAk_9kv_engine11lsm_storageNtB7_15LsmStorageInner14lookup_sst_raws7_0B9_
FNDA:9824,_RNCNvMsd_NtCs9G0t2qE8rAk_9kv_engine11lsm_storageNtB7_15LsmStorageInner14lookup_sst_raws8_0B9_
FNDA:1,_RNCNvMsd_NtCs9G0t2qE8rAk_9kv_engine11lsm_storageNtB7_15LsmStorageInner14lookup_sst_raws9_0B9_
FNDA:19,_RNCNvMsd_NtCs9G0t2qE8rAk_9kv_engine11lsm_storageNtB7_15LsmStorageInner14lookup_sst_raws_0B9_
FNDA:0,_RNCNvMsd_NtCs9G0t2qE8rAk_9kv_engine11lsm_storageNtB7_15LsmStorageInner14lookup_sst_rawsa_0B9_
FNDA:0,_RNCNvMsd_NtCs9G0t2qE8rAk_9kv_engine11lsm_storageNtB7_15LsmStorageInner14lookup_sst_rawsb_0B9_
FNDA:71,_RNCNvMsd_NtCs9G0t2qE8rAk_9kv_engine11lsm_storageNtB7_15LsmStorageInner15batch_get_small0B9_
FNDA:1,_RNCNvMsd_NtCs9G0t2qE8rAk_9kv_engine11lsm_storageNtB7_15LsmStorageInner15batch_get_smalls0_0B9_
FNDA:3,_RNCNvMsd_NtCs9G0t2qE8rAk_9kv_engine11lsm_storageNtB7_15LsmStorageInner15batch_get_smalls1_0B9_
FNDA:3,_RNCNvMsd_NtCs9G0t2qE8rAk_9kv_engine11lsm_storageNtB7_15LsmStorageInner15batch_get_smalls2_0B9_
FNDA:71,_RNCNvMsd_NtCs9G0t2qE8rAk_9kv_engine11lsm_storageNtB7_15LsmStorageInner15batch_get_smalls_0B9_
FNDA:4,_RNCNvMsd_NtCs9G0t2qE8rAk_9kv_engine11lsm_storageNtB7_15LsmStorageInner16mvcc_write_batch0B9_
FNDA:89,_RNCNvMsd_NtCs9G0t2qE8rAk_9kv_engine11lsm_storageNtB7_15LsmStorageInner19get_with_kind_at_ts0B9_
FNDA:15,_RNCNvMsd_NtCs9G0t2qE8rAk_9kv_engine11lsm_storageNtB7_15LsmStorageInner21add_compaction_filter0B9_
FNDA:0,_RNCNvMsd_NtCs9G0t2qE8rAk_9kv_engine11lsm_storageNtB7_15LsmStorageInner21batch_lookup_memtables0_0B9_
FNDA:0,_RNCNvMsd_NtCs9G0t2qE8rAk_9kv_engine11lsm_storageNtB7_15LsmStorageInner21batch_lookup_memtables_0B9_
FNDA:22,_RNCNvMsd_NtCs9G0t2qE8rAk_9kv_engine11lsm_storageNtB7_15LsmStorageInner22mvcc_write_batch_inner0B9_
FNDA:1,_RNCNvMsd_NtCs9G0t2qE8rAk_9kv_engine11lsm_storageNtB7_15LsmStorageInner23maybe_snapshot_manifest0B9_
FNDA:60,_RNCNvMsd_NtCs9G0t2qE8rAk_9kv_engine11lsm_storageNtB7_15LsmStorageInner24newest_memtable_range_ts0B9_
FNDA:0,_RNCNvMsd_NtCs9G0t2qE8rAk_9kv_engine11lsm_storageNtB7_15LsmStorageInner24resolve_vlog_value_bytes0B9_
FNDA:0,_RNCNvMsd_NtCs9G0t2qE8rAk_9kv_engine11lsm_storageNtB7_15LsmStorageInner24resolve_vlog_value_bytess_0B9_
FNDA:6,_RNCNvMsd_NtCs9G0t2qE8rAk_9kv_engine11lsm_storageNtB7_15LsmStorageInner27add_compaction_filter_inner0B9_
FNDA:39,_RNCNvMsd_NtCs9G0t2qE8rAk_9kv_engine11lsm_storageNtB7_15LsmStorageInner27compare_and_set_batch_at_ts0B9_
FNDA:39,_RNCNvMsd_NtCs9G0t2qE8rAk_9kv_engine11lsm_storageNtB7_15LsmStorageInner27compare_and_set_batch_at_tss_0B9_
FNDA:0,_RNCNvMsd_NtCs9G0t2qE8rAk_9kv_engine11lsm_storageNtB7_15LsmStorageInner29force_flush_next_imm_memtable0B9_
FNDA:5820,_RNCNvMsd_NtCs9G0t2qE8rAk_9kv_engine11lsm_storageNtB7_15LsmStorageInner3get0B9_
FNDA:15,_RNCNvMsd_NtCs9G0t2qE8rAk_9kv_engine11lsm_storageNtB7_15LsmStorageInner3gets0_0B9_
FNDA:5,_RNCNvMsd_NtCs9G0t2qE8rAk_9kv_engine11lsm_storageNtB7_15LsmStorageInner3gets1_0B9_
FNDA:17,_RNCNvMsd_NtCs9G0t2qE8rAk_9kv_engine11lsm_storageNtB7_15LsmStorageInner3gets2_0B9_
FNDA:5820,_RNCNvMsd_NtCs9G0t2qE8rAk_9kv_engine11lsm_storageNtB7_15LsmStorageInner3gets_0B9_
FNDA:23471,_RNCNvMsd_NtCs9G0t2qE8rAk_9kv_engine11lsm_storageNtB7_15LsmStorageInner3put0B9_
FNDA:44,_RNCNvMsd_NtCs9G0t2qE8rAk_9kv_engine11lsm_storageNtB7_15LsmStorageInner4scan0B9_
FNDA:44,_RNCNvMsd_NtCs9G0t2qE8rAk_9kv_engine11lsm_storageNtB7_15LsmStorageInner4scans_0B9_
FNDA:1040,_RNCNvMsd_NtCs9G0t2qE8rAk_9kv_engine11lsm_storageNtB7_15LsmStorageInner6delete0B9_
FNDA:9,_RNCNvMsd_NtCs9G0t2qE8rAk_9kv_engine11lsm_storageNtB7_15LsmStorageInner9batch_get0B9_
FNDA:0,_RNCNvMsd_NtCs9G0t2qE8rAk_9kv_engine11lsm_storageNtB7_15LsmStorageInner9batch_gets0_0B9_
FNDA:0,_RNCNvMsd_NtCs9G0t2qE8rAk_9kv_engine11lsm_storageNtB7_15LsmStorageInner9batch_gets1_0B9_
FNDA:0,_RNCNvMsd_NtCs9G0t2qE8rAk_9kv_engine11lsm_storageNtB7_15LsmStorageInner9batch_gets2_0B9_
FNDA:0,_RNCNvMsd_NtCs9G0t2qE8rAk_9kv_engine11lsm_storageNtB7_15LsmStorageInner9batch_gets3_0B9_
FNDA:0,_RNCNvMsd_NtCs9G0t2qE8rAk_9kv_engine11lsm_storageNtB7_15LsmStorageInner9batch_gets4_0B9_
FNDA:0,_RNCNvMsd_NtCs9G0t2qE8rAk_9kv_engine11lsm_storageNtB7_15LsmStorageInner9batch_gets5_0B9_
FNDA:0,_RNCNvMsd_NtCs9G0t2qE8rAk_9kv_engine11lsm_storageNtB7_15LsmStorageInner9batch_gets8_0B9_
FNDA:0,_RNCNvMsd_NtCs9G0t2qE8rAk_9kv_engine11lsm_storageNtB7_15LsmStorageInner9batch_gets9_0B9_
FNDA:9,_RNCNvMsd_NtCs9G0t2qE8rAk_9kv_engine11lsm_storageNtB7_15LsmStorageInner9batch_gets_0B9_
FNDA:0,_RNCNvMsd_NtCs9G0t2qE8rAk_9kv_engine11lsm_storageNtB7_15LsmStorageInner9batch_getsc_0B9_
FNDA:0,_RNCNvMsd_NtCs9G0t2qE8rAk_9kv_engine11lsm_storageNtB7_15LsmStorageInner9batch_getsd_0B9_
FNDA:0,_RNCNvMsd_NtCs9G0t2qE8rAk_9kv_engine11lsm_storageNtB7_15LsmStorageInner9batch_getse_0B9_
FNDA:0,_RNCNvMsd_NtCs9G0t2qE8rAk_9kv_engine11lsm_storageNtB7_15LsmStorageInner9batch_getsf_0B9_
FNDA:0,_RNCNvMsd_NtCs9G0t2qE8rAk_9kv_engine11lsm_storageNtB7_15LsmStorageInner9batch_getsg_0B9_
FNDA:0,_RNCNvMsd_NtCs9G0t2qE8rAk_9kv_engine11lsm_storageNtB7_15LsmStorageInner9batch_getsh_0B9_
FNDA:269,_RNvMNtCs9G0t2qE8rAk_9kv_engine11lsm_storageNtB2_15LsmStorageState6create
FNDA:269,_RNvMs1_NtCs9G0t2qE8rAk_9kv_engine11lsm_storageNtB5_18PrefixBloomOptions8validate
FNDA:190,_RNvMs3_NtCs9G0t2qE8rAk_9kv_engine11lsm_storageNtB5_17LsmStorageOptions16default_for_test
FNDA:5,_RNvMs5_NtCs9G0t2qE8rAk_9kv_engine11lsm_storageNtB5_25InstalledCompactionFilter4info
FNDA:10,_RNvMs5_NtCs9G0t2qE8rAk_9kv_engine11lsm_storageNtB5_25InstalledCompactionFilter7matches
FNDA:5916,_RNvMs7_NtCs9G0t2qE8rAk_9kv_engine11lsm_storageNtB5_25RangeTombstoneAtomicStats11note_lookup
FNDA:8,_RNvMs7_NtCs9G0t2qE8rAk_9kv_engine11lsm_storageNtB5_25RangeTombstoneAtomicStats17note_covered_drop
FNDA:1,_RNvMs7_NtCs9G0t2qE8rAk_9kv_engine11lsm_storageNtB5_25RangeTombstoneAtomicStats22note_tombstone_drops_n
FNDA:52,_RNvMs7_NtCs9G0t2qE8rAk_9kv_engine11lsm_storageNtB5_25RangeTombstoneAtomicStats8note_hit
FNDA:4,_RNvMs7_NtCs9G0t2qE8rAk_9kv_engine11lsm_storageNtB5_25RangeTombstoneAtomicStats8snapshot
FNDA:10,_RNvMs9_NtCs9G0t2qE8rAk_9kv_engine11lsm_storageNtB5_27CompactionFilterAtomicStats10note_check
FNDA:2,_RNvMs9_NtCs9G0t2qE8rAk_9kv_engine11lsm_storageNtB5_27CompactionFilterAtomicStats8snapshot
FNDA:4,_RNvMs9_NtCs9G0t2qE8rAk_9kv_engine11lsm_storageNtB5_27CompactionFilterAtomicStats9note_drop
FNDA:54,_RNvMs_NtCs9G0t2qE8rAk_9kv_engine11lsm_storageNtB4_21ManifestRecoveryState22replay_manifest_record
FNDA:53,_RNvMsa_NtCs9G0t2qE8rAk_9kv_engine11lsm_storageNtB5_24CompactionFilterRegistry16snapshot_filters
FNDA:4,_RNvMsa_NtCs9G0t2qE8rAk_9kv_engine11lsm_storageNtB5_24CompactionFilterRegistry4list
FNDA:6,_RNvMsc_NtCs9G0t2qE8rAk_9kv_engine11lsm_storageNtB5_8KvEngine10trigger_gc
FNDA:15,_RNvMsc_NtCs9G0t2qE8rAk_9kv_engine11lsm_storageNtB5_8KvEngine10vlog_stats
FNDA:2,_RNvMsc_NtCs9G0t2qE8rAk_9kv_engine11lsm_storageNtB5_8KvEngine11cache_stats
FNDA:2,_RNvMsc_NtCs9G0t2qE8rAk_9kv_engine11lsm_storageNtB5_8KvEngine11drain_flush
FNDA:20,_RNvMsc_NtCs9G0t2qE8rAk_9kv_engine11lsm_storageNtB5_8KvEngine11force_flush
FNDA:32,_RNvMsc_NtCs9G0t2qE8rAk_9kv_engine11lsm_storageNtB5_8KvEngine11prefix_scan
FNDA:9,_RNvMsc_NtCs9G0t2qE8rAk_9kv_engine11lsm_storageNtB5_8KvEngine12delete_range
FNDA:5,_RNvMsc_NtCs9G0t2qE8rAk_9kv_engine11lsm_storageNtB5_8KvEngine21add_compaction_filter
FNDA:12,_RNvMsc_NtCs9G0t2qE8rAk_9kv_engine11lsm_storageNtB5_8KvEngine21force_full_compaction
FNDA:4,_RNvMsc_NtCs9G0t2qE8rAk_9kv_engine11lsm_storageNtB5_8KvEngine21range_tombstone_stats
FNDA:2,_RNvMsc_NtCs9G0t2qE8rAk_9kv_engine11lsm_storageNtB5_8KvEngine23compaction_filter_stats
FNDA:2,_RNvMsc_NtCs9G0t2qE8rAk_9kv_engine11lsm_storageNtB5_8KvEngine23list_compaction_filters
FNDA:2,_RNvMsc_NtCs9G0t2qE8rAk_9kv_engine11lsm_storageNtB5_8KvEngine24remove_compaction_filter
FNDA:4,_RNvMsc_NtCs9G0t2qE8rAk_9kv_engine11lsm_storageNtB5_8KvEngine33add_compaction_filter_with_cutoff
FNDA:5738,_RNvMsc_NtCs9G0t2qE8rAk_9kv_engine11lsm_storageNtB5_8KvEngine3get
FNDA:12330,_RNvMsc_NtCs9G0t2qE8rAk_9kv_engine11lsm_storageNtB5_8KvEngine3put
FNDA:21,_RNvMsc_NtCs9G0t2qE8rAk_9kv_engine11lsm_storageNtB5_8KvEngine4scan
FNDA:6,_RNvMsc_NtCs9G0t2qE8rAk_9kv_engine11lsm_storageNtB5_8KvEngine5close
FNDA:17,_RNvMsc_NtCs9G0t2qE8rAk_9kv_engine11lsm_storageNtB5_8KvEngine6delete
FNDA:42,_RNvMsc_NtCs9G0t2qE8rAk_9kv_engine11lsm_storageNtB5_8KvEngine7new_txn
FNDA:11,_RNvMsc_NtCs9G0t2qE8rAk_9kv_engine11lsm_storageNtB5_8KvEngine9batch_get
FNDA:79,_RNvMsd_NtCs9G0t2qE8rAk_9kv_engine11lsm_storageNtB5_15LsmStorageInner10scan_inner
FNDA:25,_RNvMsd_NtCs9G0t2qE8rAk_9kv_engine11lsm_storageNtB5_15LsmStorageInner11get_with_ts
FNDA:305,_RNvMsd_NtCs9G0t2qE8rAk_9kv_engine11lsm_storageNtB5_15LsmStorageInner11next_sst_id
FNDA:337,_RNvMsd_NtCs9G0t2qE8rAk_9kv_engine11lsm_storageNtB5_15LsmStorageInner11path_of_sst
FNDA:21,_RNvMsd_NtCs9G0t2qE8rAk_9kv_engine11lsm_storageNtB5_15LsmStorageInner11path_of_wal
FNDA:33,_RNvMsd_NtCs9G0t2qE8rAk_9kv_engine11lsm_storageNtB5_15LsmStorageInner11prefix_scan
FNDA:16,_RNvMsd_NtCs9G0t2qE8rAk_9kv_engine11lsm_storageNtB5_15LsmStorageInner12record_write
FNDA:2,_RNvMsd_NtCs9G0t2qE8rAk_9kv_engine11lsm_storageNtB5_15LsmStorageInner12scan_with_ts
FNDA:39,_RNvMsd_NtCs9G0t2qE8rAk_9kv_engine11lsm_storageNtB5_15LsmStorageInner12values_match
FNDA:5832,_RNvMsd_NtCs9G0t2qE8rAk_9kv_engine11lsm_storageNtB5_15LsmStorageInner13resolve_value
FNDA:5692,_RNvMsd_NtCs9G0t2qE8rAk_9kv_engine11lsm_storageNtB5_15LsmStorageInner14lookup_sst_raw
FNDA:9,_RNvMsd_NtCs9G0t2qE8rAk_9kv_engine11lsm_storageNtB5_15LsmStorageInner15batch_get_small
FNDA:5845,_RNvMsd_NtCs9G0t2qE8rAk_9kv_engine11lsm_storageNtB5_15LsmStorageInner15lookup_memtable
FNDA:3,_RNvMsd_NtCs9G0t2qE8rAk_9kv_engine11lsm_storageNtB5_15LsmStorageInner16mvcc_write_batch
FNDA:5996,_RNvMsd_NtCs9G0t2qE8rAk_9kv_engine11lsm_storageNtB5_15LsmStorageInner16parse_value_kind
FNDA:39,_RNvMsd_NtCs9G0t2qE8rAk_9kv_engine11lsm_storageNtB5_15LsmStorageInner17encode_kind_value
FNDA:24628,_RNvMsd_NtCs9G0t2qE8rAk_9kv_engine11lsm_storageNtB5_15LsmStorageInner17validate_key_size
FNDA:147,_RNvMsd_NtCs9G0t2qE8rAk_9kv_engine11lsm_storageNtB5_15LsmStorageInner19get_with_kind_at_ts
FNDA:5687,_RNvMsd_NtCs9G0t2qE8rAk_9kv_engine11lsm_storageNtB5_15LsmStorageInner19newest_sst_range_ts
FNDA:24583,_RNvMsd_NtCs9G0t2qE8rAk_9kv_engine11lsm_storageNtB5_15LsmStorageInner19try_freeze_memtable
FNDA:15,_RNvMsd_NtCs9G0t2qE8rAk_9kv_engine11lsm_storageNtB5_15LsmStorageInner21add_compaction_filter
FNDA:0,_RNvMsd_NtCs9G0t2qE8rAk_9kv_engine11lsm_storageNtB5_15LsmStorageInner21batch_lookup_memtable
FNDA:40,_RNvMsd_NtCs9G0t2qE8rAk_9kv_engine11lsm_storageNtB5_15LsmStorageInner21delete_range_internal
FNDA:252,_RNvMsd_NtCs9G0t2qE8rAk_9kv_engine11lsm_storageNtB5_15LsmStorageInner21force_freeze_memtable
FNDA:2,_RNvMsd_NtCs9G0t2qE8rAk_9kv_engine11lsm_storageNtB5_15LsmStorageInner21scan_with_prefix_hint
FNDA:18,_RNvMsd_NtCs9G0t2qE8rAk_9kv_engine11lsm_storageNtB5_15LsmStorageInner22mvcc_write_batch_inner
FNDA:2,_RNvMsd_NtCs9G0t2qE8rAk_9kv_engine11lsm_storageNtB5_15LsmStorageInner23compaction_filter_stats
FNDA:4,_RNvMsd_NtCs9G0t2qE8rAk_9kv_engine11lsm_storageNtB5_15LsmStorageInner23list_compaction_filters
FNDA:519,_RNvMsd_NtCs9G0t2qE8rAk_9kv_engine11lsm_storageNtB5_15LsmStorageInner23maybe_snapshot_manifest
FNDA:6,_RNvMsd_NtCs9G0t2qE8rAk_9kv_engine11lsm_storageNtB5_15LsmStorageInner23scan_overlaps_fragments
FNDA:5845,_RNvMsd_NtCs9G0t2qE8rAk_9kv_engine11lsm_storageNtB5_15LsmStorageInner24newest_memtable_range_ts
FNDA:4,_RNvMsd_NtCs9G0t2qE8rAk_9kv_engine11lsm_storageNtB5_15LsmStorageInner24remove_compaction_filter
FNDA:101,_RNvMsd_NtCs9G0t2qE8rAk_9kv_engine11lsm_storageNtB5_15LsmStorageInner24resolve_vlog_value_bytes
FNDA:19,_RNvMsd_NtCs9G0t2qE8rAk_9kv_engine11lsm_storageNtB5_15LsmStorageInner27add_compaction_filter_inner
FNDA:13,_RNvMsd_NtCs9G0t2qE8rAk_9kv_engine11lsm_storageNtB5_15LsmStorageInner27compare_and_set_batch_at_ts
FNDA:46,_RNvMsd_NtCs9G0t2qE8rAk_9kv_engine11lsm_storageNtB5_15LsmStorageInner27snapshot_compaction_filters
FNDA:199,_RNvMsd_NtCs9G0t2qE8rAk_9kv_engine11lsm_storageNtB5_15LsmStorageInner29force_flush_next_imm_memtable
FNDA:4,_RNvMsd_NtCs9G0t2qE8rAk_9kv_engine11lsm_storageNtB5_15LsmStorageInner29record_compaction_filter_drop
FNDA:258,_RNvMsd_NtCs9G0t2qE8rAk_9kv_engine11lsm_storageNtB5_15LsmStorageInner30force_freeze_with_new_memtable
FNDA:10,_RNvMsd_NtCs9G0t2qE8rAk_9kv_engine11lsm_storageNtB5_15LsmStorageInner30record_compaction_filter_check
FNDA:5,_RNvMsd_NtCs9G0t2qE8rAk_9kv_engine11lsm_storageNtB5_15LsmStorageInner33add_compaction_filter_with_cutoff
FNDA:19,_RNvMsd_NtCs9G0t2qE8rAk_9kv_engine11lsm_storageNtB5_15LsmStorageInner34validate_compaction_filter_request
FNDA:5820,_RNvMsd_NtCs9G0t2qE8rAk_9kv_engine11lsm_storageNtB5_15LsmStorageInner3get
FNDA:23473,_RNvMsd_NtCs9G0t2qE8rAk_9kv_engine11lsm_storageNtB5_15LsmStorageInner3put
FNDA:44,_RNvMsd_NtCs9G0t2qE8rAk_9kv_engine11lsm_storageNtB5_15LsmStorageInner4scan
FNDA:0,_RNvMsd_NtCs9G0t2qE8rAk_9kv_engine11lsm_storageNtB5_15LsmStorageInner4sync
FNDA:1040,_RNvMsd_NtCs9G0t2qE8rAk_9kv_engine11lsm_storageNtB5_15LsmStorageInner6delete
FNDA:47,_RNvMsd_NtCs9G0t2qE8rAk_9kv_engine11lsm_storageNtB5_15LsmStorageInner7new_txn
FNDA:79,_RNvMsd_NtCs9G0t2qE8rAk_9kv_engine11lsm_storageNtB5_15LsmStorageInner8into_vec
FNDA:759,_RNvMsd_NtCs9G0t2qE8rAk_9kv_engine11lsm_storageNtB5_15LsmStorageInner8sync_dir
FNDA:11,_RNvMsd_NtCs9G0t2qE8rAk_9kv_engine11lsm_storageNtB5_15LsmStorageInner9batch_get
FNDA:39,_RNvNtCs9G0t2qE8rAk_9kv_engine11lsm_storage18prefix_upper_bound
FNDA:253,_RNvXs0_NtCs9G0t2qE8rAk_9kv_engine11lsm_storageNtB5_18PrefixBloomOptionsNtNtCslfAf2Mv2Tp5_4core7default7Default7default
FNDA:190,_RNvXs2_NtCs9G0t2qE8rAk_9kv_engine11lsm_storageNtB5_17LsmStorageOptionsNtNtCslfAf2Mv2Tp5_4core7default7Default7default
FNDA:264,_RNvXs6_NtCs9G0t2qE8rAk_9kv_engine11lsm_storageNtB5_25RangeTombstoneAtomicStatsNtNtCslfAf2Mv2Tp5_4core7default7Default7default
FNDA:264,_RNvXs8_NtCs9G0t2qE8rAk_9kv_engine11lsm_storageNtB5_27CompactionFilterAtomicStatsNtNtCslfAf2Mv2Tp5_4core7default7Default7default
FNDA:0,_RINvMsc_NtCshcgQatfXnqn_9kv_engine11lsm_storageNtB6_8KvEngine4openRNtNtCskaANe6KdTWL_3std4path7PathBufECsjsmMyPGR1S6_10write_perf
FNDA:0,_RINvMsd_NtCshcgQatfXnqn_9kv_engine11lsm_storageNtB6_15LsmStorageInner18path_of_sst_staticRNtNtCskaANe6KdTWL_3std4path4PathECsjsmMyPGR1S6_10write_perf
FNDA:0,_RINvMsd_NtCshcgQatfXnqn_9kv_engine11lsm_storageNtB6_15LsmStorageInner18path_of_wal_staticRNtNtCskaANe6KdTWL_3std4path4PathECsjsmMyPGR1S6_10write_perf
FNDA:0,_RINvMsd_NtCshcgQatfXnqn_9kv_engine11lsm_storageNtB6_15LsmStorageInner4openRNtNtCskaANe6KdTWL_3std4path7PathBufECsjsmMyPGR1S6_10write_perf
FNDA:0,_RNCINvMsd_NtCshcgQatfXnqn_9kv_engine11lsm_storageNtB8_15LsmStorageInner4openRNtNtCskaANe6KdTWL_3std4path7PathBufEs1_0CsjsmMyPGR1S6_10write_perf
FNDA:0,_RNCINvMsd_NtCshcgQatfXnqn_9kv_engine11lsm_storageNtB8_15LsmStorageInner4openRNtNtCskaANe6KdTWL_3std4path7PathBufEs2_0CsjsmMyPGR1S6_10write_perf
FNDA:0,_RNCINvMsd_NtCshcgQatfXnqn_9kv_engine11lsm_storageNtB8_15LsmStorageInner4openRNtNtCskaANe6KdTWL_3std4path7PathBufEs3_0CsjsmMyPGR1S6_10write_perf
FNDA:0,_RNCINvMsd_NtCshcgQatfXnqn_9kv_engine11lsm_storageNtB8_15LsmStorageInner4openRNtNtCskaANe6KdTWL_3std4path7PathBufEs4_0CsjsmMyPGR1S6_10write_perf
FNDA:0,_RNCINvMsd_NtCshcgQatfXnqn_9kv_engine11lsm_storageNtB8_15LsmStorageInner4openRNtNtCskaANe6KdTWL_3std4path7PathBufEs6_0CsjsmMyPGR1S6_10write_perf
FNDA:0,_RINvMs4_NtCshcgQatfXnqn_9kv_engine11lsm_storageNtB6_23CompactionFilterRequest6prefixpEB8_
FNDA:0,_RINvMsc_NtCshcgQatfXnqn_9kv_engine11lsm_storageNtB6_8KvEngine11write_batchpEB8_
FNDA:0,_RINvMsc_NtCshcgQatfXnqn_9kv_engine11lsm_storageNtB6_8KvEngine4openpEB8_
FNDA:0,_RINvMsd_NtCshcgQatfXnqn_9kv_engine11lsm_storageNtB6_15LsmStorageInner11write_batchpEB8_
FNDA:0,_RINvMsd_NtCshcgQatfXnqn_9kv_engine11lsm_storageNtB6_15LsmStorageInner4openpEB8_
FNDA:0,_RNCINvMsd_NtCshcgQatfXnqn_9kv_engine11lsm_storageNtB8_15LsmStorageInner11write_batchpE0Ba_
FNDA:0,_RNCINvMsd_NtCshcgQatfXnqn_9kv_engine11lsm_storageNtB8_15LsmStorageInner11write_batchpEs0_0Ba_
FNDA:0,_RNCINvMsd_NtCshcgQatfXnqn_9kv_engine11lsm_storageNtB8_15LsmStorageInner11write_batchpEs1_0Ba_
FNDA:0,_RNCINvMsd_NtCshcgQatfXnqn_9kv_engine11lsm_storageNtB8_15LsmStorageInner11write_batchpEs2_0Ba_
FNDA:0,_RNCINvMsd_NtCshcgQatfXnqn_9kv_engine11lsm_storageNtB8_15LsmStorageInner11write_batchpEs3_0Ba_
FNDA:0,_RNCINvMsd_NtCshcgQatfXnqn_9kv_engine11lsm_storageNtB8_15LsmStorageInner11write_batchpEs4_0Ba_
FNDA:0,_RNCINvMsd_NtCshcgQatfXnqn_9kv_engine11lsm_storageNtB8_15LsmStorageInner11write_batchpEs5_0Ba_
FNDA:0,_RNCINvMsd_NtCshcgQatfXnqn_9kv_engine11lsm_storageNtB8_15LsmStorageInner11write_batchpEs6_0Ba_
FNDA:0,_RNCINvMsd_NtCshcgQatfXnqn_9kv_engine11lsm_storageNtB8_15LsmStorageInner11write_batchpEs_0Ba_
FNDA:0,_RNCINvMsd_NtCshcgQatfXnqn_9kv_engine11lsm_storageNtB8_15LsmStorageInner4openpEs1_0Ba_
FNDA:0,_RNCINvMsd_NtCshcgQatfXnqn_9kv_engine11lsm_storageNtB8_15LsmStorageInner4openpEs2_0Ba_
FNDA:0,_RNCINvMsd_NtCshcgQatfXnqn_9kv_engine11lsm_storageNtB8_15LsmStorageInner4openpEs3_0Ba_
FNDA:0,_RNCINvMsd_NtCshcgQatfXnqn_9kv_engine11lsm_storageNtB8_15LsmStorageInner4openpEs4_0Ba_
FNDA:0,_RNCINvMsd_NtCshcgQatfXnqn_9kv_engine11lsm_storageNtB8_15LsmStorageInner4openpEs6_0Ba_
FNDA:0,_RNCNvMsd_NtCshcgQatfXnqn_9kv_engine11lsm_storageNtB7_15LsmStorageInner19get_with_kind_inner0B9_
FNDA:0,_RNCNvMsd_NtCshcgQatfXnqn_9kv_engine11lsm_storageNtB7_15LsmStorageInner19get_with_kind_inners0_0B9_
FNDA:0,_RNCNvMsd_NtCshcgQatfXnqn_9kv_engine11lsm_storageNtB7_15LsmStorageInner19get_with_kind_inners1_0B9_
FNDA:0,_RNCNvMsd_NtCshcgQatfXnqn_9kv_engine11lsm_storageNtB7_15LsmStorageInner19get_with_kind_inners2_0B9_
FNDA:0,_RNCNvMsd_NtCshcgQatfXnqn_9kv_engine11lsm_storageNtB7_15LsmStorageInner19get_with_kind_inners_0B9_
FNDA:0,_RNCNvMsd_NtCshcgQatfXnqn_9kv_engine11lsm_storageNtB7_15LsmStorageInner31compare_and_set_batch_with_kind0B9_
FNDA:0,_RNvMsd_NtCshcgQatfXnqn_9kv_engine11lsm_storageNtB5_15LsmStorageInner13get_with_kind
FNDA:0,_RNvMsd_NtCshcgQatfXnqn_9kv_engine11lsm_storageNtB5_15LsmStorageInner19get_with_kind_inner
FNDA:0,_RNvMsd_NtCshcgQatfXnqn_9kv_engine11lsm_storageNtB5_15LsmStorageInner25compare_and_set_with_kind
FNDA:0,_RNvMsd_NtCshcgQatfXnqn_9kv_engine11lsm_storageNtB5_15LsmStorageInner31compare_and_set_batch_with_kind
FNDA:0,_RNvMNtCshcgQatfXnqn_9kv_engine11lsm_storageNtB2_15LsmStorageState6create
FNDA:0,_RNvMs1_NtCshcgQatfXnqn_9kv_engine11lsm_storageNtB5_18PrefixBloomOptions8validate
FNDA:0,_RNvMs3_NtCshcgQatfXnqn_9kv_engine11lsm_storageNtB5_17LsmStorageOptions16default_for_test
FNDA:0,_RNvMs3_NtCshcgQatfXnqn_9kv_engine11lsm_storageNtB5_17LsmStorageOptions27default_for_compaction_test
FNDA:0,_RNvMs3_NtCshcgQatfXnqn_9kv_engine11lsm_storageNtB5_17LsmStorageOptions27default_for_scan_flush_test
FNDA:0,_RNvMs5_NtCshcgQatfXnqn_9kv_engine11lsm_storageNtB5_25InstalledCompactionFilter4info
FNDA:0,_RNvMs5_NtCshcgQatfXnqn_9kv_engine11lsm_storageNtB5_25InstalledCompactionFilter7matches
FNDA:0,_RNvMs7_NtCshcgQatfXnqn_9kv_engine11lsm_storageNtB5_25RangeTombstoneAtomicStats11note_lookup
FNDA:0,_RNvMs7_NtCshcgQatfXnqn_9kv_engine11lsm_storageNtB5_25RangeTombstoneAtomicStats17note_covered_drop
FNDA:0,_RNvMs7_NtCshcgQatfXnqn_9kv_engine11lsm_storageNtB5_25RangeTombstoneAtomicStats22note_tombstone_drops_n
FNDA:0,_RNvMs7_NtCshcgQatfXnqn_9kv_engine11lsm_storageNtB5_25RangeTombstoneAtomicStats8note_hit
FNDA:0,_RNvMs7_NtCshcgQatfXnqn_9kv_engine11lsm_storageNtB5_25RangeTombstoneAtomicStats8snapshot
FNDA:0,_RNvMs9_NtCshcgQatfXnqn_9kv_engine11lsm_storageNtB5_27CompactionFilterAtomicStats10note_check
FNDA:0,_RNvMs9_NtCshcgQatfXnqn_9kv_engine11lsm_storageNtB5_27CompactionFilterAtomicStats8snapshot
FNDA:0,_RNvMs9_NtCshcgQatfXnqn_9kv_engine11lsm_storageNtB5_27CompactionFilterAtomicStats9note_drop
FNDA:0,_RNvMs_NtCshcgQatfXnqn_9kv_engine11lsm_storageNtB4_21ManifestRecoveryState22replay_manifest_record
FNDA:0,_RNvMsa_NtCshcgQatfXnqn_9kv_engine11lsm_storageNtB5_24CompactionFilterRegistry16snapshot_filters
FNDA:0,_RNvMsa_NtCshcgQatfXnqn_9kv_engine11lsm_storageNtB5_24CompactionFilterRegistry4list
FNDA:0,_RNvMsc_NtCshcgQatfXnqn_9kv_engine11lsm_storageNtB5_8KvEngine10trigger_gc
FNDA:0,_RNvMsc_NtCshcgQatfXnqn_9kv_engine11lsm_storageNtB5_8KvEngine10vlog_stats
FNDA:0,_RNvMsc_NtCshcgQatfXnqn_9kv_engine11lsm_storageNtB5_8KvEngine11cache_stats
FNDA:0,_RNvMsc_NtCshcgQatfXnqn_9kv_engine11lsm_storageNtB5_8KvEngine11drain_flush
FNDA:0,_RNvMsc_NtCshcgQatfXnqn_9kv_engine11lsm_storageNtB5_8KvEngine11force_flush
FNDA:0,_RNvMsc_NtCshcgQatfXnqn_9kv_engine11lsm_storageNtB5_8KvEngine11prefix_scan
FNDA:0,_RNvMsc_NtCshcgQatfXnqn_9kv_engine11lsm_storageNtB5_8KvEngine12delete_range
FNDA:0,_RNvMsc_NtCshcgQatfXnqn_9kv_engine11lsm_storageNtB5_8KvEngine13write_profile
FNDA:0,_RNvMsc_NtCshcgQatfXnqn_9kv_engine11lsm_storageNtB5_8KvEngine21add_compaction_filter
FNDA:0,_RNvMsc_NtCshcgQatfXnqn_9kv_engine11lsm_storageNtB5_8KvEngine21force_full_compaction
FNDA:0,_RNvMsc_NtCshcgQatfXnqn_9kv_engine11lsm_storageNtB5_8KvEngine21range_tombstone_stats
FNDA:0,_RNvMsc_NtCshcgQatfXnqn_9kv_engine11lsm_storageNtB5_8KvEngine23compaction_filter_stats
FNDA:0,_RNvMsc_NtCshcgQatfXnqn_9kv_engine11lsm_storageNtB5_8KvEngine23list_compaction_filters
FNDA:0,_RNvMsc_NtCshcgQatfXnqn_9kv_engine11lsm_storageNtB5_8KvEngine24remove_compaction_filter
FNDA:0,_RNvMsc_NtCshcgQatfXnqn_9kv_engine11lsm_storageNtB5_8KvEngine33add_compaction_filter_with_cutoff
FNDA:0,_RNvMsc_NtCshcgQatfXnqn_9kv_engine11lsm_storageNtB5_8KvEngine3get
FNDA:0,_RNvMsc_NtCshcgQatfXnqn_9kv_engine11lsm_storageNtB5_8KvEngine3put
FNDA:0,_RNvMsc_NtCshcgQatfXnqn_9kv_engine11lsm_storageNtB5_8KvEngine4scan
FNDA:0,_RNvMsc_NtCshcgQatfXnqn_9kv_engine11lsm_storageNtB5_8KvEngine4sync
FNDA:0,_RNvMsc_NtCshcgQatfXnqn_9kv_engine11lsm_storageNtB5_8KvEngine5close
FNDA:0,_RNvMsc_NtCshcgQatfXnqn_9kv_engine11lsm_storageNtB5_8KvEngine6delete
FNDA:0,_RNvMsc_NtCshcgQatfXnqn_9kv_engine11lsm_storageNtB5_8KvEngine7new_txn
FNDA:0,_RNvMsc_NtCshcgQatfXnqn_9kv_engine11lsm_storageNtB5_8KvEngine9batch_get
FNDA:0,_RNvMsd_NtCshcgQatfXnqn_9kv_engine11lsm_storageNtB5_15LsmStorageInner10scan_inner
FNDA:0,_RNvMsd_NtCshcgQatfXnqn_9kv_engine11lsm_storageNtB5_15LsmStorageInner11get_with_ts
FNDA:0,_RNvMsd_NtCshcgQatfXnqn_9kv_engine11lsm_storageNtB5_15LsmStorageInner11next_sst_id
FNDA:0,_RNvMsd_NtCshcgQatfXnqn_9kv_engine11lsm_storageNtB5_15LsmStorageInner11path_of_sst
FNDA:0,_RNvMsd_NtCshcgQatfXnqn_9kv_engine11lsm_storageNtB5_15LsmStorageInner11path_of_wal
FNDA:0,_RNvMsd_NtCshcgQatfXnqn_9kv_engine11lsm_storageNtB5_15LsmStorageInner11prefix_scan
FNDA:0,_RNvMsd_NtCshcgQatfXnqn_9kv_engine11lsm_storageNtB5_15LsmStorageInner12record_write
FNDA:0,_RNvMsd_NtCshcgQatfXnqn_9kv_engine11lsm_storageNtB5_15LsmStorageInner12scan_with_ts
FNDA:0,_RNvMsd_NtCshcgQatfXnqn_9kv_engine11lsm_storageNtB5_15LsmStorageInner12values_match
FNDA:0,_RNvMsd_NtCshcgQatfXnqn_9kv_engine11lsm_storageNtB5_15LsmStorageInner13resolve_value
FNDA:0,_RNvMsd_NtCshcgQatfXnqn_9kv_engine11lsm_storageNtB5_15LsmStorageInner14lookup_sst_raw
FNDA:0,_RNvMsd_NtCshcgQatfXnqn_9kv_engine11lsm_storageNtB5_15LsmStorageInner15batch_get_small
FNDA:0,_RNvMsd_NtCshcgQatfXnqn_9kv_engine11lsm_storageNtB5_15LsmStorageInner15lookup_memtable
FNDA:0,_RNvMsd_NtCshcgQatfXnqn_9kv_engine11lsm_storageNtB5_15LsmStorageInner16mvcc_write_batch
FNDA:0,_RNvMsd_NtCshcgQatfXnqn_9kv_engine11lsm_storageNtB5_15LsmStorageInner16parse_value_kind
FNDA:0,_RNvMsd_NtCshcgQatfXnqn_9kv_engine11lsm_storageNtB5_15LsmStorageInner17encode_kind_value
FNDA:0,_RNvMsd_NtCshcgQatfXnqn_9kv_engine11lsm_storageNtB5_15LsmStorageInner17validate_key_size
FNDA:0,_RNvMsd_NtCshcgQatfXnqn_9kv_engine11lsm_storageNtB5_15LsmStorageInner19get_with_kind_at_ts
FNDA:0,_RNvMsd_NtCshcgQatfXnqn_9kv_engine11lsm_storageNtB5_15LsmStorageInner19newest_sst_range_ts
FNDA:0,_RNvMsd_NtCshcgQatfXnqn_9kv_engine11lsm_storageNtB5_15LsmStorageInner19try_freeze_memtable
FNDA:0,_RNvMsd_NtCshcgQatfXnqn_9kv_engine11lsm_storageNtB5_15LsmStorageInner21add_compaction_filter
FNDA:0,_RNvMsd_NtCshcgQatfXnqn_9kv_engine11lsm_storageNtB5_15LsmStorageInner21batch_lookup_memtable
FNDA:0,_RNvMsd_NtCshcgQatfXnqn_9kv_engine11lsm_storageNtB5_15LsmStorageInner21delete_range_internal
FNDA:0,_RNvMsd_NtCshcgQatfXnqn_9kv_engine11lsm_storageNtB5_15LsmStorageInner21force_freeze_memtable
FNDA:0,_RNvMsd_NtCshcgQatfXnqn_9kv_engine11lsm_storageNtB5_15LsmStorageInner21scan_with_prefix_hint
FNDA:0,_RNvMsd_NtCshcgQatfXnqn_9kv_engine11lsm_storageNtB5_15LsmStorageInner22mvcc_write_batch_inner
FNDA:0,_RNvMsd_NtCshcgQatfXnqn_9kv_engine11lsm_storageNtB5_15LsmStorageInner23compaction_filter_stats
FNDA:0,_RNvMsd_NtCshcgQatfXnqn_9kv_engine11lsm_storageNtB5_15LsmStorageInner23list_compaction_filters
FNDA:0,_RNvMsd_NtCshcgQatfXnqn_9kv_engine11lsm_storageNtB5_15LsmStorageInner23maybe_snapshot_manifest
FNDA:0,_RNvMsd_NtCshcgQatfXnqn_9kv_engine11lsm_storageNtB5_15LsmStorageInner23scan_overlaps_fragments
FNDA:0,_RNvMsd_NtCshcgQatfXnqn_9kv_engine11lsm_storageNtB5_15LsmStorageInner24newest_memtable_range_ts
FNDA:0,_RNvMsd_NtCshcgQatfXnqn_9kv_engine11lsm_storageNtB5_15LsmStorageInner24remove_compaction_filter
FNDA:0,_RNvMsd_NtCshcgQatfXnqn_9kv_engine11lsm_storageNtB5_15LsmStorageInner24resolve_vlog_value_bytes
FNDA:0,_RNvMsd_NtCshcgQatfXnqn_9kv_engine11lsm_storageNtB5_15LsmStorageInner27add_compaction_filter_inner
FNDA:0,_RNvMsd_NtCshcgQatfXnqn_9kv_engine11lsm_storageNtB5_15LsmStorageInner27compare_and_set_batch_at_ts
FNDA:0,_RNvMsd_NtCshcgQatfXnqn_9kv_engine11lsm_storageNtB5_15LsmStorageInner27snapshot_compaction_filters
FNDA:0,_RNvMsd_NtCshcgQatfXnqn_9kv_engine11lsm_storageNtB5_15LsmStorageInner29force_flush_next_imm_memtable
FNDA:0,_RNvMsd_NtCshcgQatfXnqn_9kv_engine11lsm_storageNtB5_15LsmStorageInner29record_compaction_filter_drop
FNDA:0,_RNvMsd_NtCshcgQatfXnqn_9kv_engine11lsm_storageNtB5_15LsmStorageInner30force_freeze_with_new_memtable
FNDA:0,_RNvMsd_NtCshcgQatfXnqn_9kv_engine11lsm_storageNtB5_15LsmStorageInner30record_compaction_filter_check
FNDA:0,_RNvMsd_NtCshcgQatfXnqn_9kv_engine11lsm_storageNtB5_15LsmStorageInner33add_compaction_filter_with_cutoff
FNDA:0,_RNvMsd_NtCshcgQatfXnqn_9kv_engine11lsm_storageNtB5_15LsmStorageInner34validate_compaction_filter_request
FNDA:0,_RNvMsd_NtCshcgQatfXnqn_9kv_engine11lsm_storageNtB5_15LsmStorageInner3get
FNDA:0,_RNvMsd_NtCshcgQatfXnqn_9kv_engine11lsm_storageNtB5_15LsmStorageInner3put
FNDA:0,_RNvMsd_NtCshcgQatfXnqn_9kv_engine11lsm_storageNtB5_15LsmStorageInner4scan
FNDA:0,_RNvMsd_NtCshcgQatfXnqn_9kv_engine11lsm_storageNtB5_15LsmStorageInner4sync
FNDA:0,_RNvMsd_NtCshcgQatfXnqn_9kv_engine11lsm_storageNtB5_15LsmStorageInner6delete
FNDA:0,_RNvMsd_NtCshcgQatfXnqn_9kv_engine11lsm_storageNtB5_15LsmStorageInner7new_txn
FNDA:0,_RNvMsd_NtCshcgQatfXnqn_9kv_engine11lsm_storageNtB5_15LsmStorageInner8into_vec
FNDA:0,_RNvMsd_NtCshcgQatfXnqn_9kv_engine11lsm_storageNtB5_15LsmStorageInner8sync_dir
FNDA:0,_RNvMsd_NtCshcgQatfXnqn_9kv_engine11lsm_storageNtB5_15LsmStorageInner9batch_get
FNDA:0,_RNvNtCshcgQatfXnqn_9kv_engine11lsm_storage18prefix_upper_bound
FNDA:1,_RNvXs0_NtCshcgQatfXnqn_9kv_engine11lsm_storageNtB5_18PrefixBloomOptionsNtNtCslfAf2Mv2Tp5_4core7default7Default7default
FNDA:0,_RNvXs2_NtCshcgQatfXnqn_9kv_engine11lsm_storageNtB5_17LsmStorageOptionsNtNtCslfAf2Mv2Tp5_4core7default7Default7default
FNDA:0,_RNvXs6_NtCshcgQatfXnqn_9kv_engine11lsm_storageNtB5_25RangeTombstoneAtomicStatsNtNtCslfAf2Mv2Tp5_4core7default7Default7default
FNDA:0,_RNvXs8_NtCshcgQatfXnqn_9kv_engine11lsm_storageNtB5_27CompactionFilterAtomicStatsNtNtCslfAf2Mv2Tp5_4core7default7Default7default
FNDA:0,_RINvMsd_NtCshcgQatfXnqn_9kv_engine11lsm_storageNtB6_15LsmStorageInner18path_of_sst_staticRNtNtCskaANe6KdTWL_3std4path7PathBufEB8_
FNDA:0,_RINvMsd_NtCshcgQatfXnqn_9kv_engine11lsm_storageNtB6_15LsmStorageInner18path_of_wal_staticRNtNtCskaANe6KdTWL_3std4path7PathBufEB8_
FNDA:0,_RNCNCNvMNtCshcgQatfXnqn_9kv_engine11lsm_storageNtB6_15LsmStorageState6create00B8_
FNDA:0,_RNCNCNvMsd_NtCshcgQatfXnqn_9kv_engine11lsm_storageNtB9_15LsmStorageInner10scan_inners4_00Bb_
FNDA:0,_RNCNCNvMsd_NtCshcgQatfXnqn_9kv_engine11lsm_storageNtB9_15LsmStorageInner14lookup_sst_raws6_00Bb_
FNDA:0,_RNCNCNvMsd_NtCshcgQatfXnqn_9kv_engine11lsm_storageNtB9_15LsmStorageInner14lookup_sst_raws8_00Bb_
FNDA:0,_RNCNCNvMsd_NtCshcgQatfXnqn_9kv_engine11lsm_storageNtB9_15LsmStorageInner14lookup_sst_rawsb_00Bb_
FNDA:0,_RNCNCNvMsd_NtCshcgQatfXnqn_9kv_engine11lsm_storageNtB9_15LsmStorageInner24newest_memtable_range_ts00Bb_
FNDA:0,_RNCNCNvMsd_NtCshcgQatfXnqn_9kv_engine11lsm_storageNtB9_15LsmStorageInner9batch_gets8_00Bb_
FNDA:0,_RNCNCNvMsd_NtCshcgQatfXnqn_9kv_engine11lsm_storageNtB9_15LsmStorageInner9batch_getsc_00Bb_
FNDA:0,_RNCNCNvMsd_NtCshcgQatfXnqn_9kv_engine11lsm_storageNtB9_15LsmStorageInner9batch_getsc_0s0_0Bb_
FNDA:0,_RNCNCNvMsd_NtCshcgQatfXnqn_9kv_engine11lsm_storageNtB9_15LsmStorageInner9batch_getsc_0s_0Bb_
FNDA:0,_RNCNvMNtCshcgQatfXnqn_9kv_engine11lsm_storageNtB4_15LsmStorageState6create0B6_
FNDA:0,_RNCNvMs_NtCshcgQatfXnqn_9kv_engine11lsm_storageNtB6_21ManifestRecoveryState22replay_manifest_record0B8_
FNDA:0,_RNCNvMs_NtCshcgQatfXnqn_9kv_engine11lsm_storageNtB6_21ManifestRecoveryState22replay_manifest_records0_0B8_
FNDA:0,_RNCNvMs_NtCshcgQatfXnqn_9kv_engine11lsm_storageNtB6_21ManifestRecoveryState22replay_manifest_records1_0B8_
FNDA:0,_RNCNvMs_NtCshcgQatfXnqn_9kv_engine11lsm_storageNtB6_21ManifestRecoveryState22replay_manifest_records2_0B8_
FNDA:0,_RNCNvMs_NtCshcgQatfXnqn_9kv_engine11lsm_storageNtB6_21ManifestRecoveryState22replay_manifest_records_0B8_
FNDA:0,_RNCNvMsa_NtCshcgQatfXnqn_9kv_engine11lsm_storageNtB7_24CompactionFilterRegistry4list0B9_
FNDA:0,_RNCNvMsc_NtCshcgQatfXnqn_9kv_engine11lsm_storageNtB7_8KvEngine10trigger_gc0B9_
FNDA:0,_RNCNvMsc_NtCshcgQatfXnqn_9kv_engine11lsm_storageNtB7_8KvEngine11cache_stats0B9_
FNDA:0,_RNCNvMsc_NtCshcgQatfXnqn_9kv_engine11lsm_storageNtB7_8KvEngine21range_tombstone_stats0B9_
FNDA:0,_RNCNvMsc_NtCshcgQatfXnqn_9kv_engine11lsm_storageNtB7_8KvEngine5close0B9_
FNDA:0,_RNCNvMsc_NtCshcgQatfXnqn_9kv_engine11lsm_storageNtB7_8KvEngine5closes_0B9_
FNDA:0,_RNCNvMsd_NtCshcgQatfXnqn_9kv_engine11lsm_storageNtB7_15LsmStorageInner10scan_inner0B9_
FNDA:0,_RNCNvMsd_NtCshcgQatfXnqn_9kv_engine11lsm_storageNtB7_15LsmStorageInner10scan_inners0_0B9_
FNDA:0,_RNCNvMsd_NtCshcgQatfXnqn_9kv_engine11lsm_storageNtB7_15LsmStorageInner10scan_inners1_0B9_
FNDA:0,_RNCNvMsd_NtCshcgQatfXnqn_9kv_engine11lsm_storageNtB7_15LsmStorageInner10scan_inners4_0B9_
FNDA:0,_RNCNvMsd_NtCshcgQatfXnqn_9kv_engine11lsm_storageNtB7_15LsmStorageInner10scan_inners_0B9_
FNDA:0,_RNCNvMsd_NtCshcgQatfXnqn_9kv_engine11lsm_storageNtB7_15LsmStorageInner11get_with_ts0B9_
FNDA:0,_RNCNvMsd_NtCshcgQatfXnqn_9kv_engine11lsm_storageNtB7_15LsmStorageInner11get_with_tss0_0B9_
FNDA:0,_RNCNvMsd_NtCshcgQatfXnqn_9kv_engine11lsm_storageNtB7_15LsmStorageInner11get_with_tss_0B9_
FNDA:0,_RNCNvMsd_NtCshcgQatfXnqn_9kv_engine11lsm_storageNtB7_15LsmStorageInner11prefix_scan0B9_
FNDA:0,_RNCNvMsd_NtCshcgQatfXnqn_9kv_engine11lsm_storageNtB7_15LsmStorageInner11prefix_scans_0B9_
FNDA:0,_RNCNvMsd_NtCshcgQatfXnqn_9kv_engine11lsm_storageNtB7_15LsmStorageInner13resolve_value0B9_
FNDA:0,_RNCNvMsd_NtCshcgQatfXnqn_9kv_engine11lsm_storageNtB7_15LsmStorageInner14lookup_sst_raw0B9_
FNDA:0,_RNCNvMsd_NtCshcgQatfXnqn_9kv_engine11lsm_storageNtB7_15LsmStorageInner14lookup_sst_raws0_0B9_
FNDA:0,_RNCNvMsd_NtCshcgQatfXnqn_9kv_engine11lsm_storageNtB7_15LsmStorageInner14lookup_sst_raws1_0B9_
FNDA:0,_RNCNvMsd_NtCshcgQatfXnqn_9kv_engine11lsm_storageNtB7_15LsmStorageInner14lookup_sst_raws2_0B9_
FNDA:0,_RNCNvMsd_NtCshcgQatfXnqn_9kv_engine11lsm_storageNtB7_15LsmStorageInner14lookup_sst_raws3_0B9_
FNDA:0,_RNCNvMsd_NtCshcgQatfXnqn_9kv_engine11lsm_storageNtB7_15LsmStorageInner14lookup_sst_raws4_0B9_
FNDA:0,_RNCNvMsd_NtCshcgQatfXnqn_9kv_engine11lsm_storageNtB7_15LsmStorageInner14lookup_sst_raws5_0B9_
FNDA:0,_RNCNvMsd_NtCshcgQatfXnqn_9kv_engine11lsm_storageNtB7_15LsmStorageInner14lookup_sst_raws6_0B9_
FNDA:0,_RNCNvMsd_NtCshcgQatfXnqn_9kv_engine11lsm_storageNtB7_15LsmStorageInner14lookup_sst_raws7_0B9_
FNDA:0,_RNCNvMsd_NtCshcgQatfXnqn_9kv_engine11lsm_storageNtB7_15LsmStorageInner14lookup_sst_raws8_0B9_
FNDA:0,_RNCNvMsd_NtCshcgQatfXnqn_9kv_engine11lsm_storageNtB7_15LsmStorageInner14lookup_sst_raws9_0B9_
FNDA:0,_RNCNvMsd_NtCshcgQatfXnqn_9kv_engine11lsm_storageNtB7_15LsmStorageInner14lookup_sst_raws_0B9_
FNDA:0,_RNCNvMsd_NtCshcgQatfXnqn_9kv_engine11lsm_storageNtB7_15LsmStorageInner14lookup_sst_rawsa_0B9_
FNDA:0,_RNCNvMsd_NtCshcgQatfXnqn_9kv_engine11lsm_storageNtB7_15LsmStorageInner14lookup_sst_rawsb_0B9_
FNDA:0,_RNCNvMsd_NtCshcgQatfXnqn_9kv_engine11lsm_storageNtB7_15LsmStorageInner15batch_get_small0B9_
FNDA:0,_RNCNvMsd_NtCshcgQatfXnqn_9kv_engine11lsm_storageNtB7_15LsmStorageInner15batch_get_smalls0_0B9_
FNDA:0,_RNCNvMsd_NtCshcgQatfXnqn_9kv_engine11lsm_storageNtB7_15LsmStorageInner15batch_get_smalls1_0B9_
FNDA:0,_RNCNvMsd_NtCshcgQatfXnqn_9kv_engine11lsm_storageNtB7_15LsmStorageInner15batch_get_smalls2_0B9_
FNDA:0,_RNCNvMsd_NtCshcgQatfXnqn_9kv_engine11lsm_storageNtB7_15LsmStorageInner15batch_get_smalls_0B9_
FNDA:0,_RNCNvMsd_NtCshcgQatfXnqn_9kv_engine11lsm_storageNtB7_15LsmStorageInner16mvcc_write_batch0B9_
FNDA:0,_RNCNvMsd_NtCshcgQatfXnqn_9kv_engine11lsm_storageNtB7_15LsmStorageInner19get_with_kind_at_ts0B9_
FNDA:0,_RNCNvMsd_NtCshcgQatfXnqn_9kv_engine11lsm_storageNtB7_15LsmStorageInner21add_compaction_filter0B9_
FNDA:0,_RNCNvMsd_NtCshcgQatfXnqn_9kv_engine11lsm_storageNtB7_15LsmStorageInner21batch_lookup_memtables0_0B9_
FNDA:0,_RNCNvMsd_NtCshcgQatfXnqn_9kv_engine11lsm_storageNtB7_15LsmStorageInner21batch_lookup_memtables_0B9_
FNDA:0,_RNCNvMsd_NtCshcgQatfXnqn_9kv_engine11lsm_storageNtB7_15LsmStorageInner22mvcc_write_batch_inner0B9_
FNDA:0,_RNCNvMsd_NtCshcgQatfXnqn_9kv_engine11lsm_storageNtB7_15LsmStorageInner23maybe_snapshot_manifest0B9_
FNDA:0,_RNCNvMsd_NtCshcgQatfXnqn_9kv_engine11lsm_storageNtB7_15LsmStorageInner24newest_memtable_range_ts0B9_
FNDA:0,_RNCNvMsd_NtCshcgQatfXnqn_9kv_engine11lsm_storageNtB7_15LsmStorageInner24resolve_vlog_value_bytes0B9_
FNDA:0,_RNCNvMsd_NtCshcgQatfXnqn_9kv_engine11lsm_storageNtB7_15LsmStorageInner24resolve_vlog_value_bytess_0B9_
FNDA:0,_RNCNvMsd_NtCshcgQatfXnqn_9kv_engine11lsm_storageNtB7_15LsmStorageInner27add_compaction_filter_inner0B9_
FNDA:0,_RNCNvMsd_NtCshcgQatfXnqn_9kv_engine11lsm_storageNtB7_15LsmStorageInner27compare_and_set_batch_at_ts0B9_
FNDA:0,_RNCNvMsd_NtCshcgQatfXnqn_9kv_engine11lsm_storageNtB7_15LsmStorageInner27compare_and_set_batch_at_tss_0B9_
FNDA:0,_RNCNvMsd_NtCshcgQatfXnqn_9kv_engine11lsm_storageNtB7_15LsmStorageInner29force_flush_next_imm_memtable0B9_
FNDA:0,_RNCNvMsd_NtCshcgQatfXnqn_9kv_engine11lsm_storageNtB7_15LsmStorageInner3get0B9_
FNDA:0,_RNCNvMsd_NtCshcgQatfXnqn_9kv_engine11lsm_storageNtB7_15LsmStorageInner3gets0_0B9_
FNDA:0,_RNCNvMsd_NtCshcgQatfXnqn_9kv_engine11lsm_storageNtB7_15LsmStorageInner3gets1_0B9_
FNDA:0,_RNCNvMsd_NtCshcgQatfXnqn_9kv_engine11lsm_storageNtB7_15LsmStorageInner3gets2_0B9_
FNDA:0,_RNCNvMsd_NtCshcgQatfXnqn_9kv_engine11lsm_storageNtB7_15LsmStorageInner3gets_0B9_
FNDA:0,_RNCNvMsd_NtCshcgQatfXnqn_9kv_engine11lsm_storageNtB7_15LsmStorageInner3put0B9_
FNDA:0,_RNCNvMsd_NtCshcgQatfXnqn_9kv_engine11lsm_storageNtB7_15LsmStorageInner4scan0B9_
FNDA:0,_RNCNvMsd_NtCshcgQatfXnqn_9kv_engine11lsm_storageNtB7_15LsmStorageInner4scans_0B9_
FNDA:0,_RNCNvMsd_NtCshcgQatfXnqn_9kv_engine11lsm_storageNtB7_15LsmStorageInner6delete0B9_
FNDA:0,_RNCNvMsd_NtCshcgQatfXnqn_9kv_engine11lsm_storageNtB7_15LsmStorageInner9batch_get0B9_
FNDA:0,_RNCNvMsd_NtCshcgQatfXnqn_9kv_engine11lsm_storageNtB7_15LsmStorageInner9batch_gets0_0B9_
FNDA:0,_RNCNvMsd_NtCshcgQatfXnqn_9kv_engine11lsm_storageNtB7_15LsmStorageInner9batch_gets1_0B9_
FNDA:0,_RNCNvMsd_NtCshcgQatfXnqn_9kv_engine11lsm_storageNtB7_15LsmStorageInner9batch_gets2_0B9_
FNDA:0,_RNCNvMsd_NtCshcgQatfXnqn_9kv_engine11lsm_storageNtB7_15LsmStorageInner9batch_gets3_0B9_
FNDA:0,_RNCNvMsd_NtCshcgQatfXnqn_9kv_engine11lsm_storageNtB7_15LsmStorageInner9batch_gets4_0B9_
FNDA:0,_RNCNvMsd_NtCshcgQatfXnqn_9kv_engine11lsm_storageNtB7_15LsmStorageInner9batch_gets5_0B9_
FNDA:0,_RNCNvMsd_NtCshcgQatfXnqn_9kv_engine11lsm_storageNtB7_15LsmStorageInner9batch_gets8_0B9_
FNDA:0,_RNCNvMsd_NtCshcgQatfXnqn_9kv_engine11lsm_storageNtB7_15LsmStorageInner9batch_gets9_0B9_
FNDA:0,_RNCNvMsd_NtCshcgQatfXnqn_9kv_engine11lsm_storageNtB7_15LsmStorageInner9batch_gets_0B9_
FNDA:0,_RNCNvMsd_NtCshcgQatfXnqn_9kv_engine11lsm_storageNtB7_15LsmStorageInner9batch_getsc_0B9_
FNDA:0,_RNCNvMsd_NtCshcgQatfXnqn_9kv_engine11lsm_storageNtB7_15LsmStorageInner9batch_getsd_0B9_
FNDA:0,_RNCNvMsd_NtCshcgQatfXnqn_9kv_engine11lsm_storageNtB7_15LsmStorageInner9batch_getse_0B9_
FNDA:0,_RNCNvMsd_NtCshcgQatfXnqn_9kv_engine11lsm_storageNtB7_15LsmStorageInner9batch_getsf_0B9_
FNDA:0,_RNCNvMsd_NtCshcgQatfXnqn_9kv_engine11lsm_storageNtB7_15LsmStorageInner9batch_getsg_0B9_
FNDA:0,_RNCNvMsd_NtCshcgQatfXnqn_9kv_engine11lsm_storageNtB7_15LsmStorageInner9batch_getsh_0B9_
FNDA:0,_RNvXsb_NtCshcgQatfXnqn_9kv_engine11lsm_storageNtB5_8KvEngineNtNtNtCslfAf2Mv2Tp5_4core3ops4drop4Drop4drop
FNF:220
FNH:157
DA:82,269
DA:85,538
DA:86,538
DA:87,44
DA:89,2
DA:90,138
DA:91,0
DA:92,492
DA:94,538
DA:95,269
DA:96,269
DA:97,269
DA:98,269
DA:99,269
DA:100,269
DA:101,269
DA:102,269
DA:103,269
DA:104,269
DA:105,269
DA:127,54
DA:128,54
DA:129,20
DA:130,20
DA:131,20
DA:132,20
DA:133,4
DA:134,4
DA:135,4
DA:136,4
DA:137,0
DA:138,0
DA:139,4
DA:140,4
DA:142,0
DA:143,0
DA:144,0
DA:145,0
DA:146,0
DA:147,0
DA:148,0
DA:149,0
DA:150,0
DA:151,11
DA:152,11
DA:153,11
DA:154,11
DA:155,0
DA:156,0
DA:157,11
DA:158,11
DA:159,11
DA:160,11
DA:161,11
DA:163,0
DA:164,0
DA:165,0
DA:166,0
DA:167,0
DA:168,0
DA:169,0
DA:170,0
DA:171,0
DA:172,0
DA:174,0
DA:175,0
DA:176,0
DA:177,0
DA:178,0
DA:180,1
DA:181,1
DA:182,1
DA:183,1
DA:184,1
DA:185,1
DA:186,1
DA:187,1
DA:188,1
DA:189,1
DA:190,0
DA:192,0
DA:193,0
DA:194,0
DA:195,0
DA:196,1
DA:198,1
DA:199,0
DA:200,0
DA:201,1
DA:202,0
DA:204,1
DA:205,1
DA:206,1
DA:208,1
DA:209,1
DA:210,1
DA:211,1
DA:212,1
DA:213,1
DA:214,0
DA:215,0
DA:216,0
DA:217,0
DA:218,0
DA:219,0
DA:220,0
DA:221,0
DA:222,0
DA:223,0
DA:224,0
DA:225,0
DA:226,0
DA:227,0
DA:229,0
DA:230,0
DA:231,0
DA:232,0
DA:233,0
DA:234,0
DA:235,0
DA:236,0
DA:238,0
DA:239,0
DA:240,0
DA:244,1
DA:245,1
DA:246,1
DA:247,1
DA:248,1
DA:250,1
DA:251,1
DA:252,0
DA:253,0
DA:254,0
DA:255,0
DA:257,0
DA:258,0
DA:259,0
DA:260,0
DA:261,0
DA:262,0
DA:263,2
DA:264,2
DA:265,2
DA:266,2
DA:267,2
DA:268,2
DA:269,1
DA:270,1
DA:271,1
DA:272,11
DA:273,11
DA:274,11
DA:276,4
DA:277,4
DA:278,4
DA:279,4
DA:280,4
DA:281,4
DA:282,4
DA:283,4
DA:287,4
DA:288,4
DA:289,4
DA:290,4
DA:291,4
DA:292,4
DA:293,2
DA:294,2
DA:295,4
DA:296,4
DA:297,0
DA:298,0
DA:299,0
DA:300,4
DA:301,4
DA:302,4
DA:303,4
DA:304,4
DA:307,54
DA:308,54
DA:331,254
DA:332,254
DA:333,254
DA:334,254
DA:335,254
DA:336,254
DA:337,254
DA:342,269
DA:343,269
DA:344,260
DA:345,9
DA:346,9
DA:347,9
DA:350,9
DA:351,9
DA:352,9
DA:353,9
DA:358,9
DA:359,0
DA:360,0
DA:364,0
DA:366,9
DA:368,9
DA:369,9
DA:373,9
DA:374,269
DA:409,190
DA:410,190
DA:411,190
DA:412,190
DA:413,190
DA:414,190
DA:415,190
DA:416,190
DA:417,190
DA:418,190
DA:419,190
DA:420,190
DA:421,190
DA:422,190
DA:423,190
DA:429,190
DA:430,190
DA:431,190
DA:432,190
DA:433,190
DA:434,190
DA:435,190
DA:438,0
DA:439,0
DA:440,0
DA:441,0
DA:442,0
DA:443,0
DA:447,0
DA:448,0
DA:449,0
DA:450,0
DA:451,0
DA:452,0
DA:453,0
DA:454,0
DA:500,20
DA:501,20
DA:502,20
DA:518,5
DA:519,5
DA:520,5
DA:521,5
DA:522,5
DA:523,5
DA:524,5
DA:526,10
DA:527,10
DA:528,6
DA:529,4
DA:530,4
DA:531,4
DA:533,10
DA:568,264
DA:569,264
DA:570,264
DA:571,264
DA:572,264
DA:573,264
DA:574,264
DA:575,264
DA:579,5916
DA:580,5916
DA:581,5916
DA:582,5916
DA:584,52
DA:585,52
DA:586,52
DA:587,52
DA:589,8
DA:590,8
DA:591,8
DA:592,8
DA:594,1
DA:595,1
DA:596,1
DA:597,1
DA:599,4
DA:600,4
DA:601,4
DA:602,4
DA:603,4
DA:604,4
DA:605,4
DA:606,4
DA:607,4
DA:608,4
DA:609,4
DA:610,4
DA:614,264
DA:615,264
DA:616,264
DA:617,264
DA:618,264
DA:619,264
DA:620,264
DA:624,10
DA:625,10
DA:626,10
DA:627,10
DA:629,4
DA:630,4
DA:631,4
DA:632,4
DA:633,4
DA:634,4
DA:636,2
DA:637,2
DA:638,2
DA:639,2
DA:640,2
DA:641,2
DA:642,2
DA:643,2
DA:644,2
DA:645,2
DA:646,2
DA:647,2
DA:648,2
DA:649,2
DA:659,53
DA:660,53
DA:661,53
DA:663,4
DA:664,4
DA:665,4
DA:666,5
DA:667,4
DA:668,4
DA:676,39
DA:677,39
DA:678,45
DA:679,6
DA:680,6
DA:681,39
DA:682,4
DA:684,35
DA:685,35
DA:686,35
DA:688,39
DA:741,182
DA:745,182
DA:746,182
DA:747,182
DA:748,176
DA:749,176
DA:750,182
DA:751,20
DA:752,162
DA:753,182
DA:757,6
DA:758,6
DA:759,6
DA:760,6
DA:761,0
DA:762,6
DA:763,6
DA:764,1
DA:765,5
DA:767,6
DA:768,6
DA:769,0
DA:770,0
DA:771,6
DA:772,0
DA:773,0
DA:775,0
DA:776,6
DA:779,6
DA:780,6
DA:781,6
DA:784,12
DA:785,6
DA:788,6
DA:789,6
DA:793,182
DA:794,182
DA:797,182
DA:798,182
DA:799,182
DA:800,182
DA:801,182
DA:803,182
DA:804,182
DA:805,182
DA:806,182
DA:807,182
DA:808,182
DA:809,182
DA:810,182
DA:816,42
DA:817,42
DA:818,42
DA:820,12
DA:821,12
DA:822,12
DA:824,5
DA:825,5
DA:826,5
DA:828,4
DA:829,4
DA:830,4
DA:831,4
DA:832,4
DA:833,4
DA:834,4
DA:835,4
DA:837,2
DA:838,2
DA:839,2
DA:841,2
DA:842,2
DA:843,2
DA:845,2
DA:846,2
DA:847,2
DA:849,5738
DA:850,5738
DA:851,5738
DA:857,11
DA:858,11
DA:859,11
DA:861,12330
DA:862,12330
DA:863,12330
DA:865,17
DA:866,17
DA:867,17
DA:879,9
DA:880,9
DA:881,9
DA:883,0
DA:884,0
DA:885,0
DA:887,21
DA:888,21
DA:889,21
DA:896,32
DA:897,32
DA:898,32
DA:901,20
DA:902,20
DA:903,18
DA:904,18
DA:905,2
DA:906,20
DA:907,20
DA:908,0
DA:910,20
DA:911,20
DA:920,2
DA:921,2
DA:922,3
DA:923,1
DA:926,2
DA:927,2
DA:929,12
DA:930,12
DA:931,12
DA:935,6
DA:936,6
DA:937,1
DA:939,5
DA:940,5
DA:941,5
DA:942,5
DA:944,5
DA:945,5
DA:948,5
DA:949,5
DA:951,4
DA:952,4
DA:953,6
DA:954,6
DA:955,6
DA:956,4
DA:957,4
DA:958,4
DA:959,4
DA:960,1
DA:965,5
DA:967,5
DA:968,6
DA:971,15
DA:972,15
DA:973,1
DA:975,14
DA:976,15
DA:979,2
DA:980,2
DA:981,2
DA:982,2
DA:983,2
DA:984,2
DA:986,2
DA:987,2
DA:988,2
DA:989,2
DA:990,2
DA:991,2
DA:997,4
DA:998,4
DA:999,4
DA:1000,4
DA:1001,4
DA:1002,4
DA:1003,4
DA:1004,4
DA:1005,4
DA:1006,4
DA:1007,4
DA:1008,4
DA:1009,2
DA:1010,2
DA:1011,2
DA:1012,2
DA:1015,2
DA:1016,2
DA:1017,2
DA:1018,2
DA:1019,2
DA:1020,2
DA:1021,0
DA:1022,0
DA:1024,4
DA:1025,4
DA:1027,4
DA:1028,4
DA:1029,4
DA:1030,4
DA:1031,4
DA:1032,4
DA:1033,4
DA:1034,4
DA:1035,4
DA:1036,4
DA:1037,4
DA:1038,4
DA:1041,0
DA:1042,0
DA:1043,0
DA:1060,305
DA:1061,305
DA:1062,305
DA:1063,305
DA:1067,269
DA:1068,269
DA:1069,269
DA:1070,269
DA:1071,269
DA:1072,269
DA:1073,269
DA:1074,269
DA:1075,269
DA:1076,269
DA:1077,269
DA:1078,269
DA:1080,269
DA:1081,22
DA:1082,22
DA:1084,0
DA:1085,0
DA:1087,1
DA:1088,1
DA:1089,1
DA:1090,246
DA:1093,269
DA:1094,269
DA:1095,0
DA:1096,269
DA:1099,269
DA:1100,269
DA:1101,269
DA:1102,53
DA:1103,53
DA:1104,47
DA:1105,6
DA:1106,53
DA:1108,216
DA:1111,269
DA:1112,269
DA:1113,269
DA:1114,269
DA:1115,269
DA:1116,269
DA:1118,269
DA:1120,269
DA:1121,269
DA:1122,249
DA:1123,6
DA:1124,6
DA:1125,6
DA:1126,243
DA:1127,243
DA:1128,243
DA:1129,249
DA:1130,249
DA:1131,249
DA:1132,249
DA:1133,249
DA:1135,249
DA:1137,20
DA:1143,20
DA:1144,13
DA:1145,5
DA:1146,1
DA:1150,1
DA:1156,18
DA:1157,18
DA:1163,15
DA:1164,0
DA:1165,15
DA:1168,15
DA:1169,15
DA:1170,15
DA:1171,15
DA:1172,15
DA:1173,15
DA:1174,15
DA:1175,15
DA:1176,15
DA:1177,15
DA:1178,54
DA:1179,54
DA:1182,15
DA:1183,15
DA:1184,15
DA:1185,15
DA:1186,15
DA:1187,15
DA:1188,2
DA:1189,2
DA:1190,13
DA:1191,15
DA:1193,15
DA:1195,1
DA:1196,1
DA:1197,1
DA:1198,1
DA:1199,1
DA:1200,1
DA:1201,0
DA:1202,1
DA:1203,1
DA:1204,1
DA:1205,1
DA:1206,1
DA:1207,1
DA:1208,1
DA:1210,14
DA:1214,15
DA:1215,15
DA:1216,15
DA:1217,15
DA:1218,15
DA:1219,15
DA:1220,17
DA:1221,17
DA:1222,0
DA:1223,17
DA:1225,17
DA:1226,17
DA:1227,17
DA:1228,17
DA:1229,17
DA:1230,0
DA:1231,17
DA:1232,17
DA:1233,8
DA:1234,9
DA:1235,17
DA:1243,15
DA:1244,15
DA:1245,15
DA:1246,15
DA:1247,0
DA:1248,0
DA:1250,0
DA:1251,0
DA:1252,0
DA:1253,0
DA:1254,0
DA:1255,15
DA:1256,0
DA:1257,15
DA:1259,15
DA:1260,0
DA:1261,0
DA:1262,0
DA:1263,0
DA:1264,0
DA:1265,0
DA:1266,0
DA:1267,0
DA:1268,0
DA:1269,0
DA:1275,15
DA:1276,0
DA:1277,0
DA:1278,0
DA:1279,0
DA:1280,0
DA:1281,0
DA:1282,0
DA:1284,0
DA:1285,0
DA:1286,0
DA:1287,0
DA:1288,0
DA:1289,0
DA:1290,0
DA:1292,0
DA:1293,0
DA:1294,0
DA:1295,0
DA:1296,0
DA:1297,0
DA:1300,0
DA:1301,15
DA:1304,15
DA:1305,1
DA:1306,1
DA:1307,1
DA:1308,14
DA:1309,14
DA:1310,14
DA:1311,15
DA:1312,15
DA:1314,15
DA:1318,264
DA:1319,53
DA:1320,13
DA:1321,13
DA:1322,13
DA:1329,53
DA:1330,53
DA:1331,1
DA:1332,1
DA:1333,53
DA:1334,0
DA:1335,53
DA:1336,211
DA:1338,264
DA:1339,264
DA:1340,264
DA:1341,264
DA:1342,264
DA:1343,264
DA:1344,264
DA:1345,264
DA:1346,264
DA:1347,264
DA:1348,264
DA:1349,264
DA:1350,264
DA:1351,264
DA:1352,264
DA:1353,264
DA:1354,264
DA:1355,264
DA:1356,264
DA:1357,264
DA:1358,264
DA:1359,264
DA:1361,264
DA:1362,264
DA:1363,264
DA:1364,264
DA:1365,264
DA:1366,264
DA:1368,264
DA:1369,269
DA:1371,0
DA:1372,0
DA:1373,0
DA:1375,15
DA:1378,15
DA:1379,15
DA:1380,15
DA:1381,15
DA:1382,15
DA:1383,15
DA:1384,15
DA:1386,5
DA:1387,5
DA:1388,5
DA:1389,5
DA:1390,5
DA:1391,5
DA:1392,5
DA:1393,5
DA:1394,5
DA:1395,5
DA:1398,1
DA:1400,0
DA:1401,4
DA:1402,5
DA:1404,19
DA:1405,19
DA:1406,19
DA:1407,19
DA:1408,19
DA:1409,19
DA:1410,19
DA:1411,19
DA:1412,17
DA:1413,17
DA:1414,17
DA:1415,17
DA:1416,17
DA:1420,16
DA:1421,16
DA:1422,16
DA:1423,16
DA:1424,16
DA:1425,16
DA:1426,16
DA:1427,16
DA:1428,16
DA:1429,16
DA:1430,16
DA:1431,16
DA:1432,0
DA:1433,16
DA:1434,16
DA:1435,16
DA:1436,16
DA:1438,16
DA:1439,19
DA:1441,4
DA:1442,4
DA:1443,4
DA:1444,4
DA:1445,1
DA:1448,3
DA:1449,3
DA:1450,3
DA:1451,3
DA:1452,3
DA:1454,0
DA:1455,0
DA:1456,3
DA:1457,3
DA:1458,3
DA:1460,3
DA:1461,4
DA:1463,4
DA:1464,4
DA:1465,4
DA:1467,2
DA:1468,2
DA:1469,2
DA:1470,2
DA:1472,19
DA:1473,19
DA:1474,19
DA:1475,19
DA:1476,19
DA:1477,19
DA:1478,19
DA:1481,18
DA:1482,18
DA:1483,18
DA:1487,17
DA:1490,19
DA:1492,46
DA:1493,46
DA:1494,46
DA:1496,10
DA:1497,10
DA:1498,10
DA:1500,4
DA:1501,4
DA:1502,4
DA:1505,5820
DA:1506,5820
DA:1507,5820
DA:1511,5820
DA:1512,5820
DA:1515,5820
DA:1516,5820
DA:1517,5820
DA:1519,0
DA:1522,5820
DA:1523,5820
DA:1524,5820
DA:1525,157
DA:1526,5820
DA:1528,157
DA:1531,13
DA:1532,13
DA:1533,144
DA:1534,144
DA:1535,5663
DA:1538,5663
DA:1539,5
DA:1541,5658
DA:1543,5630
DA:1544,5663
DA:1546,5630
DA:1547,17
DA:1548,17
DA:1549,5613
DA:1550,5613
DA:1551,33
DA:1556,33
DA:1557,9
DA:1558,24
DA:1560,33
DA:1561,5820
DA:1563,11
DA:1564,11
DA:1565,11
DA:1566,1
DA:1567,10
DA:1568,10
DA:1569,1
DA:1570,9
DA:1573,9
DA:1574,9
DA:1575,9
DA:1580,9
DA:1581,9
DA:1582,0
DA:1585,0
DA:1586,0
DA:1587,0
DA:1588,0
DA:1591,0
DA:1592,0
DA:1593,0
DA:1594,0
DA:1597,0
DA:1598,0
DA:1599,0
DA:1600,0
DA:1601,0
DA:1602,0
DA:1603,0
DA:1604,0
DA:1605,0
DA:1606,0
DA:1607,0
DA:1612,0
DA:1613,0
DA:1614,0
DA:1617,0
DA:1622,0
DA:1623,0
DA:1624,0
DA:1625,0
DA:1626,0
DA:1627,0
DA:1628,0
DA:1629,0
DA:1630,0
DA:1631,0
DA:1632,0
DA:1633,0
DA:1634,0
DA:1635,0
DA:1636,0
DA:1637,0
DA:1638,0
DA:1639,0
DA:1642,0
DA:1643,0
DA:1644,0
DA:1645,0
DA:1646,0
DA:1647,0
DA:1649,0
DA:1651,0
DA:1652,0
DA:1653,0
DA:1654,0
DA:1655,0
DA:1656,0
DA:1657,0
DA:1658,0
DA:1659,0
DA:1660,0
DA:1661,0
DA:1662,0
DA:1663,0
DA:1664,0
DA:1665,0
DA:1667,0
DA:1671,0
DA:1672,0
DA:1673,0
DA:1674,0
DA:1675,0
DA:1676,0
DA:1677,0
DA:1678,0
DA:1679,0
DA:1680,0
DA:1681,0
DA:1682,0
DA:1683,0
DA:1684,0
DA:1685,0
DA:1686,0
DA:1687,0
DA:1688,0
DA:1689,0
DA:1690,0
DA:1691,0
DA:1692,0
DA:1693,0
DA:1694,0
DA:1696,0
DA:1697,0
DA:1700,0
DA:1701,0
DA:1702,0
DA:1703,0
DA:1704,0
DA:1705,0
DA:1706,0
DA:1707,0
DA:1708,0
DA:1709,0
DA:1710,0
DA:1711,0
DA:1712,0
DA:1713,0
DA:1714,0
DA:1716,0
DA:1718,0
DA:1721,0
DA:1722,0
DA:1723,0
DA:1724,0
DA:1727,0
DA:1729,0
DA:1730,0
DA:1731,0
DA:1732,0
DA:1735,0
DA:1736,0
DA:1738,0
DA:1739,0
DA:1740,0
DA:1741,0
DA:1742,0
DA:1743,0
DA:1745,0
DA:1746,0
DA:1747,0
DA:1748,0
DA:1750,0
DA:1751,0
DA:1755,0
DA:1758,0
DA:1760,0
DA:1761,0
DA:1763,0
DA:1765,0
DA:1766,0
DA:1767,0
DA:1768,0
DA:1769,0
DA:1770,0
DA:1771,0
DA:1772,0
DA:1773,0
DA:1777,0
DA:1778,0
DA:1779,0
DA:1780,0
DA:1781,0
DA:1782,0
DA:1785,0
DA:1786,0
DA:1787,0
DA:1788,0
DA:1790,0
DA:1793,0
DA:1794,0
DA:1795,0
DA:1796,0
DA:1797,0
DA:1798,0
DA:1799,0
DA:1800,0
DA:1804,0
DA:1805,0
DA:1806,0
DA:1807,0
DA:1811,0
DA:1812,0
DA:1813,0
DA:1814,0
DA:1815,0
DA:1816,0
DA:1822,0
DA:1823,0
DA:1824,0
DA:1825,0
DA:1827,0
DA:1828,0
DA:1829,0
DA:1833,0
DA:1834,11
DA:1842,9
DA:1843,9
DA:1844,9
DA:1845,9
DA:1846,9
DA:1847,9
DA:1848,9
DA:1849,9
DA:1850,9
DA:1851,71
DA:1852,9
DA:1855,9
DA:1856,9
DA:1857,71
DA:1858,9
DA:1861,9
DA:1862,9
DA:1863,9
DA:1864,9
DA:1865,9
DA:1866,9
DA:1867,9
DA:1868,9
DA:1871,9
DA:1872,9
DA:1874,9
DA:1875,9
DA:1877,71
DA:1878,71
DA:1879,71
DA:1883,71
DA:1885,71
DA:1887,71
DA:1888,71
DA:1889,71
DA:1890,71
DA:1891,71
DA:1892,71
DA:1893,39
DA:1894,39
DA:1895,39
DA:1896,39
DA:1898,71
DA:1899,11
DA:1900,4
DA:1901,11
DA:1903,4
DA:1904,4
DA:1905,4
DA:1906,4
DA:1907,7
DA:1909,67
DA:1912,0
DA:1913,0
DA:1914,0
DA:1915,0
DA:1916,0
DA:1917,0
DA:1918,0
DA:1919,0
DA:1920,0
DA:1921,0
DA:1922,0
DA:1924,0
DA:1928,71
DA:1929,71
DA:1930,16
DA:1931,12
DA:1932,12
DA:1933,12
DA:1934,9
DA:1935,6
DA:1936,6
DA:1937,6
DA:1938,6
DA:1939,6
DA:1940,6
DA:1941,10
DA:1942,16
DA:1943,16
DA:1944,16
DA:1945,4
DA:1946,4
DA:1947,4
DA:1948,3
DA:1949,2
DA:1950,2
DA:1951,2
DA:1952,2
DA:1953,2
DA:1954,2
DA:1955,2
DA:1956,2
DA:1957,2
DA:1958,12
DA:1960,12
DA:1961,55
DA:1963,71
DA:1965,43
DA:1966,3
DA:1967,3
DA:1968,3
DA:1969,40
DA:1970,40
DA:1971,40
DA:1972,28
DA:1977,28
DA:1978,5
DA:1979,5
DA:1980,5
DA:1981,23
DA:1984,23
DA:1985,23
DA:1986,23
DA:1987,23
DA:1989,0
DA:1992,23
DA:1993,23
DA:1994,23
DA:1995,23
DA:1996,23
DA:1997,23
DA:1998,23
DA:2000,19
DA:2002,19
DA:2003,19
DA:2004,19
DA:2005,3
DA:2006,3
DA:2007,3
DA:2008,16
DA:2009,16
DA:2014,4
DA:2015,4
DA:2016,0
DA:2017,4
DA:2019,0
DA:2020,0
DA:2021,0
DA:2025,9
DA:2026,9
DA:2033,5832
DA:2034,5832
DA:2035,5832
DA:2036,5832
DA:2037,5832
DA:2038,5832
DA:2039,5832
DA:2040,101
DA:2041,101
DA:2042,101
DA:2043,0
DA:2044,0
DA:2046,5731
DA:2048,5832
DA:2053,101
DA:2054,101
DA:2055,0
DA:2056,101
DA:2057,101
DA:2059,101
DA:2060,0
DA:2062,0
DA:2063,0
DA:2065,0
DA:2066,101
DA:2067,101
DA:2068,101
DA:2069,101
DA:2070,101
DA:2071,101
DA:2073,0
DA:2076,0
DA:2078,0
DA:2080,0
DA:2084,101
DA:2089,24628
DA:2090,24628
DA:2091,0
DA:2093,0
DA:2096,24628
DA:2097,24628
DA:2098,24628
DA:2099,24628
DA:2103,2
DA:2105,24626
DA:2106,24628
DA:2108,5996
DA:2109,5996
DA:2110,0
DA:2111,5996
DA:2112,5996
DA:2113,227
DA:2114,20
DA:2116,5749
DA:2118,0
DA:2121,5749
DA:2125,5996
DA:2129,0
DA:2130,0
DA:2131,0
DA:2132,0
DA:2139,147
DA:2140,147
DA:2141,147
DA:2142,147
DA:2143,147
DA:2144,147
DA:2145,147
DA:2146,147
DA:2149,147
DA:2150,15
DA:2151,132
DA:2152,132
DA:2153,0
DA:2154,0
DA:2155,0
DA:2161,132
DA:2162,58
DA:2163,38
DA:2164,58
DA:2165,38
DA:2167,38
DA:2168,20
DA:2170,130
DA:2175,130
DA:2176,130
DA:2177,130
DA:2178,89
DA:2179,89
DA:2180,89
DA:2181,0
DA:2183,89
DA:2184,130
DA:2185,89
DA:2186,89
DA:2187,0
DA:2189,89
DA:2190,1
DA:2191,88
DA:2192,73
DA:2193,88
DA:2194,73
DA:2196,73
DA:2197,15
DA:2201,21
DA:2202,147
DA:2205,25
DA:2206,25
DA:2207,25
DA:2208,25
DA:2209,25
DA:2210,25
DA:2211,19
DA:2212,25
DA:2214,19
DA:2217,2
DA:2218,2
DA:2219,17
DA:2220,17
DA:2221,6
DA:2224,6
DA:2225,0
DA:2227,6
DA:2229,2
DA:2230,6
DA:2232,2
DA:2233,0
DA:2234,0
DA:2235,2
DA:2236,2
DA:2237,4
DA:2239,4
DA:2240,0
DA:2241,4
DA:2243,4
DA:2244,25
DA:2247,2
DA:2248,2
DA:2249,2
DA:2250,2
DA:2251,2
DA:2252,2
DA:2253,2
DA:2254,2
DA:2257,2
DA:2258,2
DA:2259,2
DA:2260,2
DA:2261,2
DA:2262,2
DA:2263,2
DA:2264,2
DA:2265,2
DA:2268,79
DA:2269,79
DA:2270,79
DA:2271,79
DA:2272,79
DA:2273,79
DA:2274,79
DA:2275,79
DA:2276,79
DA:2280,79
DA:2281,79
DA:2282,42
DA:2283,4
DA:2284,33
DA:2286,79
DA:2287,5
DA:2288,39
DA:2289,35
DA:2292,79
DA:2293,79
DA:2296,0
DA:2299,79
DA:2300,27
DA:2301,27
DA:2303,0
DA:2305,27
DA:2308,79
DA:2309,79
DA:2310,79
DA:2311,79
DA:2312,79
DA:2313,79
DA:2314,79
DA:2315,15
DA:2316,15
DA:2317,15
DA:2318,79
DA:2321,79
DA:2322,103
DA:2323,103
DA:2324,103
DA:2325,56
DA:2326,47
DA:2329,47
DA:2330,12
DA:2331,12
DA:2333,1
DA:2334,46
DA:2335,46
DA:2336,23
DA:2337,23
DA:2338,23
DA:2340,2
DA:2341,2
DA:2342,2
DA:2343,2
DA:2344,2
DA:2345,0
DA:2346,2
DA:2347,2
DA:2348,2
DA:2349,2
DA:2350,2
DA:2352,0
DA:2354,0
DA:2355,2
DA:2357,21
DA:2359,46
DA:2360,5
DA:2361,41
DA:2362,46
DA:2364,79
DA:2365,79
DA:2368,79
DA:2369,83
DA:2370,83
DA:2371,83
DA:2372,4
DA:2374,4
DA:2375,0
DA:2376,0
DA:2378,0
DA:2379,4
DA:2380,4
DA:2382,83
DA:2383,79
DA:2384,4
DA:2385,4
DA:2386,1
DA:2387,0
DA:2388,0
DA:2389,0
DA:2390,0
DA:2391,0
DA:2392,0
DA:2393,0
DA:2395,0
DA:2396,0
DA:2397,0
DA:2398,0
DA:2399,0
DA:2400,0
DA:2401,0
DA:2402,0
DA:2403,0
DA:2404,0
DA:2405,0
DA:2406,0
DA:2408,0
DA:2410,0
DA:2411,0
DA:2413,1
DA:2414,1
DA:2415,1
DA:2416,0
DA:2419,3
DA:2420,2
DA:2421,2
DA:2422,2
DA:2423,2
DA:2424,2
DA:2425,0
DA:2427,0
DA:2428,0
DA:2429,0
DA:2430,0
DA:2431,0
DA:2432,0
DA:2433,0
DA:2434,0
DA:2435,0
DA:2436,0
DA:2437,0
DA:2439,0
DA:2441,0
DA:2442,0
DA:2444,1
DA:2447,4
DA:2449,79
DA:2450,79
DA:2457,79
DA:2458,4
DA:2459,3
DA:2460,1
DA:2461,1
DA:2462,1
DA:2463,1
DA:2465,79
DA:2466,79
DA:2467,79
DA:2468,79
DA:2469,79
DA:2470,79
DA:2471,79
DA:2472,79
DA:2473,79
DA:2474,107
DA:2475,107
DA:2476,107
DA:2477,107
DA:2478,107
DA:2479,107
DA:2480,79
DA:2481,6
DA:2482,4
DA:2484,2
DA:2486,6
DA:2487,6
DA:2488,6
DA:2489,4
DA:2490,4
DA:2491,6
DA:2492,1
DA:2493,1
DA:2494,1
DA:2495,1
DA:2496,1
DA:2497,0
DA:2500,6
DA:2501,6
DA:2502,6
DA:2503,6
DA:2504,6
DA:2506,1
DA:2507,1
DA:2508,1
DA:2509,1
DA:2510,1
DA:2511,1
DA:2513,6
DA:2514,0
DA:2516,6
DA:2517,6
DA:2518,0
DA:2523,6
DA:2524,6
DA:2525,0
DA:2527,6
DA:2528,6
DA:2531,6
DA:2532,2
DA:2533,4
DA:2534,6
DA:2539,73
DA:2542,79
DA:2544,79
DA:2545,79
DA:2552,6
DA:2553,6
DA:2554,6
DA:2555,6
DA:2556,6
DA:2557,6
DA:2558,0
DA:2559,6
DA:2564,6
DA:2565,2
DA:2566,2
DA:2568,0
DA:2569,6
DA:2575,1
DA:2576,0
DA:2577,1
DA:2578,1
DA:2580,0
DA:2582,0
DA:2583,1
DA:2584,1
DA:2586,0
DA:2588,6
DA:2590,6
DA:2591,6
DA:2594,3
DA:2595,3
DA:2596,3
DA:2597,3
DA:2598,3
DA:2599,3
DA:2600,3
DA:2602,3
DA:2603,3
DA:2604,3
DA:2605,3
DA:2606,4
DA:2607,3
DA:2608,3
DA:2609,0
DA:2611,3
DA:2612,3
DA:2613,3
DA:2614,3
DA:2616,3
DA:2617,3
DA:2623,16
DA:2624,16
DA:2625,16
DA:2626,16
DA:2627,16
DA:2629,18
DA:2630,18
DA:2631,18
DA:2632,18
DA:2633,18
DA:2634,18
DA:2635,18
DA:2638,18
DA:2639,18
DA:2640,18
DA:2642,18
DA:2643,18
DA:2644,18
DA:2645,18
DA:2646,22
DA:2647,18
DA:2648,18
DA:2649,0
DA:2651,18
DA:2652,18
DA:2653,18
DA:2654,18
DA:2655,18
DA:2660,0
DA:2661,0
DA:2662,0
DA:2663,0
DA:2664,0
DA:2665,0
DA:2666,0
DA:2667,0
DA:2669,0
DA:2670,0
DA:2671,0
DA:2673,0
DA:2675,0
DA:2676,0
DA:2677,0
DA:2678,0
DA:2679,0
DA:2681,0
DA:2682,0
DA:2683,0
DA:2684,0
DA:2685,0
DA:2686,0
DA:2689,0
DA:2690,0
DA:2692,0
DA:2694,0
DA:2695,0
DA:2697,0
DA:2698,0
DA:2699,0
DA:2700,0
DA:2701,0
DA:2702,0
DA:2704,0
DA:2705,0
DA:2706,0
DA:2708,0
DA:2709,0
DA:2716,5845
DA:2717,5845
DA:2718,5845
DA:2719,5845
DA:2720,5845
DA:2721,5845
DA:2725,5845
DA:2726,5845
DA:2727,5845
DA:2728,32
DA:2729,32
DA:2730,13
DA:2732,19
DA:2735,0
DA:2738,5813
DA:2743,5845
DA:2744,60
DA:2745,60
DA:2746,60
DA:2747,60
DA:2748,60
DA:2749,5845
DA:2757,5687
DA:2758,5687
DA:2759,5687
DA:2760,5687
DA:2761,5687
DA:2762,5687
DA:2763,5687
DA:2764,5687
DA:2765,5687
DA:2766,5687
DA:2767,5687
DA:2768,5687
DA:2769,13922
DA:2770,13922
DA:2771,13922
DA:2773,35
DA:2774,35
DA:2777,35
DA:2778,20
DA:2779,15
DA:2780,13887
DA:2782,5667
DA:2783,5687
DA:2790,5845
DA:2791,5845
DA:2792,5845
DA:2793,5845
DA:2794,5845
DA:2795,5845
DA:2796,5845
DA:2797,5845
DA:2798,5845
DA:2805,5845
DA:2806,127
DA:2807,127
DA:2808,127
DA:2810,18
DA:2811,18
DA:2812,18
DA:2813,109
DA:2814,109
DA:2815,6
DA:2816,3
DA:2817,3
DA:2818,3
DA:2819,3
DA:2824,5718
DA:2825,5718
DA:2826,5718
DA:2828,141
DA:2829,141
DA:2830,141
DA:2831,5577
DA:2832,5577
DA:2833,37
DA:2834,14
DA:2835,14
DA:2836,14
DA:2837,23
DA:2842,0
DA:2843,0
DA:2844,0
DA:2845,0
DA:2846,0
DA:2847,0
DA:2848,0
DA:2849,0
DA:2850,0
DA:2851,0
DA:2854,0
DA:2855,0
DA:2856,0
DA:2857,0
DA:2858,0
DA:2859,0
DA:2860,0
DA:2861,0
DA:2862,0
DA:2863,0
DA:2864,0
DA:2865,0
DA:2866,0
DA:2871,5669
DA:2872,5845
DA:2880,0
DA:2881,0
DA:2882,0
DA:2883,0
DA:2884,0
DA:2885,0
DA:2886,0
DA:2887,0
DA:2888,0
DA:2889,0
DA:2890,0
DA:2891,0
DA:2892,0
DA:2893,0
DA:2895,0
DA:2896,0
DA:2897,0
DA:2898,0
DA:2899,0
DA:2901,0
DA:2905,0
DA:2906,0
DA:2907,0
DA:2908,0
DA:2909,0
DA:2910,0
DA:2911,0
DA:2912,0
DA:2916,0
DA:2917,0
DA:2918,0
DA:2919,0
DA:2920,0
DA:2921,0
DA:2922,0
DA:2923,0
DA:2924,0
DA:2925,0
DA:2926,0
DA:2927,0
DA:2928,0
DA:2929,0
DA:2930,0
DA:2931,0
DA:2932,0
DA:2933,0
DA:2934,0
DA:2935,0
DA:2936,0
DA:2937,0
DA:2938,0
DA:2939,0
DA:2941,0
DA:2943,0
DA:2944,0
DA:2950,5692
DA:2951,5692
DA:2952,5692
DA:2953,5692
DA:2954,5692
DA:2955,5692
DA:2956,5692
DA:2957,5692
DA:2958,5692
DA:2962,5692
DA:2967,5692
DA:2968,23
DA:2969,19
DA:2971,4
DA:2973,23
DA:2974,5692
DA:2975,5692
DA:2977,5692
DA:2978,19
DA:2979,19
DA:2980,19
DA:2981,19
DA:2982,19
DA:2983,19
DA:2984,19
DA:2985,18
DA:2986,19
DA:2988,18
DA:2989,18
DA:2990,18
DA:2991,18
DA:2992,18
DA:2993,5674
DA:2994,9561
DA:2996,9561
DA:2997,19
DA:2998,9542
DA:2999,9542
DA:3000,9542
DA:3001,0
DA:3005,9542
DA:3006,3120
DA:3008,3107
DA:3009,6435
DA:3010,3288
DA:3011,6435
DA:3013,3288
DA:3014,3288
DA:3015,3284
DA:3016,3284
DA:3017,3284
DA:3018,3147
DA:3022,0
DA:3023,0
DA:3024,0
DA:3025,0
DA:3026,0
DA:3027,0
DA:3029,0
DA:3031,0
DA:3032,0
DA:3033,0
DA:3034,0
DA:3035,0
DA:3036,0
DA:3038,0
DA:3039,0
DA:3040,0
DA:3041,0
DA:3042,0
DA:3044,0
DA:3046,0
DA:3047,0
DA:3048,0
DA:3049,0
DA:3050,0
DA:3053,5692
DA:3054,23
DA:3055,19
DA:3056,19
DA:3057,5673
DA:3060,5692
DA:3061,5692
DA:3062,5692
DA:3063,0
DA:3064,0
DA:3065,5692
DA:3066,5692
DA:3067,9824
DA:3068,9824
DA:3074,9824
DA:3075,9824
DA:3079,9824
DA:3080,9824
DA:3081,17
DA:3082,17
DA:3083,0
DA:3084,0
DA:3085,0
DA:3086,0
DA:3087,0
DA:3088,0
DA:3089,0
DA:3090,0
DA:3091,0
DA:3092,0
DA:3095,0
DA:3096,9824
DA:3097,9824
DA:3098,9824
DA:3099,4365
DA:3100,4365
DA:3101,4365
DA:3102,4365
DA:3103,4365
DA:3104,4365
DA:3105,0
DA:3107,4365
DA:3108,9824
DA:3109,9824
DA:3110,23
DA:3111,9801
DA:3112,9824
DA:3113,3358
DA:3114,3358
DA:3115,3358
DA:3116,3358
DA:3117,3358
DA:3118,0
DA:3120,3358
DA:3121,1005
DA:3122,2353
DA:3128,2353
DA:3129,1
DA:3131,0
DA:3132,2353
DA:3133,2350
DA:3134,2353
DA:3136,2350
DA:3137,2350
DA:3138,2350
DA:3139,2350
DA:3140,3
DA:3144,0
DA:3145,0
DA:3146,0
DA:3147,0
DA:3148,0
DA:3149,0
DA:3150,0
DA:3151,0
DA:3152,0
DA:3153,0
DA:3154,0
DA:3155,0
DA:3156,0
DA:3157,0
DA:3158,0
DA:3159,0
DA:3160,0
DA:3161,0
DA:3162,0
DA:3163,0
DA:3164,0
DA:3165,0
DA:3166,0
DA:3167,0
DA:3168,0
DA:3169,0
DA:3170,0
DA:3171,0
DA:3173,0
DA:3174,0
DA:3175,0
DA:3178,5692
DA:3179,5651
DA:3180,5651
DA:3181,41
DA:3183,41
DA:3184,5692
DA:3188,39
DA:3189,39
DA:3190,39
DA:3191,39
DA:3192,39
DA:3193,39
DA:3194,39
DA:3195,0
DA:3196,0
DA:3197,0
DA:3199,39
DA:3200,39
DA:3201,0
DA:3203,0
DA:3205,39
DA:3208,39
DA:3209,39
DA:3210,39
DA:3211,39
DA:3212,39
DA:3213,39
DA:3219,0
DA:3220,0
DA:3221,0
DA:3222,0
DA:3223,0
DA:3224,0
DA:3225,0
DA:3226,0
DA:3227,0
DA:3229,0
DA:3230,0
DA:3231,0
DA:3233,0
DA:3234,0
DA:3235,0
DA:3237,0
DA:3238,0
DA:3240,0
DA:3241,0
DA:3257,0
DA:3258,0
DA:3259,0
DA:3260,0
DA:3261,0
DA:3264,0
DA:3266,0
DA:3267,0
DA:3268,0
DA:3269,0
DA:3270,0
DA:3271,0
DA:3272,0
DA:3273,0
DA:3282,0
DA:3283,0
DA:3284,0
DA:3286,0
DA:3287,0
DA:3289,0
DA:3290,0
DA:3291,0
DA:3292,0
DA:3297,0
DA:3298,0
DA:3299,0
DA:3300,0
DA:3301,0
DA:3302,0
DA:3303,0
DA:3304,0
DA:3305,0
DA:3307,0
DA:3309,0
DA:3310,0
DA:3312,0
DA:3313,0
DA:3314,0
DA:3315,0
DA:3316,0
DA:3319,0
DA:3320,0
DA:3321,0
DA:3322,0
DA:3323,0
DA:3325,0
DA:3326,0
DA:3333,13
DA:3334,13
DA:3335,13
DA:3336,13
DA:3337,13
DA:3342,13
DA:3344,13
DA:3345,13
DA:3346,39
DA:3347,39
DA:3348,39
DA:3349,39
DA:3351,39
DA:3352,39
DA:3353,39
DA:3354,39
DA:3355,39
DA:3356,39
DA:3357,39
DA:3358,0
DA:3360,39
DA:3361,39
DA:3364,39
DA:3365,39
DA:3367,0
DA:3373,13
DA:3374,13
DA:3376,13
DA:3378,13
DA:3380,39
DA:3381,39
DA:3382,0
DA:3386,39
DA:3387,39
DA:3388,0
DA:3389,0
DA:3390,39
DA:3392,39
DA:3393,39
DA:3394,39
DA:3395,39
DA:3396,39
DA:3399,13
DA:3400,13
DA:3401,13
DA:3402,39
DA:3403,13
DA:3406,13
DA:3407,0
DA:3409,13
DA:3410,13
DA:3417,22
DA:3419,22
DA:3420,22
DA:3421,23
DA:3422,22
DA:3423,22
DA:3424,47
DA:3425,22
DA:3426,22
DA:3431,21
DA:3432,5
DA:3433,5
DA:3436,4
DA:3437,4
DA:3440,3
DA:3441,3
DA:3442,4
DA:3443,4
DA:3444,4
DA:3446,0
DA:3448,4
DA:3449,3
DA:3450,4
DA:3451,4
DA:3452,4
DA:3453,4
DA:3454,4
DA:3462,3
DA:3463,3
DA:3464,3
DA:3465,3
DA:3466,3
DA:3468,0
DA:3469,0
DA:3470,0
DA:3471,0
DA:3473,3
DA:3475,3
DA:3477,3
DA:3479,3
DA:3480,3
DA:3481,3
DA:3482,3
DA:3483,3
DA:3484,3
DA:3485,16
DA:3488,40
DA:3489,40
DA:3490,8
DA:3491,32
DA:3492,0
DA:3494,40
DA:3498,15
DA:3499,15
DA:3500,14
DA:3501,34
DA:3502,34
DA:3503,6
DA:3504,28
DA:3505,0
DA:3507,34
DA:3508,8
DA:3509,8
DA:3510,26
DA:3512,1
DA:3514,15
DA:3516,8
DA:3517,22
DA:3518,22
DA:3519,5
DA:3520,17
DA:3521,0
DA:3523,22
DA:3527,8
DA:3528,8
DA:3529,8
DA:3531,7
DA:3535,15
DA:3537,15
DA:3541,15
DA:3542,15
DA:3543,15
DA:3544,4
DA:3546,11
DA:3548,15
DA:3549,15
DA:3550,15
DA:3551,15
DA:3553,15
DA:3554,15
DA:3555,8
DA:3556,8
DA:3557,10
DA:3558,7
DA:3559,7
DA:3561,3
DA:3562,0
DA:3563,10
DA:3564,8
DA:3566,7
DA:3567,7
DA:3568,17
DA:3569,14
DA:3570,14
DA:3572,3
DA:3573,0
DA:3574,17
DA:3575,7
DA:3578,15
DA:3579,15
DA:3582,15
DA:3583,4
DA:3584,4
DA:3585,4
DA:3586,4
DA:3588,4
DA:3589,1
DA:3590,1
DA:3591,1
DA:3592,0
DA:3593,0
DA:3595,1
DA:3598,7
DA:3599,7
DA:3600,6
DA:3601,1
DA:3602,0
DA:3604,7
DA:3607,4
DA:3608,11
DA:3609,15
DA:3612,0
DA:3613,0
DA:3614,0
DA:3615,0
DA:3617,0
DA:3618,0
DA:3619,0
DA:3620,0
DA:3621,0
DA:3622,0
DA:3623,0
DA:3624,0
DA:3625,0
DA:3626,0
DA:3627,0
DA:3628,0
DA:3629,0
DA:3630,0
DA:3631,0
DA:3632,0
DA:3636,0
DA:3637,0
DA:3638,0
DA:3639,0
DA:3640,0
DA:3641,0
DA:3642,0
DA:3643,0
DA:3644,0
DA:3645,0
DA:3646,0
DA:3647,0
DA:3648,0
DA:3649,0
DA:3650,0
DA:3654,0
DA:3655,0
DA:3656,0
DA:3658,0
DA:3659,0
DA:3660,0
DA:3661,0
DA:3662,0
DA:3666,15
DA:3668,15
DA:3669,15
DA:3670,15
DA:3671,27
DA:3672,15
DA:3673,15
DA:3674,0
DA:3677,15
DA:3678,15
DA:3679,15
DA:3680,15
DA:3681,15
DA:3684,15
DA:3685,4
DA:3686,4
DA:3687,4
DA:3688,11
DA:3689,15
DA:3690,22
DA:3692,24583
DA:3693,24583
DA:3694,24583
DA:3695,44
DA:3696,44
DA:3699,44
DA:3700,44
DA:3701,44
DA:3702,44
DA:3703,0
DA:3704,24539
DA:3706,24583
DA:3707,24583
DA:3715,23473
DA:3716,23473
DA:3717,23473
DA:3720,23472
DA:3724,23471
DA:3725,23471
DA:3726,23471
DA:3727,15
DA:3729,23456
DA:3731,23471
DA:3732,23471
DA:3733,23471
DA:3734,23471
DA:3735,23471
DA:3736,23471
DA:3737,23471
DA:3738,23471
DA:3739,23471
DA:3740,23471
DA:3743,0
DA:3744,0
DA:3745,0
DA:3746,0
DA:3747,0
DA:3748,0
DA:3749,0
DA:3750,0
DA:3754,23471
DA:3756,23471
DA:3757,23471
DA:3758,23471
DA:3759,23471
DA:3760,23471
DA:3763,23471
DA:3764,23471
DA:3765,23471
DA:3766,23471
DA:3767,23471
DA:3768,23471
DA:3769,15
DA:3770,15
DA:3771,15
DA:3772,23456
DA:3773,0
DA:3774,23471
DA:3775,23473
DA:3778,1040
DA:3779,1040
DA:3780,1040
DA:3781,1040
DA:3782,1040
DA:3783,1
DA:3785,1039
DA:3787,1040
DA:3788,1040
DA:3789,1040
DA:3790,1040
DA:3791,1040
DA:3792,1040
DA:3793,1040
DA:3794,1040
DA:3795,1040
DA:3796,1040
DA:3799,0
DA:3800,0
DA:3801,0
DA:3802,0
DA:3803,0
DA:3804,0
DA:3805,0
DA:3806,0
DA:3807,0
DA:3810,1040
DA:3811,1040
DA:3812,1040
DA:3813,1040
DA:3814,1040
DA:3815,1040
DA:3818,1040
DA:3819,1040
DA:3820,1040
DA:3821,1040
DA:3822,1040
DA:3823,1040
DA:3824,1
DA:3825,1
DA:3826,1
DA:3827,1039
DA:3828,0
DA:3829,1040
DA:3830,1040
DA:3838,40
DA:3839,40
DA:3840,40
DA:3843,39
DA:3844,39
DA:3847,38
DA:3848,38
DA:3853,34
DA:3854,34
DA:3857,34
DA:3858,34
DA:3859,34
DA:3860,34
DA:3863,0
DA:3870,34
DA:3871,40
DA:3873,354
DA:3874,354
DA:3875,354
DA:3877,337
DA:3878,337
DA:3879,337
DA:3881,35
DA:3882,35
DA:3883,35
DA:3885,21
DA:3886,21
DA:3887,21
DA:3890,759
DA:3891,759
DA:3892,759
DA:3893,759
DA:3894,759
DA:3899,519
DA:3900,519
DA:3901,519
DA:3902,503
DA:3903,16
DA:3904,16
DA:3905,16
DA:3906,0
DA:3908,16
DA:3909,9
DA:3910,7
DA:3913,7
DA:3914,7
DA:3916,7
DA:3917,2
DA:3919,5
DA:3921,7
DA:3923,2
DA:3924,2
DA:3925,2
DA:3926,2
DA:3927,2
DA:3928,2
DA:3929,2
DA:3930,2
DA:3932,5
DA:3933,7
DA:3935,7
DA:3936,7
DA:3937,7
DA:3938,7
DA:3939,7
DA:3940,7
DA:3941,7
DA:3942,7
DA:3943,7
DA:3946,7
DA:3947,7
DA:3949,7
DA:3950,519
DA:3952,258
DA:3956,258
DA:3957,258
DA:3958,258
DA:3961,258
DA:3963,258
DA:3964,258
DA:3966,258
DA:3967,258
DA:3971,252
DA:3972,252
DA:3973,252
DA:3974,252
DA:3975,11
DA:3977,241
DA:3979,252
DA:3980,252
DA:3982,252
DA:3984,252
DA:3985,252
DA:3986,252
DA:3987,252
DA:3989,252
DA:3990,252
DA:3993,199
DA:3994,199
DA:3997,197
DA:3998,199
DA:3999,199
DA:4000,197
DA:4001,2
DA:4005,197
DA:4008,197
DA:4009,75
DA:4010,75
DA:4011,75
DA:4012,75
DA:4013,75
DA:4014,75
DA:4015,75
DA:4016,75
DA:4017,75
DA:4018,75
DA:4019,75
DA:4020,0
DA:4021,75
DA:4022,75
DA:4023,75
DA:4024,75
DA:4025,75
DA:4026,75
DA:4028,75
DA:4029,75
DA:4030,75
DA:4031,75
DA:4032,75
DA:4033,0
DA:4034,75
DA:4036,75
DA:4037,75
DA:4038,75
DA:4040,75
DA:4041,65
DA:4043,0
DA:4044,75
DA:4048,75
DA:4049,75
DA:4050,75
DA:4051,75
DA:4053,122
DA:4054,122
DA:4055,122
DA:4056,122
DA:4057,122
DA:4058,122
DA:4059,122
DA:4060,122
DA:4061,0
DA:4062,122
DA:4063,122
DA:4067,197
DA:4069,197
DA:4070,197
DA:4071,197
DA:4072,197
DA:4073,0
DA:4074,0
DA:4075,0
DA:4076,0
DA:4077,197
DA:4078,197
DA:4081,197
DA:4083,197
DA:4084,122
DA:4086,75
DA:4088,197
DA:4089,197
DA:4090,197
DA:4091,197
DA:4094,197
DA:4103,197
DA:4105,197
DA:4106,10
DA:4107,10
DA:4111,2
DA:4112,1
DA:4113,1
DA:4114,8
DA:4115,187
DA:4117,197
DA:4118,199
DA:4124,47
DA:4125,47
DA:4126,47
DA:4127,47
DA:4130,44
DA:4137,44
DA:4138,44
DA:4139,44
DA:4141,44
DA:4142,44
DA:4145,33
DA:4146,33
DA:4147,2
DA:4148,31
DA:4149,31
DA:4150,31
DA:4151,31
DA:4152,31
DA:4153,31
DA:4154,30
DA:4155,1
DA:4157,31
DA:4158,31
DA:4159,33
DA:4161,79
DA:4162,79
DA:4163,5
DA:4164,39
DA:4165,35
DA:4167,79
BRF:0
BRH:0
LF:2831
LH:1968
end_of_record
SF:/home/liu/proj/toy-kv-engine/kv-engine/src/manifest.rs
FN:79,_RINvMNtCs9G0t2qE8rAk_9kv_engine8manifestNtB3_8Manifest6createNtNtCskaANe6KdTWL_3std4path7PathBufEB5_
FN:79,_RINvMNtCs9G0t2qE8rAk_9kv_engine8manifestNtB3_8Manifest6createRNtNtCskaANe6KdTWL_3std4path7PathBufEB5_
FN:96,_RINvMNtCs9G0t2qE8rAk_9kv_engine8manifestNtB3_8Manifest7recoverNtNtCskaANe6KdTWL_3std4path7PathBufEB5_
FN:96,_RINvMNtCs9G0t2qE8rAk_9kv_engine8manifestNtB3_8Manifest7recoverRNtNtCskaANe6KdTWL_3std4path7PathBufEB5_
FN:242,_RNvMNtCs9G0t2qE8rAk_9kv_engine8manifestNtB2_8Manifest10add_record
FN:251,_RNvMNtCs9G0t2qE8rAk_9kv_engine8manifestNtB2_8Manifest11add_records
FN:234,_RNvMNtCs9G0t2qE8rAk_9kv_engine8manifestNtB2_8Manifest13snapshot_path
FN:259,_RNvMNtCs9G0t2qE8rAk_9kv_engine8manifestNtB2_8Manifest20add_record_when_init
FN:266,_RNvMNtCs9G0t2qE8rAk_9kv_engine8manifestNtB2_8Manifest21add_records_when_init
FN:187,_RNvMNtCs9G0t2qE8rAk_9kv_engine8manifestNtB2_8Manifest8snapshot
FN:226,_RNvMNtCs9G0t2qE8rAk_9kv_engine8manifestNtB2_8Manifest9file_size
FN:79,_RINvMNtCshcgQatfXnqn_9kv_engine8manifestNtB3_8Manifest6createNtNtCskaANe6KdTWL_3std4path7PathBufECsjsmMyPGR1S6_10write_perf
FN:96,_RINvMNtCshcgQatfXnqn_9kv_engine8manifestNtB3_8Manifest7recoverNtNtCskaANe6KdTWL_3std4path7PathBufECsjsmMyPGR1S6_10write_perf
FN:79,_RINvMNtCshcgQatfXnqn_9kv_engine8manifestNtB3_8Manifest6createpEB5_
FN:96,_RINvMNtCshcgQatfXnqn_9kv_engine8manifestNtB3_8Manifest7recoverpEB5_
FN:242,_RNvMNtCshcgQatfXnqn_9kv_engine8manifestNtB2_8Manifest10add_record
FN:251,_RNvMNtCshcgQatfXnqn_9kv_engine8manifestNtB2_8Manifest11add_records
FN:234,_RNvMNtCshcgQatfXnqn_9kv_engine8manifestNtB2_8Manifest13snapshot_path
FN:259,_RNvMNtCshcgQatfXnqn_9kv_engine8manifestNtB2_8Manifest20add_record_when_init
FN:266,_RNvMNtCshcgQatfXnqn_9kv_engine8manifestNtB2_8Manifest21add_records_when_init
FN:187,_RNvMNtCshcgQatfXnqn_9kv_engine8manifestNtB2_8Manifest8snapshot
FN:226,_RNvMNtCshcgQatfXnqn_9kv_engine8manifestNtB2_8Manifest9file_size
FNDA:249,_RINvMNtCs9G0t2qE8rAk_9kv_engine8manifestNtB3_8Manifest6createNtNtCskaANe6KdTWL_3std4path7PathBufEB5_
FNDA:3,_RINvMNtCs9G0t2qE8rAk_9kv_engine8manifestNtB3_8Manifest6createRNtNtCskaANe6KdTWL_3std4path7PathBufEB5_
FNDA:20,_RINvMNtCs9G0t2qE8rAk_9kv_engine8manifestNtB3_8Manifest7recoverNtNtCskaANe6KdTWL_3std4path7PathBufEB5_
FNDA:1,_RINvMNtCs9G0t2qE8rAk_9kv_engine8manifestNtB3_8Manifest7recoverRNtNtCskaANe6KdTWL_3std4path7PathBufEB5_
FNDA:524,_RNvMNtCs9G0t2qE8rAk_9kv_engine8manifestNtB2_8Manifest10add_record
FNDA:4,_RNvMNtCs9G0t2qE8rAk_9kv_engine8manifestNtB2_8Manifest11add_records
FNDA:28,_RNvMNtCs9G0t2qE8rAk_9kv_engine8manifestNtB2_8Manifest13snapshot_path
FNDA:542,_RNvMNtCs9G0t2qE8rAk_9kv_engine8manifestNtB2_8Manifest20add_record_when_init
FNDA:795,_RNvMNtCs9G0t2qE8rAk_9kv_engine8manifestNtB2_8Manifest21add_records_when_init
FNDA:7,_RNvMNtCs9G0t2qE8rAk_9kv_engine8manifestNtB2_8Manifest8snapshot
FNDA:16,_RNvMNtCs9G0t2qE8rAk_9kv_engine8manifestNtB2_8Manifest9file_size
FNDA:0,_RINvMNtCshcgQatfXnqn_9kv_engine8manifestNtB3_8Manifest6createNtNtCskaANe6KdTWL_3std4path7PathBufECsjsmMyPGR1S6_10write_perf
FNDA:0,_RINvMNtCshcgQatfXnqn_9kv_engine8manifestNtB3_8Manifest7recoverNtNtCskaANe6KdTWL_3std4path7PathBufECsjsmMyPGR1S6_10write_perf
FNDA:0,_RINvMNtCshcgQatfXnqn_9kv_engine8manifestNtB3_8Manifest6createpEB5_
FNDA:0,_RINvMNtCshcgQatfXnqn_9kv_engine8manifestNtB3_8Manifest7recoverpEB5_
FNDA:0,_RNvMNtCshcgQatfXnqn_9kv_engine8manifestNtB2_8Manifest10add_record
FNDA:0,_RNvMNtCshcgQatfXnqn_9kv_engine8manifestNtB2_8Manifest11add_records
FNDA:0,_RNvMNtCshcgQatfXnqn_9kv_engine8manifestNtB2_8Manifest13snapshot_path
FNDA:0,_RNvMNtCshcgQatfXnqn_9kv_engine8manifestNtB2_8Manifest20add_record_when_init
FNDA:0,_RNvMNtCshcgQatfXnqn_9kv_engine8manifestNtB2_8Manifest21add_records_when_init
FNDA:0,_RNvMNtCshcgQatfXnqn_9kv_engine8manifestNtB2_8Manifest8snapshot
FNDA:0,_RNvMNtCshcgQatfXnqn_9kv_engine8manifestNtB2_8Manifest9file_size
FNF:9
FNH:9
DA:79,252
DA:80,252
DA:81,252
DA:83,252
DA:84,252
DA:85,252
DA:86,252
DA:87,252
DA:96,21
DA:97,21
DA:98,21
DA:100,21
DA:101,21
DA:106,21
DA:107,4
DA:108,17
DA:111,1
DA:113,1
DA:114,1
DA:115,1
DA:116,1
DA:117,1
DA:119,16
DA:122,21
DA:123,5
DA:124,5
DA:125,5
DA:126,16
DA:131,21
DA:132,21
DA:133,21
DA:134,21
DA:135,21
DA:136,21
DA:137,21
DA:139,0
DA:140,0
DA:141,0
DA:142,0
DA:143,0
DA:144,0
DA:147,21
DA:148,21
DA:150,21
DA:151,16
DA:152,16
DA:153,55
DA:154,55
DA:156,5
DA:158,21
DA:159,21
DA:160,21
DA:161,21
DA:162,21
DA:163,21
DA:164,21
DA:165,21
DA:187,7
DA:188,7
DA:189,7
DA:192,7
DA:194,7
DA:195,7
DA:196,7
DA:197,7
DA:198,7
DA:199,7
DA:204,7
DA:206,7
DA:207,7
DA:208,7
DA:209,7
DA:210,7
DA:213,7
DA:216,7
DA:217,7
DA:218,7
DA:219,7
DA:222,7
DA:223,7
DA:226,16
DA:227,16
DA:228,16
DA:230,16
DA:231,16
DA:234,28
DA:235,28
DA:236,28
DA:237,28
DA:238,28
DA:239,28
DA:242,524
DA:243,524
DA:244,524
DA:245,524
DA:246,524
DA:247,524
DA:248,524
DA:251,4
DA:252,4
DA:253,4
DA:254,4
DA:255,4
DA:256,4
DA:257,4
DA:259,542
DA:260,542
DA:261,542
DA:266,795
DA:267,795
DA:268,0
DA:269,795
DA:270,795
DA:271,1046
DA:272,1046
DA:274,795
DA:275,795
DA:277,795
DA:278,795
BRF:0
BRH:0
LF:119
LH:112
end_of_record
SF:/home/liu/proj/toy-kv-engine/kv-engine/src/mem_table.rs
FN:349,_RNCNvMs1_NtCs9G0t2qE8rAk_9kv_engine9mem_tableNtB7_8MemTable13get_raw_exact0B9_
FN:368,_RNCNvMs1_NtCs9G0t2qE8rAk_9kv_engine9mem_tableNtB7_8MemTable13get_raw_exacts_0B9_
FN:787,_RNCNvMs1_NtCs9G0t2qE8rAk_9kv_engine9mem_tableNtB7_8MemTable9put_batch0B9_
FN:795,_RNCNvMs1_NtCs9G0t2qE8rAk_9kv_engine9mem_tableNtB7_8MemTable9put_batchs_0B9_
FN:53,_RNvMNtCs9G0t2qE8rAk_9kv_engine9mem_tableNtB2_12WriteProfile8snapshot
FN:140,_RNvMs0_NtCs9G0t2qE8rAk_9kv_engine9mem_tableNtB5_26ImmutableRangeTombstoneSet4iter
FN:341,_RNvMs1_NtCs9G0t2qE8rAk_9kv_engine9mem_tableNtB5_8MemTable13get_raw_exact
FN:642,_RNvMs1_NtCs9G0t2qE8rAk_9kv_engine9mem_tableNtB5_8MemTable13put_tombstone
FN:894,_RNvMs1_NtCs9G0t2qE8rAk_9kv_engine9mem_tableNtB5_8MemTable13write_profile
FN:443,_RNvMs1_NtCs9G0t2qE8rAk_9kv_engine9mem_tableNtB5_8MemTable17get_versioned_raw
FN:952,_RNvMs1_NtCs9G0t2qE8rAk_9kv_engine9mem_tableNtB5_8MemTable33put_range_tombstone_batch_no_sync
FN:324,_RNvMs1_NtCs9G0t2qE8rAk_9kv_engine9mem_tableNtB5_8MemTable7get_raw
FN:886,_RNvMs1_NtCs9G0t2qE8rAk_9kv_engine9mem_tableNtB5_8MemTable7raw_map
FN:784,_RNvMs1_NtCs9G0t2qE8rAk_9kv_engine9mem_tableNtB5_8MemTable9put_batch
FN:77,_RNvMs_NtCs9G0t2qE8rAk_9kv_engine9mem_tableNtB4_20WriteProfileSnapshot11wal_sync_ms
FN:89,_RNvMs_NtCs9G0t2qE8rAk_9kv_engine9mem_tableNtB4_20WriteProfileSnapshot12wal_sync_pct
FN:73,_RNvMs_NtCs9G0t2qE8rAk_9kv_engine9mem_tableNtB4_20WriteProfileSnapshot12wal_write_ms
FN:81,_RNvMs_NtCs9G0t2qE8rAk_9kv_engine9mem_tableNtB4_20WriteProfileSnapshot18memtable_insert_ms
FN:85,_RNvMs_NtCs9G0t2qE8rAk_9kv_engine9mem_tableNtB4_20WriteProfileSnapshot8total_ms
FN:719,_RNvXNvMs1_NtCs9G0t2qE8rAk_9kv_engine9mem_tableNtB8_8MemTable17publish_raw_batchNtB2_12AbortOnPanicNtNtNtCslfAf2Mv2Tp5_4core3ops4drop4Drop4drop
FN:1014,_RNvXNvMs1_NtCs9G0t2qE8rAk_9kv_engine9mem_tableNtB8_8MemTable24publish_range_tombstonesNtB2_12AbortOnPanicNtNtNtCslfAf2Mv2Tp5_4core3ops4drop4Drop4drop
FN:201,_RINvMs1_NtCs9G0t2qE8rAk_9kv_engine9mem_tableNtB6_8MemTable15create_with_walNtNtCskaANe6KdTWL_3std4path7PathBufEB8_
FN:201,_RINvMs1_NtCs9G0t2qE8rAk_9kv_engine9mem_tableNtB6_8MemTable15create_with_walRNtNtCskaANe6KdTWL_3std4path7PathBufEB8_
FN:218,_RINvMs1_NtCs9G0t2qE8rAk_9kv_engine9mem_tableNtB6_8MemTable16recover_from_walRNtNtCskaANe6KdTWL_3std4path7PathBufEB8_
FN:209,_RINvMs1_NtCs9G0t2qE8rAk_9kv_engine9mem_tableNtB6_8MemTable20create_with_wal_vlogRNtNtCskaANe6KdTWL_3std4path7PathBufEB8_
FN:233,_RINvMs1_NtCs9G0t2qE8rAk_9kv_engine9mem_tableNtB6_8MemTable21recover_from_wal_vlogRNtNtCskaANe6KdTWL_3std4path7PathBufEB8_
FN:242,_RINvMs1_NtCs9G0t2qE8rAk_9kv_engine9mem_tableNtB6_8MemTable38recover_from_wal_with_range_tombstonesNtNtCskaANe6KdTWL_3std4path7PathBufEB8_
FN:242,_RINvMs1_NtCs9G0t2qE8rAk_9kv_engine9mem_tableNtB6_8MemTable38recover_from_wal_with_range_tombstonesRNtNtCskaANe6KdTWL_3std4path7PathBufEB8_
FN:1204,_RNCNCNvXs2_NtCs9G0t2qE8rAk_9kv_engine9mem_tableNtNtB9_33ouroboros_impl_mem_table_iterator16MemTableIteratorNtNtBb_9iterators15StorageIterator4next00Bb_
FN:1205,_RNCNCNvXs2_NtCs9G0t2qE8rAk_9kv_engine9mem_tableNtNtB9_33ouroboros_impl_mem_table_iterator16MemTableIteratorNtNtBb_9iterators15StorageIterator4next0s_0Bb_
FN:124,_RNCNvMs0_NtCs9G0t2qE8rAk_9kv_engine9mem_tableNtB7_26ImmutableRangeTombstoneSet9fragments0B9_
FN:312,_RNCNvMs1_NtCs9G0t2qE8rAk_9kv_engine9mem_tableNtB7_8MemTable13get_with_hash0B9_
FN:1154,_RNCNvMs1_NtCs9G0t2qE8rAk_9kv_engine9mem_tableNtB7_8MemTable13range_overlap0B9_
FN:823,_RNCNvMs1_NtCs9G0t2qE8rAk_9kv_engine9mem_tableNtB7_8MemTable14scan_with_vlog0B9_
FN:696,_RNCNvMs1_NtCs9G0t2qE8rAk_9kv_engine9mem_tableNtB7_8MemTable15write_wal_batch0B9_
FN:701,_RNCNvMs1_NtCs9G0t2qE8rAk_9kv_engine9mem_tableNtB7_8MemTable15write_wal_batchs0_0B9_
FN:704,_RNCNvMs1_NtCs9G0t2qE8rAk_9kv_engine9mem_tableNtB7_8MemTable15write_wal_batchs_0B9_
FN:336,_RNCNvMs1_NtCs9G0t2qE8rAk_9kv_engine9mem_tableNtB7_8MemTable17get_raw_with_hash0B9_
FN:1056,_RNCNvMs1_NtCs9G0t2qE8rAk_9kv_engine9mem_tableNtB7_8MemTable23freeze_range_tombstones0B9_
FN:387,_RNCNvMs1_NtCs9G0t2qE8rAk_9kv_engine9mem_tableNtB7_8MemTable23get_raw_exact_with_hash0B9_
FN:1202,_RNCNvXs2_NtCs9G0t2qE8rAk_9kv_engine9mem_tableNtNtB7_33ouroboros_impl_mem_table_iterator16MemTableIteratorNtNtB9_9iterators15StorageIterator4next0B9_
FN:1208,_RNCNvXs2_NtCs9G0t2qE8rAk_9kv_engine9mem_tableNtNtB7_33ouroboros_impl_mem_table_iterator16MemTableIteratorNtNtB9_9iterators15StorageIterator4nexts_0B9_
FN:134,_RNvMs0_NtCs9G0t2qE8rAk_9kv_engine9mem_tableNtB5_26ImmutableRangeTombstoneSet18newest_covering_ts
FN:114,_RNvMs0_NtCs9G0t2qE8rAk_9kv_engine9mem_tableNtB5_26ImmutableRangeTombstoneSet24from_range_tombstone_set
FN:123,_RNvMs0_NtCs9G0t2qE8rAk_9kv_engine9mem_tableNtB5_26ImmutableRangeTombstoneSet9fragments
FN:769,_RNvMs1_NtCs9G0t2qE8rAk_9kv_engine9mem_tableNtB5_8MemTable10commit_wal
FN:196,_RNvMs1_NtCs9G0t2qE8rAk_9kv_engine9mem_tableNtB5_8MemTable11create_vlog
FN:1083,_RNvMs1_NtCs9G0t2qE8rAk_9kv_engine9mem_tableNtB5_8MemTable12bound_to_end
FN:291,_RNvMs1_NtCs9G0t2qE8rAk_9kv_engine9mem_tableNtB5_8MemTable12vlog_enabled
FN:396,_RNvMs1_NtCs9G0t2qE8rAk_9kv_engine9mem_tableNtB5_8MemTable13get_versioned
FN:308,_RNvMs1_NtCs9G0t2qE8rAk_9kv_engine9mem_tableNtB5_8MemTable13get_with_hash
FN:663,_RNvMs1_NtCs9G0t2qE8rAk_9kv_engine9mem_tableNtB5_8MemTable13put_raw_batch
FN:1096,_RNvMs1_NtCs9G0t2qE8rAk_9kv_engine9mem_tableNtB5_8MemTable13range_overlap
FN:258,_RNvMs1_NtCs9G0t2qE8rAk_9kv_engine9mem_tableNtB5_8MemTable13rebuild_bloom
FN:1069,_RNvMs1_NtCs9G0t2qE8rAk_9kv_engine9mem_tableNtB5_8MemTable14bound_to_start
FN:814,_RNvMs1_NtCs9G0t2qE8rAk_9kv_engine9mem_tableNtB5_8MemTable14scan_with_vlog
FN:687,_RNvMs1_NtCs9G0t2qE8rAk_9kv_engine9mem_tableNtB5_8MemTable15write_wal_batch
FN:877,_RNvMs1_NtCs9G0t2qE8rAk_9kv_engine9mem_tableNtB5_8MemTable16approximate_size
FN:1044,_RNvMs1_NtCs9G0t2qE8rAk_9kv_engine9mem_tableNtB5_8MemTable16range_tombstones
FN:332,_RNvMs1_NtCs9G0t2qE8rAk_9kv_engine9mem_tableNtB5_8MemTable17get_raw_with_hash
FN:716,_RNvMs1_NtCs9G0t2qE8rAk_9kv_engine9mem_tableNtB5_8MemTable17publish_raw_batch
FN:900,_RNvMs1_NtCs9G0t2qE8rAk_9kv_engine9mem_tableNtB5_8MemTable17set_write_profile
FN:556,_RNvMs1_NtCs9G0t2qE8rAk_9kv_engine9mem_tableNtB5_8MemTable19batch_get_versioned
FN:907,_RNvMs1_NtCs9G0t2qE8rAk_9kv_engine9mem_tableNtB5_8MemTable19put_range_tombstone
FN:1063,_RNvMs1_NtCs9G0t2qE8rAk_9kv_engine9mem_tableNtB5_8MemTable20imm_range_tombstones
FN:654,_RNvMs1_NtCs9G0t2qE8rAk_9kv_engine9mem_tableNtB5_8MemTable20put_raw_batch_no_wal
FN:680,_RNvMs1_NtCs9G0t2qE8rAk_9kv_engine9mem_tableNtB5_8MemTable20write_wal_batch_only
FN:606,_RNvMs1_NtCs9G0t2qE8rAk_9kv_engine9mem_tableNtB5_8MemTable21collect_vlog_file_ids
FN:278,_RNvMs1_NtCs9G0t2qE8rAk_9kv_engine9mem_tableNtB5_8MemTable21for_testing_get_slice
FN:274,_RNvMs1_NtCs9G0t2qE8rAk_9kv_engine9mem_tableNtB5_8MemTable21for_testing_put_slice
FN:282,_RNvMs1_NtCs9G0t2qE8rAk_9kv_engine9mem_tableNtB5_8MemTable22for_testing_scan_slice
FN:503,_RNvMs1_NtCs9G0t2qE8rAk_9kv_engine9mem_tableNtB5_8MemTable22get_versioned_with_buf
FN:1054,_RNvMs1_NtCs9G0t2qE8rAk_9kv_engine9mem_tableNtB5_8MemTable23freeze_range_tombstones
FN:377,_RNvMs1_NtCs9G0t2qE8rAk_9kv_engine9mem_tableNtB5_8MemTable23get_raw_exact_with_hash
FN:1006,_RNvMs1_NtCs9G0t2qE8rAk_9kv_engine9mem_tableNtB5_8MemTable24publish_range_tombstones
FN:925,_RNvMs1_NtCs9G0t2qE8rAk_9kv_engine9mem_tableNtB5_8MemTable25put_range_tombstone_batch
FN:450,_RNvMs1_NtCs9G0t2qE8rAk_9kv_engine9mem_tableNtB5_8MemTable26get_versioned_raw_with_key
FN:873,_RNvMs1_NtCs9G0t2qE8rAk_9kv_engine9mem_tableNtB5_8MemTable2id
FN:980,_RNvMs1_NtCs9G0t2qE8rAk_9kv_engine9mem_tableNtB5_8MemTable34put_range_tombstone_batch_wal_only
FN:461,_RNvMs1_NtCs9G0t2qE8rAk_9kv_engine9mem_tableNtB5_8MemTable35get_versioned_raw_with_key_and_hash
FN:299,_RNvMs1_NtCs9G0t2qE8rAk_9kv_engine9mem_tableNtB5_8MemTable3get
FN:627,_RNvMs1_NtCs9G0t2qE8rAk_9kv_engine9mem_tableNtB5_8MemTable3put
FN:809,_RNvMs1_NtCs9G0t2qE8rAk_9kv_engine9mem_tableNtB5_8MemTable4scan
FN:842,_RNvMs1_NtCs9G0t2qE8rAk_9kv_engine9mem_tableNtB5_8MemTable5flush
FN:181,_RNvMs1_NtCs9G0t2qE8rAk_9kv_engine9mem_tableNtB5_8MemTable6create
FN:648,_RNvMs1_NtCs9G0t2qE8rAk_9kv_engine9mem_tableNtB5_8MemTable7put_raw
FN:890,_RNvMs1_NtCs9G0t2qE8rAk_9kv_engine9mem_tableNtB5_8MemTable8is_empty
FN:800,_RNvMs1_NtCs9G0t2qE8rAk_9kv_engine9mem_tableNtB5_8MemTable8sync_wal
FN:170,_RNvNtCs9G0t2qE8rAk_9kv_engine9mem_table9map_bound
FN:1220,_RNvMs3_NtCs9G0t2qE8rAk_9kv_engine9mem_tableNtNtB5_33ouroboros_impl_mem_table_iterator16MemTableIterator18resolve_item_value
FN:1193,_RNvXs2_NtCs9G0t2qE8rAk_9kv_engine9mem_tableNtNtB5_33ouroboros_impl_mem_table_iterator16MemTableIteratorNtNtB7_9iterators15StorageIterator3key
FN:1201,_RNvXs2_NtCs9G0t2qE8rAk_9kv_engine9mem_tableNtNtB5_33ouroboros_impl_mem_table_iterator16MemTableIteratorNtNtB7_9iterators15StorageIterator4next
FN:1189,_RNvXs2_NtCs9G0t2qE8rAk_9kv_engine9mem_tableNtNtB5_33ouroboros_impl_mem_table_iterator16MemTableIteratorNtNtB7_9iterators15StorageIterator5value
FN:1197,_RNvXs2_NtCs9G0t2qE8rAk_9kv_engine9mem_tableNtNtB5_33ouroboros_impl_mem_table_iterator16MemTableIteratorNtNtB7_9iterators15StorageIterator8is_valid
FN:242,_RINvMs1_NtCshcgQatfXnqn_9kv_engine9mem_tableNtB6_8MemTable38recover_from_wal_with_range_tombstonesNtNtCskaANe6KdTWL_3std4path7PathBufECsjsmMyPGR1S6_10write_perf
FN:218,_RINvMs1_NtCshcgQatfXnqn_9kv_engine9mem_tableNtB6_8MemTable16recover_from_walpEB8_
FN:209,_RINvMs1_NtCshcgQatfXnqn_9kv_engine9mem_tableNtB6_8MemTable20create_with_wal_vlogpEB8_
FN:233,_RINvMs1_NtCshcgQatfXnqn_9kv_engine9mem_tableNtB6_8MemTable21recover_from_wal_vlogpEB8_
FN:242,_RINvMs1_NtCshcgQatfXnqn_9kv_engine9mem_tableNtB6_8MemTable38recover_from_wal_with_range_tombstonespEB8_
FN:1220,_RNvMs3_NtCshcgQatfXnqn_9kv_engine9mem_tableNtNtB5_33ouroboros_impl_mem_table_iterator16MemTableIterator18resolve_item_value
FN:1193,_RNvXs2_NtCshcgQatfXnqn_9kv_engine9mem_tableNtNtB5_33ouroboros_impl_mem_table_iterator16MemTableIteratorNtNtB7_9iterators15StorageIterator3key
FN:1201,_RNvXs2_NtCshcgQatfXnqn_9kv_engine9mem_tableNtNtB5_33ouroboros_impl_mem_table_iterator16MemTableIteratorNtNtB7_9iterators15StorageIterator4next
FN:1189,_RNvXs2_NtCshcgQatfXnqn_9kv_engine9mem_tableNtNtB5_33ouroboros_impl_mem_table_iterator16MemTableIteratorNtNtB7_9iterators15StorageIterator5value
FN:1197,_RNvXs2_NtCshcgQatfXnqn_9kv_engine9mem_tableNtNtB5_33ouroboros_impl_mem_table_iterator16MemTableIteratorNtNtB7_9iterators15StorageIterator8is_valid
FN:201,_RINvMs1_NtCshcgQatfXnqn_9kv_engine9mem_tableNtB6_8MemTable15create_with_walNtNtCskaANe6KdTWL_3std4path7PathBufEB8_
FN:1204,_RNCNCNvXs2_NtCshcgQatfXnqn_9kv_engine9mem_tableNtNtB9_33ouroboros_impl_mem_table_iterator16MemTableIteratorNtNtBb_9iterators15StorageIterator4next00Bb_
FN:1205,_RNCNCNvXs2_NtCshcgQatfXnqn_9kv_engine9mem_tableNtNtB9_33ouroboros_impl_mem_table_iterator16MemTableIteratorNtNtBb_9iterators15StorageIterator4next0s_0Bb_
FN:124,_RNCNvMs0_NtCshcgQatfXnqn_9kv_engine9mem_tableNtB7_26ImmutableRangeTombstoneSet9fragments0B9_
FN:349,_RNCNvMs1_NtCshcgQatfXnqn_9kv_engine9mem_tableNtB7_8MemTable13get_raw_exact0B9_
FN:368,_RNCNvMs1_NtCshcgQatfXnqn_9kv_engine9mem_tableNtB7_8MemTable13get_raw_exacts_0B9_
FN:312,_RNCNvMs1_NtCshcgQatfXnqn_9kv_engine9mem_tableNtB7_8MemTable13get_with_hash0B9_
FN:1154,_RNCNvMs1_NtCshcgQatfXnqn_9kv_engine9mem_tableNtB7_8MemTable13range_overlap0B9_
FN:823,_RNCNvMs1_NtCshcgQatfXnqn_9kv_engine9mem_tableNtB7_8MemTable14scan_with_vlog0B9_
FN:696,_RNCNvMs1_NtCshcgQatfXnqn_9kv_engine9mem_tableNtB7_8MemTable15write_wal_batch0B9_
FN:701,_RNCNvMs1_NtCshcgQatfXnqn_9kv_engine9mem_tableNtB7_8MemTable15write_wal_batchs0_0B9_
FN:704,_RNCNvMs1_NtCshcgQatfXnqn_9kv_engine9mem_tableNtB7_8MemTable15write_wal_batchs_0B9_
FN:336,_RNCNvMs1_NtCshcgQatfXnqn_9kv_engine9mem_tableNtB7_8MemTable17get_raw_with_hash0B9_
FN:1056,_RNCNvMs1_NtCshcgQatfXnqn_9kv_engine9mem_tableNtB7_8MemTable23freeze_range_tombstones0B9_
FN:387,_RNCNvMs1_NtCshcgQatfXnqn_9kv_engine9mem_tableNtB7_8MemTable23get_raw_exact_with_hash0B9_
FN:787,_RNCNvMs1_NtCshcgQatfXnqn_9kv_engine9mem_tableNtB7_8MemTable9put_batch0B9_
FN:795,_RNCNvMs1_NtCshcgQatfXnqn_9kv_engine9mem_tableNtB7_8MemTable9put_batchs_0B9_
FN:1202,_RNCNvXs2_NtCshcgQatfXnqn_9kv_engine9mem_tableNtNtB7_33ouroboros_impl_mem_table_iterator16MemTableIteratorNtNtB9_9iterators15StorageIterator4next0B9_
FN:1208,_RNCNvXs2_NtCshcgQatfXnqn_9kv_engine9mem_tableNtNtB7_33ouroboros_impl_mem_table_iterator16MemTableIteratorNtNtB9_9iterators15StorageIterator4nexts_0B9_
FN:53,_RNvMNtCshcgQatfXnqn_9kv_engine9mem_tableNtB2_12WriteProfile8snapshot
FN:134,_RNvMs0_NtCshcgQatfXnqn_9kv_engine9mem_tableNtB5_26ImmutableRangeTombstoneSet18newest_covering_ts
FN:114,_RNvMs0_NtCshcgQatfXnqn_9kv_engine9mem_tableNtB5_26ImmutableRangeTombstoneSet24from_range_tombstone_set
FN:140,_RNvMs0_NtCshcgQatfXnqn_9kv_engine9mem_tableNtB5_26ImmutableRangeTombstoneSet4iter
FN:123,_RNvMs0_NtCshcgQatfXnqn_9kv_engine9mem_tableNtB5_26ImmutableRangeTombstoneSet9fragments
FN:769,_RNvMs1_NtCshcgQatfXnqn_9kv_engine9mem_tableNtB5_8MemTable10commit_wal
FN:196,_RNvMs1_NtCshcgQatfXnqn_9kv_engine9mem_tableNtB5_8MemTable11create_vlog
FN:1083,_RNvMs1_NtCshcgQatfXnqn_9kv_engine9mem_tableNtB5_8MemTable12bound_to_end
FN:291,_RNvMs1_NtCshcgQatfXnqn_9kv_engine9mem_tableNtB5_8MemTable12vlog_enabled
FN:341,_RNvMs1_NtCshcgQatfXnqn_9kv_engine9mem_tableNtB5_8MemTable13get_raw_exact
FN:396,_RNvMs1_NtCshcgQatfXnqn_9kv_engine9mem_tableNtB5_8MemTable13get_versioned
FN:308,_RNvMs1_NtCshcgQatfXnqn_9kv_engine9mem_tableNtB5_8MemTable13get_with_hash
FN:663,_RNvMs1_NtCshcgQatfXnqn_9kv_engine9mem_tableNtB5_8MemTable13put_raw_batch
FN:642,_RNvMs1_NtCshcgQatfXnqn_9kv_engine9mem_tableNtB5_8MemTable13put_tombstone
FN:1096,_RNvMs1_NtCshcgQatfXnqn_9kv_engine9mem_tableNtB5_8MemTable13range_overlap
FN:258,_RNvMs1_NtCshcgQatfXnqn_9kv_engine9mem_tableNtB5_8MemTable13rebuild_bloom
FN:894,_RNvMs1_NtCshcgQatfXnqn_9kv_engine9mem_tableNtB5_8MemTable13write_profile
FN:1069,_RNvMs1_NtCshcgQatfXnqn_9kv_engine9mem_tableNtB5_8MemTable14bound_to_start
FN:814,_RNvMs1_NtCshcgQatfXnqn_9kv_engine9mem_tableNtB5_8MemTable14scan_with_vlog
FN:687,_RNvMs1_NtCshcgQatfXnqn_9kv_engine9mem_tableNtB5_8MemTable15write_wal_batch
FN:877,_RNvMs1_NtCshcgQatfXnqn_9kv_engine9mem_tableNtB5_8MemTable16approximate_size
FN:1044,_RNvMs1_NtCshcgQatfXnqn_9kv_engine9mem_tableNtB5_8MemTable16range_tombstones
FN:332,_RNvMs1_NtCshcgQatfXnqn_9kv_engine9mem_tableNtB5_8MemTable17get_raw_with_hash
FN:443,_RNvMs1_NtCshcgQatfXnqn_9kv_engine9mem_tableNtB5_8MemTable17get_versioned_raw
FN:716,_RNvMs1_NtCshcgQatfXnqn_9kv_engine9mem_tableNtB5_8MemTable17publish_raw_batch
FN:900,_RNvMs1_NtCshcgQatfXnqn_9kv_engine9mem_tableNtB5_8MemTable17set_write_profile
FN:556,_RNvMs1_NtCshcgQatfXnqn_9kv_engine9mem_tableNtB5_8MemTable19batch_get_versioned
FN:907,_RNvMs1_NtCshcgQatfXnqn_9kv_engine9mem_tableNtB5_8MemTable19put_range_tombstone
FN:1063,_RNvMs1_NtCshcgQatfXnqn_9kv_engine9mem_tableNtB5_8MemTable20imm_range_tombstones
FN:654,_RNvMs1_NtCshcgQatfXnqn_9kv_engine9mem_tableNtB5_8MemTable20put_raw_batch_no_wal
FN:680,_RNvMs1_NtCshcgQatfXnqn_9kv_engine9mem_tableNtB5_8MemTable20write_wal_batch_only
FN:606,_RNvMs1_NtCshcgQatfXnqn_9kv_engine9mem_tableNtB5_8MemTable21collect_vlog_file_ids
FN:278,_RNvMs1_NtCshcgQatfXnqn_9kv_engine9mem_tableNtB5_8MemTable21for_testing_get_slice
FN:274,_RNvMs1_NtCshcgQatfXnqn_9kv_engine9mem_tableNtB5_8MemTable21for_testing_put_slice
FN:282,_RNvMs1_NtCshcgQatfXnqn_9kv_engine9mem_tableNtB5_8MemTable22for_testing_scan_slice
FN:503,_RNvMs1_NtCshcgQatfXnqn_9kv_engine9mem_tableNtB5_8MemTable22get_versioned_with_buf
FN:1054,_RNvMs1_NtCshcgQatfXnqn_9kv_engine9mem_tableNtB5_8MemTable23freeze_range_tombstones
FN:377,_RNvMs1_NtCshcgQatfXnqn_9kv_engine9mem_tableNtB5_8MemTable23get_raw_exact_with_hash
FN:1006,_RNvMs1_NtCshcgQatfXnqn_9kv_engine9mem_tableNtB5_8MemTable24publish_range_tombstones
FN:925,_RNvMs1_NtCshcgQatfXnqn_9kv_engine9mem_tableNtB5_8MemTable25put_range_tombstone_batch
FN:450,_RNvMs1_NtCshcgQatfXnqn_9kv_engine9mem_tableNtB5_8MemTable26get_versioned_raw_with_key
FN:873,_RNvMs1_NtCshcgQatfXnqn_9kv_engine9mem_tableNtB5_8MemTable2id
FN:952,_RNvMs1_NtCshcgQatfXnqn_9kv_engine9mem_tableNtB5_8MemTable33put_range_tombstone_batch_no_sync
FN:980,_RNvMs1_NtCshcgQatfXnqn_9kv_engine9mem_tableNtB5_8MemTable34put_range_tombstone_batch_wal_only
FN:461,_RNvMs1_NtCshcgQatfXnqn_9kv_engine9mem_tableNtB5_8MemTable35get_versioned_raw_with_key_and_hash
FN:299,_RNvMs1_NtCshcgQatfXnqn_9kv_engine9mem_tableNtB5_8MemTable3get
FN:627,_RNvMs1_NtCshcgQatfXnqn_9kv_engine9mem_tableNtB5_8MemTable3put
FN:809,_RNvMs1_NtCshcgQatfXnqn_9kv_engine9mem_tableNtB5_8MemTable4scan
FN:842,_RNvMs1_NtCshcgQatfXnqn_9kv_engine9mem_tableNtB5_8MemTable5flush
FN:181,_RNvMs1_NtCshcgQatfXnqn_9kv_engine9mem_tableNtB5_8MemTable6create
FN:324,_RNvMs1_NtCshcgQatfXnqn_9kv_engine9mem_tableNtB5_8MemTable7get_raw
FN:648,_RNvMs1_NtCshcgQatfXnqn_9kv_engine9mem_tableNtB5_8MemTable7put_raw
FN:890,_RNvMs1_NtCshcgQatfXnqn_9kv_engine9mem_tableNtB5_8MemTable8is_empty
FN:800,_RNvMs1_NtCshcgQatfXnqn_9kv_engine9mem_tableNtB5_8MemTable8sync_wal
FN:784,_RNvMs1_NtCshcgQatfXnqn_9kv_engine9mem_tableNtB5_8MemTable9put_batch
FN:77,_RNvMs_NtCshcgQatfXnqn_9kv_engine9mem_tableNtB4_20WriteProfileSnapshot11wal_sync_ms
FN:89,_RNvMs_NtCshcgQatfXnqn_9kv_engine9mem_tableNtB4_20WriteProfileSnapshot12wal_sync_pct
FN:73,_RNvMs_NtCshcgQatfXnqn_9kv_engine9mem_tableNtB4_20WriteProfileSnapshot12wal_write_ms
FN:81,_RNvMs_NtCshcgQatfXnqn_9kv_engine9mem_tableNtB4_20WriteProfileSnapshot18memtable_insert_ms
FN:85,_RNvMs_NtCshcgQatfXnqn_9kv_engine9mem_tableNtB4_20WriteProfileSnapshot8total_ms
FN:170,_RNvNtCshcgQatfXnqn_9kv_engine9mem_table9map_bound
FN:719,_RNvXNvMs1_NtCshcgQatfXnqn_9kv_engine9mem_tableNtB8_8MemTable17publish_raw_batchNtB2_12AbortOnPanicNtNtNtCslfAf2Mv2Tp5_4core3ops4drop4Drop4drop
FN:1014,_RNvXNvMs1_NtCshcgQatfXnqn_9kv_engine9mem_tableNtB8_8MemTable24publish_range_tombstonesNtB2_12AbortOnPanicNtNtNtCslfAf2Mv2Tp5_4core3ops4drop4Drop4drop
FNDA:0,_RNCNvMs1_NtCs9G0t2qE8rAk_9kv_engine9mem_tableNtB7_8MemTable13get_raw_exact0B9_
FNDA:0,_RNCNvMs1_NtCs9G0t2qE8rAk_9kv_engine9mem_tableNtB7_8MemTable13get_raw_exacts_0B9_
FNDA:0,_RNCNvMs1_NtCs9G0t2qE8rAk_9kv_engine9mem_tableNtB7_8MemTable9put_batch0B9_
FNDA:0,_RNCNvMs1_NtCs9G0t2qE8rAk_9kv_engine9mem_tableNtB7_8MemTable9put_batchs_0B9_
FNDA:0,_RNvMNtCs9G0t2qE8rAk_9kv_engine9mem_tableNtB2_12WriteProfile8snapshot
FNDA:0,_RNvMs0_NtCs9G0t2qE8rAk_9kv_engine9mem_tableNtB5_26ImmutableRangeTombstoneSet4iter
FNDA:0,_RNvMs1_NtCs9G0t2qE8rAk_9kv_engine9mem_tableNtB5_8MemTable13get_raw_exact
FNDA:0,_RNvMs1_NtCs9G0t2qE8rAk_9kv_engine9mem_tableNtB5_8MemTable13put_tombstone
FNDA:0,_RNvMs1_NtCs9G0t2qE8rAk_9kv_engine9mem_tableNtB5_8MemTable13write_profile
FNDA:0,_RNvMs1_NtCs9G0t2qE8rAk_9kv_engine9mem_tableNtB5_8MemTable17get_versioned_raw
FNDA:0,_RNvMs1_NtCs9G0t2qE8rAk_9kv_engine9mem_tableNtB5_8MemTable33put_range_tombstone_batch_no_sync
FNDA:0,_RNvMs1_NtCs9G0t2qE8rAk_9kv_engine9mem_tableNtB5_8MemTable7get_raw
FNDA:0,_RNvMs1_NtCs9G0t2qE8rAk_9kv_engine9mem_tableNtB5_8MemTable7raw_map
FNDA:0,_RNvMs1_NtCs9G0t2qE8rAk_9kv_engine9mem_tableNtB5_8MemTable9put_batch
FNDA:0,_RNvMs_NtCs9G0t2qE8rAk_9kv_engine9mem_tableNtB4_20WriteProfileSnapshot11wal_sync_ms
FNDA:0,_RNvMs_NtCs9G0t2qE8rAk_9kv_engine9mem_tableNtB4_20WriteProfileSnapshot12wal_sync_pct
FNDA:0,_RNvMs_NtCs9G0t2qE8rAk_9kv_engine9mem_tableNtB4_20WriteProfileSnapshot12wal_write_ms
FNDA:0,_RNvMs_NtCs9G0t2qE8rAk_9kv_engine9mem_tableNtB4_20WriteProfileSnapshot18memtable_insert_ms
FNDA:0,_RNvMs_NtCs9G0t2qE8rAk_9kv_engine9mem_tableNtB4_20WriteProfileSnapshot8total_ms
FNDA:24585,_RNvXNvMs1_NtCs9G0t2qE8rAk_9kv_engine9mem_tableNtB8_8MemTable17publish_raw_batchNtB2_12AbortOnPanicNtNtNtCslfAf2Mv2Tp5_4core3ops4drop4Drop4drop
FNDA:53,_RNvXNvMs1_NtCs9G0t2qE8rAk_9kv_engine9mem_tableNtB8_8MemTable24publish_range_tombstonesNtB2_12AbortOnPanicNtNtNtCslfAf2Mv2Tp5_4core3ops4drop4Drop4drop
FNDA:18,_RINvMs1_NtCs9G0t2qE8rAk_9kv_engine9mem_tableNtB6_8MemTable15create_with_walNtNtCskaANe6KdTWL_3std4path7PathBufEB8_
FNDA:5,_RINvMs1_NtCs9G0t2qE8rAk_9kv_engine9mem_tableNtB6_8MemTable15create_with_walRNtNtCskaANe6KdTWL_3std4path7PathBufEB8_
FNDA:2,_RINvMs1_NtCs9G0t2qE8rAk_9kv_engine9mem_tableNtB6_8MemTable16recover_from_walRNtNtCskaANe6KdTWL_3std4path7PathBufEB8_
FNDA:1,_RINvMs1_NtCs9G0t2qE8rAk_9kv_engine9mem_tableNtB6_8MemTable20create_with_wal_vlogRNtNtCskaANe6KdTWL_3std4path7PathBufEB8_
FNDA:1,_RINvMs1_NtCs9G0t2qE8rAk_9kv_engine9mem_tableNtB6_8MemTable21recover_from_wal_vlogRNtNtCskaANe6KdTWL_3std4path7PathBufEB8_
FNDA:1,_RINvMs1_NtCs9G0t2qE8rAk_9kv_engine9mem_tableNtB6_8MemTable38recover_from_wal_with_range_tombstonesNtNtCskaANe6KdTWL_3std4path7PathBufEB8_
FNDA:1,_RINvMs1_NtCs9G0t2qE8rAk_9kv_engine9mem_tableNtB6_8MemTable38recover_from_wal_with_range_tombstonesRNtNtCskaANe6KdTWL_3std4path7PathBufEB8_
FNDA:150,_RNCNCNvXs2_NtCs9G0t2qE8rAk_9kv_engine9mem_tableNtNtB9_33ouroboros_impl_mem_table_iterator16MemTableIteratorNtNtBb_9iterators15StorageIterator4next00Bb_
FNDA:93,_RNCNCNvXs2_NtCs9G0t2qE8rAk_9kv_engine9mem_tableNtNtB9_33ouroboros_impl_mem_table_iterator16MemTableIteratorNtNtBb_9iterators15StorageIterator4next0s_0Bb_
FNDA:3,_RNCNvMs0_NtCs9G0t2qE8rAk_9kv_engine9mem_tableNtB7_26ImmutableRangeTombstoneSet9fragments0B9_
FNDA:6,_RNCNvMs1_NtCs9G0t2qE8rAk_9kv_engine9mem_tableNtB7_8MemTable13get_with_hash0B9_
FNDA:4,_RNCNvMs1_NtCs9G0t2qE8rAk_9kv_engine9mem_tableNtB7_8MemTable13range_overlap0B9_
FNDA:100,_RNCNvMs1_NtCs9G0t2qE8rAk_9kv_engine9mem_tableNtB7_8MemTable14scan_with_vlog0B9_
FNDA:16,_RNCNvMs1_NtCs9G0t2qE8rAk_9kv_engine9mem_tableNtB7_8MemTable15write_wal_batch0B9_
FNDA:16,_RNCNvMs1_NtCs9G0t2qE8rAk_9kv_engine9mem_tableNtB7_8MemTable15write_wal_batchs0_0B9_
FNDA:16,_RNCNvMs1_NtCs9G0t2qE8rAk_9kv_engine9mem_tableNtB7_8MemTable15write_wal_batchs_0B9_
FNDA:0,_RNCNvMs1_NtCs9G0t2qE8rAk_9kv_engine9mem_tableNtB7_8MemTable17get_raw_with_hash0B9_
FNDA:15,_RNCNvMs1_NtCs9G0t2qE8rAk_9kv_engine9mem_tableNtB7_8MemTable23freeze_range_tombstones0B9_
FNDA:15,_RNCNvMs1_NtCs9G0t2qE8rAk_9kv_engine9mem_tableNtB7_8MemTable23get_raw_exact_with_hash0B9_
FNDA:243,_RNCNvXs2_NtCs9G0t2qE8rAk_9kv_engine9mem_tableNtNtB7_33ouroboros_impl_mem_table_iterator16MemTableIteratorNtNtB9_9iterators15StorageIterator4next0B9_
FNDA:243,_RNCNvXs2_NtCs9G0t2qE8rAk_9kv_engine9mem_tableNtNtB7_33ouroboros_impl_mem_table_iterator16MemTableIteratorNtNtB9_9iterators15StorageIterator4nexts_0B9_
FNDA:6,_RNvMs0_NtCs9G0t2qE8rAk_9kv_engine9mem_tableNtB5_26ImmutableRangeTombstoneSet18newest_covering_ts
FNDA:15,_RNvMs0_NtCs9G0t2qE8rAk_9kv_engine9mem_tableNtB5_26ImmutableRangeTombstoneSet24from_range_tombstone_set
FNDA:11,_RNvMs0_NtCs9G0t2qE8rAk_9kv_engine9mem_tableNtB5_26ImmutableRangeTombstoneSet9fragments
FNDA:24575,_RNvMs1_NtCs9G0t2qE8rAk_9kv_engine9mem_tableNtB5_8MemTable10commit_wal
FNDA:2,_RNvMs1_NtCs9G0t2qE8rAk_9kv_engine9mem_tableNtB5_8MemTable11create_vlog
FNDA:19,_RNvMs1_NtCs9G0t2qE8rAk_9kv_engine9mem_tableNtB5_8MemTable12bound_to_end
FNDA:5,_RNvMs1_NtCs9G0t2qE8rAk_9kv_engine9mem_tableNtB5_8MemTable12vlog_enabled
FNDA:1,_RNvMs1_NtCs9G0t2qE8rAk_9kv_engine9mem_tableNtB5_8MemTable13get_versioned
FNDA:6,_RNvMs1_NtCs9G0t2qE8rAk_9kv_engine9mem_tableNtB5_8MemTable13get_with_hash
FNDA:15,_RNvMs1_NtCs9G0t2qE8rAk_9kv_engine9mem_tableNtB5_8MemTable13put_raw_batch
FNDA:23,_RNvMs1_NtCs9G0t2qE8rAk_9kv_engine9mem_tableNtB5_8MemTable13range_overlap
FNDA:4,_RNvMs1_NtCs9G0t2qE8rAk_9kv_engine9mem_tableNtB5_8MemTable13rebuild_bloom
FNDA:19,_RNvMs1_NtCs9G0t2qE8rAk_9kv_engine9mem_tableNtB5_8MemTable14bound_to_start
FNDA:100,_RNvMs1_NtCs9G0t2qE8rAk_9kv_engine9mem_tableNtB5_8MemTable14scan_with_vlog
FNDA:24572,_RNvMs1_NtCs9G0t2qE8rAk_9kv_engine9mem_tableNtB5_8MemTable15write_wal_batch
FNDA:24634,_RNvMs1_NtCs9G0t2qE8rAk_9kv_engine9mem_tableNtB5_8MemTable16approximate_size
FNDA:5963,_RNvMs1_NtCs9G0t2qE8rAk_9kv_engine9mem_tableNtB5_8MemTable16range_tombstones
FNDA:0,_RNvMs1_NtCs9G0t2qE8rAk_9kv_engine9mem_tableNtB5_8MemTable17get_raw_with_hash
FNDA:24585,_RNvMs1_NtCs9G0t2qE8rAk_9kv_engine9mem_tableNtB5_8MemTable17publish_raw_batch
FNDA:516,_RNvMs1_NtCs9G0t2qE8rAk_9kv_engine9mem_tableNtB5_8MemTable17set_write_profile
FNDA:0,_RNvMs1_NtCs9G0t2qE8rAk_9kv_engine9mem_tableNtB5_8MemTable19batch_get_versioned
FNDA:48,_RNvMs1_NtCs9G0t2qE8rAk_9kv_engine9mem_tableNtB5_8MemTable19put_range_tombstone
FNDA:93,_RNvMs1_NtCs9G0t2qE8rAk_9kv_engine9mem_tableNtB5_8MemTable20imm_range_tombstones
FNDA:13,_RNvMs1_NtCs9G0t2qE8rAk_9kv_engine9mem_tableNtB5_8MemTable20put_raw_batch_no_wal
FNDA:24557,_RNvMs1_NtCs9G0t2qE8rAk_9kv_engine9mem_tableNtB5_8MemTable20write_wal_batch_only
FNDA:54,_RNvMs1_NtCs9G0t2qE8rAk_9kv_engine9mem_tableNtB5_8MemTable21collect_vlog_file_ids
FNDA:6,_RNvMs1_NtCs9G0t2qE8rAk_9kv_engine9mem_tableNtB5_8MemTable21for_testing_get_slice
FNDA:15,_RNvMs1_NtCs9G0t2qE8rAk_9kv_engine9mem_tableNtB5_8MemTable21for_testing_put_slice
FNDA:6,_RNvMs1_NtCs9G0t2qE8rAk_9kv_engine9mem_tableNtB5_8MemTable22for_testing_scan_slice
FNDA:82,_RNvMs1_NtCs9G0t2qE8rAk_9kv_engine9mem_tableNtB5_8MemTable22get_versioned_with_buf
FNDA:259,_RNvMs1_NtCs9G0t2qE8rAk_9kv_engine9mem_tableNtB5_8MemTable23freeze_range_tombstones
FNDA:225,_RNvMs1_NtCs9G0t2qE8rAk_9kv_engine9mem_tableNtB5_8MemTable23get_raw_exact_with_hash
FNDA:53,_RNvMs1_NtCs9G0t2qE8rAk_9kv_engine9mem_tableNtB5_8MemTable24publish_range_tombstones
FNDA:51,_RNvMs1_NtCs9G0t2qE8rAk_9kv_engine9mem_tableNtB5_8MemTable25put_range_tombstone_batch
FNDA:43,_RNvMs1_NtCs9G0t2qE8rAk_9kv_engine9mem_tableNtB5_8MemTable26get_versioned_raw_with_key
FNDA:971,_RNvMs1_NtCs9G0t2qE8rAk_9kv_engine9mem_tableNtB5_8MemTable2id
FNDA:3,_RNvMs1_NtCs9G0t2qE8rAk_9kv_engine9mem_tableNtB5_8MemTable34put_range_tombstone_batch_wal_only
FNDA:5888,_RNvMs1_NtCs9G0t2qE8rAk_9kv_engine9mem_tableNtB5_8MemTable35get_versioned_raw_with_key_and_hash
FNDA:6,_RNvMs1_NtCs9G0t2qE8rAk_9kv_engine9mem_tableNtB5_8MemTable3get
FNDA:15,_RNvMs1_NtCs9G0t2qE8rAk_9kv_engine9mem_tableNtB5_8MemTable3put
FNDA:6,_RNvMs1_NtCs9G0t2qE8rAk_9kv_engine9mem_tableNtB5_8MemTable4scan
FNDA:198,_RNvMs1_NtCs9G0t2qE8rAk_9kv_engine9mem_tableNtB5_8MemTable5flush
FNDA:835,_RNvMs1_NtCs9G0t2qE8rAk_9kv_engine9mem_tableNtB5_8MemTable6create
FNDA:15,_RNvMs1_NtCs9G0t2qE8rAk_9kv_engine9mem_tableNtB5_8MemTable7put_raw
FNDA:6005,_RNvMs1_NtCs9G0t2qE8rAk_9kv_engine9mem_tableNtB5_8MemTable8is_empty
FNDA:0,_RNvMs1_NtCs9G0t2qE8rAk_9kv_engine9mem_tableNtB5_8MemTable8sync_wal
FNDA:204,_RNvNtCs9G0t2qE8rAk_9kv_engine9mem_table9map_bound
FNDA:243,_RNvMs3_NtCs9G0t2qE8rAk_9kv_engine9mem_tableNtNtB5_33ouroboros_impl_mem_table_iterator16MemTableIterator18resolve_item_value
FNDA:1035,_RNvXs2_NtCs9G0t2qE8rAk_9kv_engine9mem_tableNtNtB5_33ouroboros_impl_mem_table_iterator16MemTableIteratorNtNtB7_9iterators15StorageIterator3key
FNDA:243,_RNvXs2_NtCs9G0t2qE8rAk_9kv_engine9mem_tableNtNtB5_33ouroboros_impl_mem_table_iterator16MemTableIteratorNtNtB7_9iterators15StorageIterator4next
FNDA:190,_RNvXs2_NtCs9G0t2qE8rAk_9kv_engine9mem_tableNtNtB5_33ouroboros_impl_mem_table_iterator16MemTableIteratorNtNtB7_9iterators15StorageIterator5value
FNDA:1560,_RNvXs2_NtCs9G0t2qE8rAk_9kv_engine9mem_tableNtNtB5_33ouroboros_impl_mem_table_iterator16MemTableIteratorNtNtB7_9iterators15StorageIterator8is_valid
FNDA:0,_RINvMs1_NtCshcgQatfXnqn_9kv_engine9mem_tableNtB6_8MemTable38recover_from_wal_with_range_tombstonesNtNtCskaANe6KdTWL_3std4path7PathBufECsjsmMyPGR1S6_10write_perf
FNDA:0,_RINvMs1_NtCshcgQatfXnqn_9kv_engine9mem_tableNtB6_8MemTable16recover_from_walpEB8_
FNDA:0,_RINvMs1_NtCshcgQatfXnqn_9kv_engine9mem_tableNtB6_8MemTable20create_with_wal_vlogpEB8_
FNDA:0,_RINvMs1_NtCshcgQatfXnqn_9kv_engine9mem_tableNtB6_8MemTable21recover_from_wal_vlogpEB8_
FNDA:0,_RINvMs1_NtCshcgQatfXnqn_9kv_engine9mem_tableNtB6_8MemTable38recover_from_wal_with_range_tombstonespEB8_
FNDA:0,_RNvMs3_NtCshcgQatfXnqn_9kv_engine9mem_tableNtNtB5_33ouroboros_impl_mem_table_iterator16MemTableIterator18resolve_item_value
FNDA:0,_RNvXs2_NtCshcgQatfXnqn_9kv_engine9mem_tableNtNtB5_33ouroboros_impl_mem_table_iterator16MemTableIteratorNtNtB7_9iterators15StorageIterator3key
FNDA:0,_RNvXs2_NtCshcgQatfXnqn_9kv_engine9mem_tableNtNtB5_33ouroboros_impl_mem_table_iterator16MemTableIteratorNtNtB7_9iterators15StorageIterator4next
FNDA:0,_RNvXs2_NtCshcgQatfXnqn_9kv_engine9mem_tableNtNtB5_33ouroboros_impl_mem_table_iterator16MemTableIteratorNtNtB7_9iterators15StorageIterator5value
FNDA:0,_RNvXs2_NtCshcgQatfXnqn_9kv_engine9mem_tableNtNtB5_33ouroboros_impl_mem_table_iterator16MemTableIteratorNtNtB7_9iterators15StorageIterator8is_valid
FNDA:0,_RINvMs1_NtCshcgQatfXnqn_9kv_engine9mem_tableNtB6_8MemTable15create_with_walNtNtCskaANe6KdTWL_3std4path7PathBufEB8_
FNDA:0,_RNCNCNvXs2_NtCshcgQatfXnqn_9kv_engine9mem_tableNtNtB9_33ouroboros_impl_mem_table_iterator16MemTableIteratorNtNtBb_9iterators15StorageIterator4next00Bb_
FNDA:0,_RNCNCNvXs2_NtCshcgQatfXnqn_9kv_engine9mem_tableNtNtB9_33ouroboros_impl_mem_table_iterator16MemTableIteratorNtNtBb_9iterators15StorageIterator4next0s_0Bb_
FNDA:0,_RNCNvMs0_NtCshcgQatfXnqn_9kv_engine9mem_tableNtB7_26ImmutableRangeTombstoneSet9fragments0B9_
FNDA:0,_RNCNvMs1_NtCshcgQatfXnqn_9kv_engine9mem_tableNtB7_8MemTable13get_raw_exact0B9_
FNDA:0,_RNCNvMs1_NtCshcgQatfXnqn_9kv_engine9mem_tableNtB7_8MemTable13get_raw_exacts_0B9_
FNDA:0,_RNCNvMs1_NtCshcgQatfXnqn_9kv_engine9mem_tableNtB7_8MemTable13get_with_hash0B9_
FNDA:0,_RNCNvMs1_NtCshcgQatfXnqn_9kv_engine9mem_tableNtB7_8MemTable13range_overlap0B9_
FNDA:0,_RNCNvMs1_NtCshcgQatfXnqn_9kv_engine9mem_tableNtB7_8MemTable14scan_with_vlog0B9_
FNDA:0,_RNCNvMs1_NtCshcgQatfXnqn_9kv_engine9mem_tableNtB7_8MemTable15write_wal_batch0B9_
FNDA:0,_RNCNvMs1_NtCshcgQatfXnqn_9kv_engine9mem_tableNtB7_8MemTable15write_wal_batchs0_0B9_
FNDA:0,_RNCNvMs1_NtCshcgQatfXnqn_9kv_engine9mem_tableNtB7_8MemTable15write_wal_batchs_0B9_
FNDA:0,_RNCNvMs1_NtCshcgQatfXnqn_9kv_engine9mem_tableNtB7_8MemTable17get_raw_with_hash0B9_
FNDA:0,_RNCNvMs1_NtCshcgQatfXnqn_9kv_engine9mem_tableNtB7_8MemTable23freeze_range_tombstones0B9_
FNDA:0,_RNCNvMs1_NtCshcgQatfXnqn_9kv_engine9mem_tableNtB7_8MemTable23get_raw_exact_with_hash0B9_
FNDA:0,_RNCNvMs1_NtCshcgQatfXnqn_9kv_engine9mem_tableNtB7_8MemTable9put_batch0B9_
FNDA:0,_RNCNvMs1_NtCshcgQatfXnqn_9kv_engine9mem_tableNtB7_8MemTable9put_batchs_0B9_
FNDA:0,_RNCNvXs2_NtCshcgQatfXnqn_9kv_engine9mem_tableNtNtB7_33ouroboros_impl_mem_table_iterator16MemTableIteratorNtNtB9_9iterators15StorageIterator4next0B9_
FNDA:0,_RNCNvXs2_NtCshcgQatfXnqn_9kv_engine9mem_tableNtNtB7_33ouroboros_impl_mem_table_iterator16MemTableIteratorNtNtB9_9iterators15StorageIterator4nexts_0B9_
FNDA:0,_RNvMNtCshcgQatfXnqn_9kv_engine9mem_tableNtB2_12WriteProfile8snapshot
FNDA:0,_RNvMs0_NtCshcgQatfXnqn_9kv_engine9mem_tableNtB5_26ImmutableRangeTombstoneSet18newest_covering_ts
FNDA:0,_RNvMs0_NtCshcgQatfXnqn_9kv_engine9mem_tableNtB5_26ImmutableRangeTombstoneSet24from_range_tombstone_set
FNDA:0,_RNvMs0_NtCshcgQatfXnqn_9kv_engine9mem_tableNtB5_26ImmutableRangeTombstoneSet4iter
FNDA:0,_RNvMs0_NtCshcgQatfXnqn_9kv_engine9mem_tableNtB5_26ImmutableRangeTombstoneSet9fragments
FNDA:0,_RNvMs1_NtCshcgQatfXnqn_9kv_engine9mem_tableNtB5_8MemTable10commit_wal
FNDA:0,_RNvMs1_NtCshcgQatfXnqn_9kv_engine9mem_tableNtB5_8MemTable11create_vlog
FNDA:0,_RNvMs1_NtCshcgQatfXnqn_9kv_engine9mem_tableNtB5_8MemTable12bound_to_end
FNDA:0,_RNvMs1_NtCshcgQatfXnqn_9kv_engine9mem_tableNtB5_8MemTable12vlog_enabled
FNDA:0,_RNvMs1_NtCshcgQatfXnqn_9kv_engine9mem_tableNtB5_8MemTable13get_raw_exact
FNDA:0,_RNvMs1_NtCshcgQatfXnqn_9kv_engine9mem_tableNtB5_8MemTable13get_versioned
FNDA:0,_RNvMs1_NtCshcgQatfXnqn_9kv_engine9mem_tableNtB5_8MemTable13get_with_hash
FNDA:0,_RNvMs1_NtCshcgQatfXnqn_9kv_engine9mem_tableNtB5_8MemTable13put_raw_batch
FNDA:0,_RNvMs1_NtCshcgQatfXnqn_9kv_engine9mem_tableNtB5_8MemTable13put_tombstone
FNDA:0,_RNvMs1_NtCshcgQatfXnqn_9kv_engine9mem_tableNtB5_8MemTable13range_overlap
FNDA:0,_RNvMs1_NtCshcgQatfXnqn_9kv_engine9mem_tableNtB5_8MemTable13rebuild_bloom
FNDA:0,_RNvMs1_NtCshcgQatfXnqn_9kv_engine9mem_tableNtB5_8MemTable13write_profile
FNDA:0,_RNvMs1_NtCshcgQatfXnqn_9kv_engine9mem_tableNtB5_8MemTable14bound_to_start
FNDA:0,_RNvMs1_NtCshcgQatfXnqn_9kv_engine9mem_tableNtB5_8MemTable14scan_with_vlog
FNDA:0,_RNvMs1_NtCshcgQatfXnqn_9kv_engine9mem_tableNtB5_8MemTable15write_wal_batch
FNDA:0,_RNvMs1_NtCshcgQatfXnqn_9kv_engine9mem_tableNtB5_8MemTable16approximate_size
FNDA:0,_RNvMs1_NtCshcgQatfXnqn_9kv_engine9mem_tableNtB5_8MemTable16range_tombstones
FNDA:0,_RNvMs1_NtCshcgQatfXnqn_9kv_engine9mem_tableNtB5_8MemTable17get_raw_with_hash
FNDA:0,_RNvMs1_NtCshcgQatfXnqn_9kv_engine9mem_tableNtB5_8MemTable17get_versioned_raw
FNDA:0,_RNvMs1_NtCshcgQatfXnqn_9kv_engine9mem_tableNtB5_8MemTable17publish_raw_batch
FNDA:0,_RNvMs1_NtCshcgQatfXnqn_9kv_engine9mem_tableNtB5_8MemTable17set_write_profile
FNDA:0,_RNvMs1_NtCshcgQatfXnqn_9kv_engine9mem_tableNtB5_8MemTable19batch_get_versioned
FNDA:0,_RNvMs1_NtCshcgQatfXnqn_9kv_engine9mem_tableNtB5_8MemTable19put_range_tombstone
FNDA:0,_RNvMs1_NtCshcgQatfXnqn_9kv_engine9mem_tableNtB5_8MemTable20imm_range_tombstones
FNDA:0,_RNvMs1_NtCshcgQatfXnqn_9kv_engine9mem_tableNtB5_8MemTable20put_raw_batch_no_wal
FNDA:0,_RNvMs1_NtCshcgQatfXnqn_9kv_engine9mem_tableNtB5_8MemTable20write_wal_batch_only
FNDA:0,_RNvMs1_NtCshcgQatfXnqn_9kv_engine9mem_tableNtB5_8MemTable21collect_vlog_file_ids
FNDA:0,_RNvMs1_NtCshcgQatfXnqn_9kv_engine9mem_tableNtB5_8MemTable21for_testing_get_slice
FNDA:0,_RNvMs1_NtCshcgQatfXnqn_9kv_engine9mem_tableNtB5_8MemTable21for_testing_put_slice
FNDA:0,_RNvMs1_NtCshcgQatfXnqn_9kv_engine9mem_tableNtB5_8MemTable22for_testing_scan_slice
FNDA:0,_RNvMs1_NtCshcgQatfXnqn_9kv_engine9mem_tableNtB5_8MemTable22get_versioned_with_buf
FNDA:0,_RNvMs1_NtCshcgQatfXnqn_9kv_engine9mem_tableNtB5_8MemTable23freeze_range_tombstones
FNDA:0,_RNvMs1_NtCshcgQatfXnqn_9kv_engine9mem_tableNtB5_8MemTable23get_raw_exact_with_hash
FNDA:0,_RNvMs1_NtCshcgQatfXnqn_9kv_engine9mem_tableNtB5_8MemTable24publish_range_tombstones
FNDA:0,_RNvMs1_NtCshcgQatfXnqn_9kv_engine9mem_tableNtB5_8MemTable25put_range_tombstone_batch
FNDA:0,_RNvMs1_NtCshcgQatfXnqn_9kv_engine9mem_tableNtB5_8MemTable26get_versioned_raw_with_key
FNDA:0,_RNvMs1_NtCshcgQatfXnqn_9kv_engine9mem_tableNtB5_8MemTable2id
FNDA:0,_RNvMs1_NtCshcgQatfXnqn_9kv_engine9mem_tableNtB5_8MemTable33put_range_tombstone_batch_no_sync
FNDA:0,_RNvMs1_NtCshcgQatfXnqn_9kv_engine9mem_tableNtB5_8MemTable34put_range_tombstone_batch_wal_only
FNDA:0,_RNvMs1_NtCshcgQatfXnqn_9kv_engine9mem_tableNtB5_8MemTable35get_versioned_raw_with_key_and_hash
FNDA:0,_RNvMs1_NtCshcgQatfXnqn_9kv_engine9mem_tableNtB5_8MemTable3get
FNDA:0,_RNvMs1_NtCshcgQatfXnqn_9kv_engine9mem_tableNtB5_8MemTable3put
FNDA:0,_RNvMs1_NtCshcgQatfXnqn_9kv_engine9mem_tableNtB5_8MemTable4scan
FNDA:0,_RNvMs1_NtCshcgQatfXnqn_9kv_engine9mem_tableNtB5_8MemTable5flush
FNDA:0,_RNvMs1_NtCshcgQatfXnqn_9kv_engine9mem_tableNtB5_8MemTable6create
FNDA:0,_RNvMs1_NtCshcgQatfXnqn_9kv_engine9mem_tableNtB5_8MemTable7get_raw
FNDA:0,_RNvMs1_NtCshcgQatfXnqn_9kv_engine9mem_tableNtB5_8MemTable7put_raw
FNDA:0,_RNvMs1_NtCshcgQatfXnqn_9kv_engine9mem_tableNtB5_8MemTable8is_empty
FNDA:0,_RNvMs1_NtCshcgQatfXnqn_9kv_engine9mem_tableNtB5_8MemTable8sync_wal
FNDA:0,_RNvMs1_NtCshcgQatfXnqn_9kv_engine9mem_tableNtB5_8MemTable9put_batch
FNDA:0,_RNvMs_NtCshcgQatfXnqn_9kv_engine9mem_tableNtB4_20WriteProfileSnapshot11wal_sync_ms
FNDA:0,_RNvMs_NtCshcgQatfXnqn_9kv_engine9mem_tableNtB4_20WriteProfileSnapshot12wal_sync_pct
FNDA:0,_RNvMs_NtCshcgQatfXnqn_9kv_engine9mem_tableNtB4_20WriteProfileSnapshot12wal_write_ms
FNDA:0,_RNvMs_NtCshcgQatfXnqn_9kv_engine9mem_tableNtB4_20WriteProfileSnapshot18memtable_insert_ms
FNDA:0,_RNvMs_NtCshcgQatfXnqn_9kv_engine9mem_tableNtB4_20WriteProfileSnapshot8total_ms
FNDA:0,_RNvNtCshcgQatfXnqn_9kv_engine9mem_table9map_bound
FNDA:0,_RNvXNvMs1_NtCshcgQatfXnqn_9kv_engine9mem_tableNtB8_8MemTable17publish_raw_batchNtB2_12AbortOnPanicNtNtNtCslfAf2Mv2Tp5_4core3ops4drop4Drop4drop
FNDA:0,_RNvXNvMs1_NtCshcgQatfXnqn_9kv_engine9mem_tableNtB8_8MemTable24publish_range_tombstonesNtB2_12AbortOnPanicNtNtNtCslfAf2Mv2Tp5_4core3ops4drop4Drop4drop
FNF:92
FNH:69
DA:53,0
DA:54,0
DA:55,0
DA:56,0
DA:57,0
DA:58,0
DA:59,0
DA:60,0
DA:61,0
DA:73,0
DA:74,0
DA:75,0
DA:77,0
DA:78,0
DA:79,0
DA:81,0
DA:82,0
DA:83,0
DA:85,0
DA:86,0
DA:87,0
DA:89,0
DA:90,0
DA:91,0
DA:92,0
DA:94,0
DA:96,0
DA:114,15
DA:115,15
DA:116,15
DA:117,15
DA:118,15
DA:119,15
DA:123,11
DA:124,11
DA:125,3
DA:126,3
DA:127,3
DA:128,11
DA:134,6
DA:135,6
DA:136,6
DA:137,6
DA:140,0
DA:141,0
DA:142,0
DA:170,204
DA:171,204
DA:172,64
DA:173,56
DA:174,84
DA:176,204
DA:181,835
DA:182,835
DA:183,835
DA:184,835
DA:185,835
DA:186,835
DA:187,835
DA:188,835
DA:189,835
DA:190,835
DA:191,835
DA:192,835
DA:193,835
DA:196,2
DA:197,2
DA:198,2
DA:201,23
DA:202,23
DA:203,23
DA:205,23
DA:206,23
DA:209,1
DA:210,1
DA:211,1
DA:218,2
DA:219,2
DA:220,2
DA:221,2
DA:222,2
DA:223,2
DA:224,2
DA:225,2
DA:226,2
DA:228,2
DA:229,2
DA:233,1
DA:234,1
DA:235,1
DA:242,2
DA:243,2
DA:244,2
DA:245,2
DA:246,2
DA:247,2
DA:248,2
DA:249,2
DA:250,2
DA:251,2
DA:253,2
DA:254,2
DA:258,4
DA:259,4
DA:260,7
DA:261,7
DA:262,7
DA:263,7
DA:264,7
DA:265,7
DA:267,0
DA:269,7
DA:270,7
DA:272,4
DA:274,15
DA:275,15
DA:276,15
DA:278,6
DA:279,6
DA:280,6
DA:282,6
DA:283,6
DA:284,6
DA:285,6
DA:286,6
DA:287,6
DA:288,6
DA:291,5
DA:292,5
DA:293,5
DA:299,6
DA:300,6
DA:302,6
DA:303,6
DA:308,6
DA:309,6
DA:310,0
DA:311,6
DA:312,6
DA:313,6
DA:314,6
DA:315,6
DA:317,0
DA:319,6
DA:320,6
DA:324,0
DA:325,0
DA:327,0
DA:328,0
DA:332,0
DA:333,0
DA:334,0
DA:335,0
DA:336,0
DA:337,0
DA:341,0
DA:344,0
DA:349,0
DA:350,0
DA:351,0
DA:352,0
DA:353,0
DA:354,0
DA:355,0
DA:356,0
DA:357,0
DA:358,0
DA:359,0
DA:360,0
DA:361,0
DA:363,0
DA:364,0
DA:366,0
DA:367,0
DA:368,0
DA:369,0
DA:377,225
DA:378,225
DA:379,225
DA:380,225
DA:381,225
DA:382,225
DA:383,182
DA:384,43
DA:385,43
DA:386,43
DA:387,43
DA:388,225
DA:396,1
DA:397,1
DA:398,0
DA:399,1
DA:400,1
DA:401,1
DA:402,0
DA:403,1
DA:404,1
DA:405,1
DA:406,1
DA:407,1
DA:408,1
DA:409,1
DA:411,1
DA:412,1
DA:414,0
DA:415,1
DA:417,0
DA:422,1
DA:423,1
DA:424,1
DA:426,0
DA:428,1
DA:429,1
DA:430,0
DA:431,1
DA:432,1
DA:433,1
DA:434,1
DA:436,0
DA:439,0
DA:440,1
DA:443,0
DA:444,0
DA:445,0
DA:446,0
DA:450,43
DA:451,43
DA:452,43
DA:453,43
DA:454,43
DA:455,43
DA:456,43
DA:457,43
DA:461,5888
DA:462,5888
DA:463,5888
DA:464,5888
DA:465,5888
DA:466,5888
DA:467,5888
DA:468,5658
DA:469,230
DA:470,230
DA:471,53
DA:472,177
DA:473,177
DA:474,177
DA:475,177
DA:476,177
DA:477,180
DA:478,180
DA:479,180
DA:480,180
DA:481,0
DA:482,180
DA:484,0
DA:486,180
DA:487,180
DA:488,180
DA:490,0
DA:492,180
DA:493,180
DA:494,4
DA:495,176
DA:496,176
DA:498,1
DA:499,5888
DA:503,82
DA:504,82
DA:505,82
DA:506,82
DA:507,82
DA:508,82
DA:509,82
DA:510,82
DA:511,9
DA:512,73
DA:513,73
DA:514,30
DA:515,43
DA:516,43
DA:517,43
DA:518,43
DA:519,43
DA:520,43
DA:521,43
DA:522,43
DA:523,43
DA:524,43
DA:525,43
DA:526,43
DA:527,43
DA:528,0
DA:529,43
DA:531,0
DA:533,43
DA:534,43
DA:535,43
DA:537,0
DA:539,43
DA:540,43
DA:541,0
DA:542,43
DA:543,43
DA:545,0
DA:546,82
DA:556,0
DA:557,0
DA:558,0
DA:559,0
DA:560,0
DA:561,0
DA:562,0
DA:563,0
DA:564,0
DA:565,0
DA:566,0
DA:567,0
DA:569,0
DA:570,0
DA:571,0
DA:573,0
DA:574,0
DA:575,0
DA:576,0
DA:577,0
DA:579,0
DA:580,0
DA:581,0
DA:582,0
DA:583,0
DA:584,0
DA:585,0
DA:586,0
DA:587,0
DA:588,0
DA:590,0
DA:592,0
DA:593,0
DA:594,0
DA:595,0
DA:596,0
DA:597,0
DA:600,0
DA:601,0
DA:606,54
DA:607,54
DA:608,54
DA:609,0
DA:610,54
DA:611,54
DA:612,2
DA:613,2
DA:614,2
DA:615,0
DA:616,0
DA:617,0
DA:618,2
DA:620,54
DA:621,54
DA:627,15
DA:628,15
DA:629,15
DA:630,15
DA:632,15
DA:633,15
DA:642,0
DA:643,0
DA:644,0
DA:648,15
DA:649,15
DA:650,15
DA:654,13
DA:655,13
DA:656,0
DA:657,13
DA:658,13
DA:659,13
DA:663,15
DA:664,15
DA:665,0
DA:666,15
DA:667,15
DA:668,15
DA:669,15
DA:670,15
DA:680,24557
DA:681,24557
DA:682,0
DA:683,24557
DA:684,24557
DA:685,24557
DA:687,24572
DA:688,24572
DA:689,0
DA:690,24572
DA:691,24572
DA:692,24556
DA:694,16
DA:695,16
DA:696,16
DA:697,16
DA:699,16
DA:700,16
DA:701,16
DA:704,16
DA:707,16
DA:713,16
DA:714,24572
DA:716,24585
DA:719,24585
DA:720,24585
DA:721,0
DA:724,0
DA:725,24585
DA:726,24585
DA:728,24585
DA:732,24585
DA:733,24628
DA:734,24628
DA:735,24628
DA:736,24628
DA:737,24628
DA:738,24628
DA:739,24628
DA:740,24628
DA:741,24628
DA:742,24628
DA:743,24628
DA:744,24628
DA:745,24628
DA:746,24628
DA:747,24628
DA:748,24628
DA:749,24628
DA:750,24628
DA:762,24585
DA:763,24585
DA:769,24575
DA:770,24575
DA:773,16
DA:779,24559
DA:780,24575
DA:781,24575
DA:784,0
DA:785,0
DA:786,0
DA:787,0
DA:788,0
DA:789,0
DA:790,0
DA:791,0
DA:792,0
DA:793,0
DA:794,0
DA:795,0
DA:797,0
DA:798,0
DA:800,0
DA:801,0
DA:802,0
DA:803,0
DA:805,0
DA:806,0
DA:809,6
DA:810,6
DA:811,6
DA:814,100
DA:815,100
DA:816,100
DA:817,100
DA:818,100
DA:819,100
DA:820,100
DA:821,100
DA:822,100
DA:823,100
DA:824,100
DA:825,100
DA:826,100
DA:827,100
DA:829,100
DA:831,100
DA:832,100
DA:834,100
DA:835,100
DA:842,198
DA:843,18165
DA:844,18165
DA:845,18165
DA:846,18165
DA:847,18165
DA:848,18165
DA:849,18150
DA:852,36
DA:855,18129
DA:856,18129
DA:858,0
DA:860,18129
DA:865,198
DA:866,13
DA:867,13
DA:868,185
DA:870,198
DA:871,198
DA:873,971
DA:874,971
DA:875,971
DA:877,24634
DA:878,24634
DA:879,24634
DA:880,24634
DA:881,24634
DA:886,0
DA:887,0
DA:888,0
DA:890,6005
DA:891,6005
DA:892,6005
DA:894,0
DA:895,0
DA:896,0
DA:900,516
DA:901,516
DA:902,516
DA:907,48
DA:908,48
DA:909,48
DA:910,48
DA:911,48
DA:912,48
DA:913,48
DA:914,48
DA:915,48
DA:925,51
DA:926,51
DA:927,51
DA:928,51
DA:929,51
DA:930,51
DA:931,51
DA:932,1
DA:933,50
DA:936,50
DA:937,50
DA:938,50
DA:941,50
DA:942,3
DA:943,3
DA:944,47
DA:946,50
DA:947,51
DA:952,0
DA:953,0
DA:954,0
DA:955,0
DA:956,0
DA:957,0
DA:958,0
DA:959,0
DA:960,0
DA:961,0
DA:962,0
DA:963,0
DA:965,0
DA:966,0
DA:968,0
DA:970,0
DA:971,0
DA:980,3
DA:981,3
DA:982,3
DA:983,3
DA:984,3
DA:985,3
DA:986,3
DA:987,0
DA:988,3
DA:989,3
DA:990,3
DA:991,3
DA:993,3
DA:994,0
DA:995,3
DA:997,3
DA:998,3
DA:1006,53
DA:1007,53
DA:1008,53
DA:1009,53
DA:1010,53
DA:1011,53
DA:1014,53
DA:1015,53
DA:1016,0
DA:1019,0
DA:1020,53
DA:1021,53
DA:1023,53
DA:1026,56
DA:1027,56
DA:1028,56
DA:1029,56
DA:1030,56
DA:1031,56
DA:1032,56
DA:1033,56
DA:1034,56
DA:1035,56
DA:1036,56
DA:1037,56
DA:1038,56
DA:1040,53
DA:1041,53
DA:1044,5963
DA:1045,5963
DA:1046,5963
DA:1054,259
DA:1055,259
DA:1056,15
DA:1057,15
DA:1058,15
DA:1059,244
DA:1060,259
DA:1063,93
DA:1064,93
DA:1065,93
DA:1069,19
DA:1070,19
DA:1071,6
DA:1072,7
DA:1073,7
DA:1074,7
DA:1075,7
DA:1077,6
DA:1079,19
DA:1083,19
DA:1084,19
DA:1085,11
DA:1086,11
DA:1087,11
DA:1088,11
DA:1090,2
DA:1091,6
DA:1093,19
DA:1096,23
DA:1098,23
DA:1099,6
DA:1100,6
DA:1101,6
DA:1102,6
DA:1108,6
DA:1109,6
DA:1110,6
DA:1111,6
DA:1112,6
DA:1113,6
DA:1114,6
DA:1115,6
DA:1116,0
DA:1118,0
DA:1119,0
DA:1120,0
DA:1121,0
DA:1123,6
DA:1124,3
DA:1125,3
DA:1126,0
DA:1128,6
DA:1129,3
DA:1130,1
DA:1131,2
DA:1133,6
DA:1135,17
DA:1138,23
DA:1139,4
DA:1140,19
DA:1146,19
DA:1147,19
DA:1148,19
DA:1149,9
DA:1150,4
DA:1151,4
DA:1152,4
DA:1153,4
DA:1154,4
DA:1155,4
DA:1156,2
DA:1158,23
DA:1189,190
DA:1190,190
DA:1191,190
DA:1193,1035
DA:1194,1035
DA:1195,1035
DA:1197,1560
DA:1198,1560
DA:1199,1560
DA:1201,243
DA:1202,243
DA:1203,243
DA:1204,243
DA:1205,243
DA:1206,243
DA:1208,243
DA:1209,243
DA:1210,243
DA:1211,243
DA:1213,243
DA:1214,243
DA:1220,243
DA:1221,243
DA:1222,243
DA:1223,93
DA:1224,150
DA:1227,150
DA:1228,10
DA:1229,140
DA:1231,140
DA:1232,140
DA:1233,0
DA:1236,0
DA:1237,0
DA:1239,0
DA:1240,0
DA:1244,0
DA:1245,0
DA:1246,0
DA:1248,243
BRF:0
BRH:0
LF:746
LH:543
end_of_record
SF:/home/liu/proj/toy-kv-engine/kv-engine/src/mvcc.rs
FN:209,_RNCNvMNtCs9G0t2qE8rAk_9kv_engine4mvccNtB4_12LsmMvccInner20write_batch_wal_only0B6_
FN:229,_RNCNvMNtCs9G0t2qE8rAk_9kv_engine4mvccNtB4_12LsmMvccInner20write_batch_wal_onlys0_0B6_
FN:241,_RNCNvMNtCs9G0t2qE8rAk_9kv_engine4mvccNtB4_12LsmMvccInner20write_batch_wal_onlys1_0B6_
FN:215,_RNCNvMNtCs9G0t2qE8rAk_9kv_engine4mvccNtB4_12LsmMvccInner20write_batch_wal_onlys_0B6_
FN:357,_RNvXs0_NtCs9G0t2qE8rAk_9kv_engine4mvccNtB5_9ReadGuardNtNtNtCslfAf2Mv2Tp5_4core3ops4drop4Drop4drop
FN:369,_RNvNtNtCs9G0t2qE8rAk_9kv_engine4mvcc5tests10test_write
FN:643,_RNvNtNtCs9G0t2qE8rAk_9kv_engine4mvcc5tests17serializable_opts
FN:386,_RNvNtNtCs9G0t2qE8rAk_9kv_engine4mvcc5testss_19test_mvcc_inner_new
FN:394,_RNvNtNtCs9G0t2qE8rAk_9kv_engine4mvcc5testss_21test_mvcc_inner_write
FN:564,_RNvNtNtCs9G0t2qE8rAk_9kv_engine4mvcc5testss_21test_txn_delete_local
FN:546,_RNvNtNtCs9G0t2qE8rAk_9kv_engine4mvcc5testss_22test_txn_put_get_local
FN:579,_RNvNtNtCs9G0t2qE8rAk_9kv_engine4mvcc5testss_23test_txn_commit_visible
FN:765,_RNvNtNtCs9G0t2qE8rAk_9kv_engine4mvcc5testss_26test_occ_read_only_commits
FN:608,_RNvNtNtCs9G0t2qE8rAk_9kv_engine4mvcc5testss_27test_txn_snapshot_isolation
FN:651,_RNvNtNtCs9G0t2qE8rAk_9kv_engine4mvcc5testss_28test_occ_read_write_conflict
FN:497,_RNvNtNtCs9G0t2qE8rAk_9kv_engine4mvcc5testss_28test_read_guard_duplicate_ts
FN:594,_RNvNtNtCs9G0t2qE8rAk_9kv_engine4mvcc5testss_28test_txn_double_commit_fails
FN:752,_RNvNtNtCs9G0t2qE8rAk_9kv_engine4mvcc5testss_30test_occ_mutation_after_commit
FN:426,_RNvNtNtCs9G0t2qE8rAk_9kv_engine4mvcc5testss_31test_advance_ts_never_regresses
FN:695,_RNvNtNtCs9G0t2qE8rAk_9kv_engine4mvcc5testss_31test_occ_negative_read_recorded
FN:418,_RNvNtNtCs9G0t2qE8rAk_9kv_engine4mvcc5testss_32test_mvcc_inner_update_commit_ts
FN:778,_RNvNtNtCs9G0t2qE8rAk_9kv_engine4mvcc5testss_32test_occ_two_txns_write_same_key
FN:457,_RNvNtNtCs9G0t2qE8rAk_9kv_engine4mvcc5testss_32test_read_guard_drop_unregisters
FN:473,_RNvNtNtCs9G0t2qE8rAk_9kv_engine4mvcc5testss_32test_read_guard_multiple_readers
FN:681,_RNvNtNtCs9G0t2qE8rAk_9kv_engine4mvcc5testss_35test_occ_no_conflict_before_read_ts
FN:668,_RNvNtNtCs9G0t2qE8rAk_9kv_engine4mvcc5testss_35test_occ_no_conflict_different_keys
FN:627,_RNvNtNtCs9G0t2qE8rAk_9kv_engine4mvcc5testss_35test_txn_local_writes_shadow_engine
FN:711,_RNvNtNtCs9G0t2qE8rAk_9kv_engine4mvcc5testss_37test_occ_negative_read_tombstoned_key
FN:443,_RNvNtNtCs9G0t2qE8rAk_9kv_engine4mvcc5testss_38test_read_guard_registers_in_watermark
FN:735,_RNvNtNtCs9G0t2qE8rAk_9kv_engine4mvcc5testss_39test_occ_scan_rejected_for_serializable
FN:795,_RNvNtNtCs9G0t2qE8rAk_9kv_engine4mvcc5testss_40test_occ_read_then_conflicting_txn_write
FN:517,_RNvNtNtCs9G0t2qE8rAk_9kv_engine4mvcc5testss_42test_read_guard_watermark_pins_after_write
FN:534,_RNvNtNtCs9G0t2qE8rAk_9kv_engine4mvcc5testss_59test_can_publish_filter_deletion_requires_no_active_readers
FN:261,_RNvMNtCs9G0t2qE8rAk_9kv_engine4mvccNtB2_12LsmMvccInner10advance_ts
FN:295,_RNvMNtCs9G0t2qE8rAk_9kv_engine4mvccNtB2_12LsmMvccInner14new_read_guard
FN:92,_RNvMNtCs9G0t2qE8rAk_9kv_engine4mvccNtB2_12LsmMvccInner14write_wal_only
FN:54,_RNvMNtCs9G0t2qE8rAk_9kv_engine4mvccNtB2_12LsmMvccInner16latest_commit_ts
FN:59,_RNvMNtCs9G0t2qE8rAk_9kv_engine4mvccNtB2_12LsmMvccInner16update_commit_ts
FN:301,_RNvMNtCs9G0t2qE8rAk_9kv_engine4mvccNtB2_12LsmMvccInner20record_committed_txn
FN:197,_RNvMNtCs9G0t2qE8rAk_9kv_engine4mvccNtB2_12LsmMvccInner20write_batch_wal_only
FN:142,_RNvMNtCs9G0t2qE8rAk_9kv_engine4mvccNtB2_12LsmMvccInner21write_range_tombstone
FN:122,_RNvMNtCs9G0t2qE8rAk_9kv_engine4mvccNtB2_12LsmMvccInner24write_tombstone_wal_only
FN:161,_RNvMNtCs9G0t2qE8rAk_9kv_engine4mvccNtB2_12LsmMvccInner26write_range_batch_wal_only
FN:81,_RNvMNtCs9G0t2qE8rAk_9kv_engine4mvccNtB2_12LsmMvccInner27can_publish_filter_deletion
FN:42,_RNvMNtCs9G0t2qE8rAk_9kv_engine4mvccNtB2_12LsmMvccInner3new
FN:265,_RNvMNtCs9G0t2qE8rAk_9kv_engine4mvccNtB2_12LsmMvccInner7new_txn
FN:251,_RNvMNtCs9G0t2qE8rAk_9kv_engine4mvccNtB2_12LsmMvccInner7read_ts
FN:67,_RNvMNtCs9G0t2qE8rAk_9kv_engine4mvccNtB2_12LsmMvccInner9watermark
FN:341,_RNvMs_NtCs9G0t2qE8rAk_9kv_engine4mvccNtB4_9ReadGuard10new_latest
FN:351,_RNvMs_NtCs9G0t2qE8rAk_9kv_engine4mvccNtB4_9ReadGuard7read_ts
FN:261,_RNvMNtCshcgQatfXnqn_9kv_engine4mvccNtB2_12LsmMvccInner10advance_ts
FN:295,_RNvMNtCshcgQatfXnqn_9kv_engine4mvccNtB2_12LsmMvccInner14new_read_guard
FN:92,_RNvMNtCshcgQatfXnqn_9kv_engine4mvccNtB2_12LsmMvccInner14write_wal_only
FN:54,_RNvMNtCshcgQatfXnqn_9kv_engine4mvccNtB2_12LsmMvccInner16latest_commit_ts
FN:301,_RNvMNtCshcgQatfXnqn_9kv_engine4mvccNtB2_12LsmMvccInner20record_committed_txn
FN:197,_RNvMNtCshcgQatfXnqn_9kv_engine4mvccNtB2_12LsmMvccInner20write_batch_wal_only
FN:142,_RNvMNtCshcgQatfXnqn_9kv_engine4mvccNtB2_12LsmMvccInner21write_range_tombstone
FN:122,_RNvMNtCshcgQatfXnqn_9kv_engine4mvccNtB2_12LsmMvccInner24write_tombstone_wal_only
FN:161,_RNvMNtCshcgQatfXnqn_9kv_engine4mvccNtB2_12LsmMvccInner26write_range_batch_wal_only
FN:81,_RNvMNtCshcgQatfXnqn_9kv_engine4mvccNtB2_12LsmMvccInner27can_publish_filter_deletion
FN:42,_RNvMNtCshcgQatfXnqn_9kv_engine4mvccNtB2_12LsmMvccInner3new
FN:265,_RNvMNtCshcgQatfXnqn_9kv_engine4mvccNtB2_12LsmMvccInner7new_txn
FN:67,_RNvMNtCshcgQatfXnqn_9kv_engine4mvccNtB2_12LsmMvccInner9watermark
FN:341,_RNvMs_NtCshcgQatfXnqn_9kv_engine4mvccNtB4_9ReadGuard10new_latest
FN:351,_RNvMs_NtCshcgQatfXnqn_9kv_engine4mvccNtB4_9ReadGuard7read_ts
FN:59,_RNvMNtCshcgQatfXnqn_9kv_engine4mvccNtB2_12LsmMvccInner16update_commit_ts
FN:251,_RNvMNtCshcgQatfXnqn_9kv_engine4mvccNtB2_12LsmMvccInner7read_ts
FN:209,_RNCNvMNtCshcgQatfXnqn_9kv_engine4mvccNtB4_12LsmMvccInner20write_batch_wal_only0B6_
FN:229,_RNCNvMNtCshcgQatfXnqn_9kv_engine4mvccNtB4_12LsmMvccInner20write_batch_wal_onlys0_0B6_
FN:241,_RNCNvMNtCshcgQatfXnqn_9kv_engine4mvccNtB4_12LsmMvccInner20write_batch_wal_onlys1_0B6_
FN:215,_RNCNvMNtCshcgQatfXnqn_9kv_engine4mvccNtB4_12LsmMvccInner20write_batch_wal_onlys_0B6_
FN:357,_RNvXs0_NtCshcgQatfXnqn_9kv_engine4mvccNtB5_9ReadGuardNtNtNtCslfAf2Mv2Tp5_4core3ops4drop4Drop4drop
FNDA:53,_RNCNvMNtCs9G0t2qE8rAk_9kv_engine4mvccNtB4_12LsmMvccInner20write_batch_wal_only0B6_
FNDA:53,_RNCNvMNtCs9G0t2qE8rAk_9kv_engine4mvccNtB4_12LsmMvccInner20write_batch_wal_onlys0_0B6_
FNDA:53,_RNCNvMNtCs9G0t2qE8rAk_9kv_engine4mvccNtB4_12LsmMvccInner20write_batch_wal_onlys1_0B6_
FNDA:53,_RNCNvMNtCs9G0t2qE8rAk_9kv_engine4mvccNtB4_12LsmMvccInner20write_batch_wal_onlys_0B6_
FNDA:5961,_RNvXs0_NtCs9G0t2qE8rAk_9kv_engine4mvccNtB5_9ReadGuardNtNtNtCslfAf2Mv2Tp5_4core3ops4drop4Drop4drop
FNDA:10,_RNvNtNtCs9G0t2qE8rAk_9kv_engine4mvcc5tests10test_write
FNDA:10,_RNvNtNtCs9G0t2qE8rAk_9kv_engine4mvcc5tests17serializable_opts
FNDA:1,_RNvNtNtCs9G0t2qE8rAk_9kv_engine4mvcc5testss_19test_mvcc_inner_new
FNDA:1,_RNvNtNtCs9G0t2qE8rAk_9kv_engine4mvcc5testss_21test_mvcc_inner_write
FNDA:1,_RNvNtNtCs9G0t2qE8rAk_9kv_engine4mvcc5testss_21test_txn_delete_local
FNDA:1,_RNvNtNtCs9G0t2qE8rAk_9kv_engine4mvcc5testss_22test_txn_put_get_local
FNDA:1,_RNvNtNtCs9G0t2qE8rAk_9kv_engine4mvcc5testss_23test_txn_commit_visible
FNDA:1,_RNvNtNtCs9G0t2qE8rAk_9kv_engine4mvcc5testss_26test_occ_read_only_commits
FNDA:1,_RNvNtNtCs9G0t2qE8rAk_9kv_engine4mvcc5testss_27test_txn_snapshot_isolation
FNDA:1,_RNvNtNtCs9G0t2qE8rAk_9kv_engine4mvcc5testss_28test_occ_read_write_conflict
FNDA:1,_RNvNtNtCs9G0t2qE8rAk_9kv_engine4mvcc5testss_28test_read_guard_duplicate_ts
FNDA:1,_RNvNtNtCs9G0t2qE8rAk_9kv_engine4mvcc5testss_28test_txn_double_commit_fails
FNDA:1,_RNvNtNtCs9G0t2qE8rAk_9kv_engine4mvcc5testss_30test_occ_mutation_after_commit
FNDA:1,_RNvNtNtCs9G0t2qE8rAk_9kv_engine4mvcc5testss_31test_advance_ts_never_regresses
FNDA:1,_RNvNtNtCs9G0t2qE8rAk_9kv_engine4mvcc5testss_31test_occ_negative_read_recorded
FNDA:1,_RNvNtNtCs9G0t2qE8rAk_9kv_engine4mvcc5testss_32test_mvcc_inner_update_commit_ts
FNDA:1,_RNvNtNtCs9G0t2qE8rAk_9kv_engine4mvcc5testss_32test_occ_two_txns_write_same_key
FNDA:1,_RNvNtNtCs9G0t2qE8rAk_9kv_engine4mvcc5testss_32test_read_guard_drop_unregisters
FNDA:1,_RNvNtNtCs9G0t2qE8rAk_9kv_engine4mvcc5testss_32test_read_guard_multiple_readers
FNDA:1,_RNvNtNtCs9G0t2qE8rAk_9kv_engine4mvcc5testss_35test_occ_no_conflict_before_read_ts
FNDA:1,_RNvNtNtCs9G0t2qE8rAk_9kv_engine4mvcc5testss_35test_occ_no_conflict_different_keys
FNDA:1,_RNvNtNtCs9G0t2qE8rAk_9kv_engine4mvcc5testss_35test_txn_local_writes_shadow_engine
FNDA:1,_RNvNtNtCs9G0t2qE8rAk_9kv_engine4mvcc5testss_37test_occ_negative_read_tombstoned_key
FNDA:1,_RNvNtNtCs9G0t2qE8rAk_9kv_engine4mvcc5testss_38test_read_guard_registers_in_watermark
FNDA:1,_RNvNtNtCs9G0t2qE8rAk_9kv_engine4mvcc5testss_39test_occ_scan_rejected_for_serializable
FNDA:1,_RNvNtNtCs9G0t2qE8rAk_9kv_engine4mvcc5testss_40test_occ_read_then_conflicting_txn_write
FNDA:1,_RNvNtNtCs9G0t2qE8rAk_9kv_engine4mvcc5testss_42test_read_guard_watermark_pins_after_write
FNDA:1,_RNvNtNtCs9G0t2qE8rAk_9kv_engine4mvcc5testss_59test_can_publish_filter_deletion_requires_no_active_readers
FNDA:24564,_RNvMNtCs9G0t2qE8rAk_9kv_engine4mvccNtB2_12LsmMvccInner10advance_ts
FNDA:5957,_RNvMNtCs9G0t2qE8rAk_9kv_engine4mvccNtB2_12LsmMvccInner14new_read_guard
FNDA:23481,_RNvMNtCs9G0t2qE8rAk_9kv_engine4mvccNtB2_12LsmMvccInner14write_wal_only
FNDA:31,_RNvMNtCs9G0t2qE8rAk_9kv_engine4mvccNtB2_12LsmMvccInner16latest_commit_ts
FNDA:2,_RNvMNtCs9G0t2qE8rAk_9kv_engine4mvccNtB2_12LsmMvccInner16update_commit_ts
FNDA:37,_RNvMNtCs9G0t2qE8rAk_9kv_engine4mvccNtB2_12LsmMvccInner20record_committed_txn
FNDA:36,_RNvMNtCs9G0t2qE8rAk_9kv_engine4mvccNtB2_12LsmMvccInner20write_batch_wal_only
FNDA:34,_RNvMNtCs9G0t2qE8rAk_9kv_engine4mvccNtB2_12LsmMvccInner21write_range_tombstone
FNDA:1040,_RNvMNtCs9G0t2qE8rAk_9kv_engine4mvccNtB2_12LsmMvccInner24write_tombstone_wal_only
FNDA:3,_RNvMNtCs9G0t2qE8rAk_9kv_engine4mvccNtB2_12LsmMvccInner26write_range_batch_wal_only
FNDA:12,_RNvMNtCs9G0t2qE8rAk_9kv_engine4mvccNtB2_12LsmMvccInner27can_publish_filter_deletion
FNDA:274,_RNvMNtCs9G0t2qE8rAk_9kv_engine4mvccNtB2_12LsmMvccInner3new
FNDA:47,_RNvMNtCs9G0t2qE8rAk_9kv_engine4mvccNtB2_12LsmMvccInner7new_txn
FNDA:16,_RNvMNtCs9G0t2qE8rAk_9kv_engine4mvccNtB2_12LsmMvccInner7read_ts
FNDA:120,_RNvMNtCs9G0t2qE8rAk_9kv_engine4mvccNtB2_12LsmMvccInner9watermark
FNDA:5961,_RNvMs_NtCs9G0t2qE8rAk_9kv_engine4mvccNtB4_9ReadGuard10new_latest
FNDA:5957,_RNvMs_NtCs9G0t2qE8rAk_9kv_engine4mvccNtB4_9ReadGuard7read_ts
FNDA:0,_RNvMNtCshcgQatfXnqn_9kv_engine4mvccNtB2_12LsmMvccInner10advance_ts
FNDA:0,_RNvMNtCshcgQatfXnqn_9kv_engine4mvccNtB2_12LsmMvccInner14new_read_guard
FNDA:0,_RNvMNtCshcgQatfXnqn_9kv_engine4mvccNtB2_12LsmMvccInner14write_wal_only
FNDA:0,_RNvMNtCshcgQatfXnqn_9kv_engine4mvccNtB2_12LsmMvccInner16latest_commit_ts
FNDA:0,_RNvMNtCshcgQatfXnqn_9kv_engine4mvccNtB2_12LsmMvccInner20record_committed_txn
FNDA:0,_RNvMNtCshcgQatfXnqn_9kv_engine4mvccNtB2_12LsmMvccInner20write_batch_wal_only
FNDA:0,_RNvMNtCshcgQatfXnqn_9kv_engine4mvccNtB2_12LsmMvccInner21write_range_tombstone
FNDA:0,_RNvMNtCshcgQatfXnqn_9kv_engine4mvccNtB2_12LsmMvccInner24write_tombstone_wal_only
FNDA:0,_RNvMNtCshcgQatfXnqn_9kv_engine4mvccNtB2_12LsmMvccInner26write_range_batch_wal_only
FNDA:0,_RNvMNtCshcgQatfXnqn_9kv_engine4mvccNtB2_12LsmMvccInner27can_publish_filter_deletion
FNDA:0,_RNvMNtCshcgQatfXnqn_9kv_engine4mvccNtB2_12LsmMvccInner3new
FNDA:0,_RNvMNtCshcgQatfXnqn_9kv_engine4mvccNtB2_12LsmMvccInner7new_txn
FNDA:0,_RNvMNtCshcgQatfXnqn_9kv_engine4mvccNtB2_12LsmMvccInner9watermark
FNDA:0,_RNvMs_NtCshcgQatfXnqn_9kv_engine4mvccNtB4_9ReadGuard10new_latest
FNDA:0,_RNvMs_NtCshcgQatfXnqn_9kv_engine4mvccNtB4_9ReadGuard7read_ts
FNDA:0,_RNvMNtCshcgQatfXnqn_9kv_engine4mvccNtB2_12LsmMvccInner16update_commit_ts
FNDA:0,_RNvMNtCshcgQatfXnqn_9kv_engine4mvccNtB2_12LsmMvccInner7read_ts
FNDA:0,_RNCNvMNtCshcgQatfXnqn_9kv_engine4mvccNtB4_12LsmMvccInner20write_batch_wal_only0B6_
FNDA:0,_RNCNvMNtCshcgQatfXnqn_9kv_engine4mvccNtB4_12LsmMvccInner20write_batch_wal_onlys0_0B6_
FNDA:0,_RNCNvMNtCshcgQatfXnqn_9kv_engine4mvccNtB4_12LsmMvccInner20write_batch_wal_onlys1_0B6_
FNDA:0,_RNCNvMNtCshcgQatfXnqn_9kv_engine4mvccNtB4_12LsmMvccInner20write_batch_wal_onlys_0B6_
FNDA:0,_RNvXs0_NtCshcgQatfXnqn_9kv_engine4mvccNtB5_9ReadGuardNtNtNtCslfAf2Mv2Tp5_4core3ops4drop4Drop4drop
FNF:50
FNH:50
DA:42,274
DA:43,274
DA:44,274
DA:45,274
DA:46,274
DA:47,274
DA:48,274
DA:49,274
DA:50,274
DA:51,274
DA:54,31
DA:55,31
DA:56,31
DA:59,2
DA:60,2
DA:61,2
DA:67,120
DA:68,120
DA:69,120
DA:70,120
DA:71,120
DA:72,120
DA:81,12
DA:82,12
DA:83,12
DA:84,12
DA:92,23481
DA:93,23481
DA:94,23481
DA:95,23481
DA:96,23481
DA:97,23481
DA:98,23481
DA:99,23481
DA:102,23481
DA:103,23481
DA:104,23481
DA:105,23481
DA:106,23481
DA:107,23481
DA:108,23481
DA:109,23481
DA:110,23481
DA:111,23481
DA:116,23481
DA:117,23481
DA:122,1040
DA:123,1040
DA:124,1040
DA:125,1040
DA:126,1040
DA:127,1040
DA:128,1040
DA:129,1040
DA:130,1040
DA:131,1040
DA:132,1040
DA:133,1040
DA:134,1040
DA:137,1040
DA:138,1040
DA:142,34
DA:143,34
DA:144,34
DA:145,34
DA:146,34
DA:147,34
DA:148,34
DA:149,34
DA:150,34
DA:151,34
DA:153,34
DA:154,34
DA:161,3
DA:162,3
DA:163,3
DA:164,3
DA:165,3
DA:166,3
DA:167,0
DA:168,3
DA:169,3
DA:170,3
DA:172,0
DA:174,3
DA:175,3
DA:176,3
DA:179,3
DA:180,3
DA:197,36
DA:198,36
DA:199,36
DA:200,36
DA:201,36
DA:202,36
DA:203,0
DA:204,36
DA:205,36
DA:206,36
DA:207,36
DA:208,36
DA:209,53
DA:210,53
DA:211,53
DA:212,36
DA:213,36
DA:214,36
DA:215,53
DA:216,53
DA:217,7
DA:219,46
DA:220,46
DA:221,46
DA:222,46
DA:224,53
DA:225,36
DA:226,36
DA:227,36
DA:228,36
DA:229,53
DA:230,53
DA:231,53
DA:232,53
DA:233,36
DA:235,36
DA:238,36
DA:239,36
DA:240,36
DA:241,53
DA:242,36
DA:245,36
DA:246,36
DA:251,16
DA:252,16
DA:253,16
DA:261,24564
DA:262,24564
DA:263,24564
DA:265,47
DA:266,47
DA:267,47
DA:268,47
DA:269,47
DA:270,47
DA:271,47
DA:272,47
DA:273,34
DA:274,34
DA:275,34
DA:276,34
DA:278,13
DA:281,47
DA:282,47
DA:283,47
DA:284,47
DA:285,47
DA:286,47
DA:287,47
DA:288,47
DA:289,47
DA:290,47
DA:291,47
DA:295,5957
DA:296,5957
DA:297,5957
DA:301,37
DA:302,37
DA:303,37
DA:304,37
DA:305,37
DA:306,37
DA:307,37
DA:308,37
DA:309,37
DA:310,37
DA:311,37
DA:312,0
DA:313,0
DA:314,37
DA:315,37
DA:316,37
DA:317,37
DA:318,37
DA:319,37
DA:320,37
DA:321,37
DA:322,37
DA:341,5961
DA:342,5961
DA:343,5961
DA:344,5961
DA:345,5961
DA:346,5961
DA:348,5961
DA:349,5961
DA:351,5957
DA:352,5957
DA:353,5957
DA:357,5961
DA:358,5961
DA:359,5961
DA:369,10
DA:370,10
DA:371,10
DA:372,10
DA:373,10
DA:374,10
DA:375,10
DA:376,10
DA:377,10
DA:378,10
DA:379,10
DA:380,10
DA:381,10
DA:382,10
DA:383,10
DA:386,1
DA:387,1
DA:388,1
DA:389,1
DA:390,1
DA:391,1
DA:394,1
DA:395,1
DA:396,1
DA:397,1
DA:398,1
DA:399,1
DA:400,1
DA:404,1
DA:405,1
DA:408,1
DA:409,1
DA:410,1
DA:412,0
DA:414,1
DA:415,1
DA:418,1
DA:419,1
DA:420,1
DA:421,1
DA:422,1
DA:423,1
DA:426,1
DA:427,1
DA:430,1
DA:431,1
DA:432,1
DA:433,1
DA:436,1
DA:437,1
DA:438,1
DA:443,1
DA:444,1
DA:445,1
DA:446,1
DA:449,1
DA:450,1
DA:453,1
DA:454,1
DA:457,1
DA:458,1
DA:459,1
DA:462,1
DA:463,1
DA:464,1
DA:466,1
DA:469,1
DA:470,1
DA:473,1
DA:474,1
DA:476,1
DA:477,1
DA:478,1
DA:480,1
DA:481,1
DA:482,1
DA:485,1
DA:487,1
DA:489,1
DA:491,1
DA:493,1
DA:494,1
DA:497,1
DA:498,1
DA:499,1
DA:500,1
DA:503,1
DA:504,1
DA:505,1
DA:507,1
DA:509,1
DA:511,1
DA:513,1
DA:514,1
DA:517,1
DA:518,1
DA:519,1
DA:520,1
DA:523,1
DA:524,1
DA:525,1
DA:526,1
DA:529,1
DA:530,1
DA:531,1
DA:534,1
DA:535,1
DA:536,1
DA:538,1
DA:539,1
DA:540,1
DA:542,1
DA:543,1
DA:546,1
DA:547,1
DA:548,1
DA:549,1
DA:550,1
DA:552,1
DA:553,1
DA:554,1
DA:555,1
DA:556,1
DA:557,1
DA:560,1
DA:561,1
DA:564,1
DA:565,1
DA:566,1
DA:567,1
DA:568,1
DA:570,1
DA:571,1
DA:572,1
DA:573,1
DA:574,1
DA:575,1
DA:576,1
DA:579,1
DA:580,1
DA:581,1
DA:582,1
DA:583,1
DA:585,1
DA:586,1
DA:587,1
DA:588,1
DA:590,1
DA:591,1
DA:594,1
DA:595,1
DA:596,1
DA:597,1
DA:598,1
DA:600,1
DA:601,1
DA:602,1
DA:603,1
DA:604,1
DA:605,1
DA:608,1
DA:609,1
DA:610,1
DA:611,1
DA:612,1
DA:614,1
DA:616,1
DA:618,1
DA:619,1
DA:621,1
DA:623,1
DA:624,1
DA:627,1
DA:628,1
DA:629,1
DA:630,1
DA:631,1
DA:633,1
DA:634,1
DA:635,1
DA:636,1
DA:638,1
DA:639,1
DA:643,10
DA:644,10
DA:645,10
DA:646,10
DA:647,10
DA:648,10
DA:651,1
DA:653,1
DA:654,1
DA:655,1
DA:656,1
DA:658,1
DA:660,1
DA:662,1
DA:664,1
DA:665,1
DA:668,1
DA:670,1
DA:671,1
DA:672,1
DA:673,1
DA:674,1
DA:675,1
DA:676,1
DA:677,1
DA:678,1
DA:681,1
DA:683,1
DA:684,1
DA:685,1
DA:687,1
DA:688,1
DA:689,1
DA:691,1
DA:692,1
DA:695,1
DA:697,1
DA:698,1
DA:699,1
DA:701,1
DA:703,1
DA:705,1
DA:707,1
DA:708,1
DA:711,1
DA:714,1
DA:715,1
DA:718,1
DA:719,1
DA:722,1
DA:723,1
DA:725,1
DA:728,1
DA:731,1
DA:732,1
DA:735,1
DA:738,1
DA:739,1
DA:740,1
DA:741,1
DA:742,1
DA:743,1
DA:744,1
DA:745,1
DA:746,1
DA:747,1
DA:749,1
DA:752,1
DA:754,1
DA:755,1
DA:756,1
DA:757,1
DA:758,1
DA:759,1
DA:760,1
DA:761,1
DA:762,1
DA:765,1
DA:767,1
DA:768,1
DA:769,1
DA:770,1
DA:771,1
DA:773,1
DA:774,1
DA:775,1
DA:778,1
DA:780,1
DA:781,1
DA:782,1
DA:783,1
DA:784,1
DA:785,1
DA:786,1
DA:787,1
DA:788,1
DA:789,1
DA:791,1
DA:792,1
DA:795,1
DA:798,1
DA:799,1
DA:800,1
DA:801,1
DA:802,1
DA:803,1
DA:804,1
DA:805,1
DA:806,1
DA:807,1
DA:808,1
BRF:0
BRH:0
LF:499
LH:493
end_of_record
SF:/home/liu/proj/toy-kv-engine/kv-engine/src/mvcc/txn.rs
FN:398,_RNvXs1_NtNtCs9G0t2qE8rAk_9kv_engine4mvcc3txnNtB5_11TxnIteratorNtNtB9_9iterators15StorageIterator20num_active_iterators
FN:110,_RNvMNtNtCs9G0t2qE8rAk_9kv_engine4mvcc3txnNtB2_11Transaction11prefix_scan
FN:44,_RNvMNtNtCs9G0t2qE8rAk_9kv_engine4mvcc3txnNtB2_11Transaction20ensure_not_committed
FN:56,_RNvMNtNtCs9G0t2qE8rAk_9kv_engine4mvcc3txnNtB2_11Transaction3get
FN:142,_RNvMNtNtCs9G0t2qE8rAk_9kv_engine4mvcc3txnNtB2_11Transaction3put
FN:84,_RNvMNtNtCs9G0t2qE8rAk_9kv_engine4mvcc3txnNtB2_11Transaction4scan
FN:179,_RNvMNtNtCs9G0t2qE8rAk_9kv_engine4mvcc3txnNtB2_11Transaction6commit
FN:161,_RNvMNtNtCs9G0t2qE8rAk_9kv_engine4mvcc3txnNtB2_11Transaction6delete
FN:346,_RNvMs0_NtNtCs9G0t2qE8rAk_9kv_engine4mvcc3txnNtB5_11TxnIterator6create
FN:375,_RNvXs1_NtNtCs9G0t2qE8rAk_9kv_engine4mvcc3txnNtB5_11TxnIteratorNtNtB9_9iterators15StorageIterator3key
FN:383,_RNvXs1_NtNtCs9G0t2qE8rAk_9kv_engine4mvcc3txnNtB5_11TxnIteratorNtNtB9_9iterators15StorageIterator4next
FN:371,_RNvXs1_NtNtCs9G0t2qE8rAk_9kv_engine4mvcc3txnNtB5_11TxnIteratorNtNtB9_9iterators15StorageIterator5value
FN:379,_RNvXs1_NtNtCs9G0t2qE8rAk_9kv_engine4mvcc3txnNtB5_11TxnIteratorNtNtB9_9iterators15StorageIterator8is_valid
FN:317,_RNvXs_NtNtCs9G0t2qE8rAk_9kv_engine4mvcc3txnNtNtB4_33ouroboros_impl_txn_local_iterator16TxnLocalIteratorNtNtB8_9iterators15StorageIterator3key
FN:325,_RNvXs_NtNtCs9G0t2qE8rAk_9kv_engine4mvcc3txnNtNtB4_33ouroboros_impl_txn_local_iterator16TxnLocalIteratorNtNtB8_9iterators15StorageIterator4next
FN:313,_RNvXs_NtNtCs9G0t2qE8rAk_9kv_engine4mvcc3txnNtNtB4_33ouroboros_impl_txn_local_iterator16TxnLocalIteratorNtNtB8_9iterators15StorageIterator5value
FN:321,_RNvXs_NtNtCs9G0t2qE8rAk_9kv_engine4mvcc3txnNtNtB4_33ouroboros_impl_txn_local_iterator16TxnLocalIteratorNtNtB8_9iterators15StorageIterator8is_valid
FN:328,_RNCNCNvXs_NtNtCs9G0t2qE8rAk_9kv_engine4mvcc3txnNtNtB8_33ouroboros_impl_txn_local_iterator16TxnLocalIteratorNtNtBc_9iterators15StorageIterator4next00Bc_
FN:329,_RNCNCNvXs_NtNtCs9G0t2qE8rAk_9kv_engine4mvcc3txnNtNtB8_33ouroboros_impl_txn_local_iterator16TxnLocalIteratorNtNtBc_9iterators15StorageIterator4next0s_0Bc_
FN:130,_RNCNvMNtNtCs9G0t2qE8rAk_9kv_engine4mvcc3txnNtB4_11Transaction11prefix_scan0B8_
FN:96,_RNCNvMNtNtCs9G0t2qE8rAk_9kv_engine4mvcc3txnNtB4_11Transaction4scan0B8_
FN:196,_RNCNvMNtNtCs9G0t2qE8rAk_9kv_engine4mvcc3txnNtB4_11Transaction6commit0B8_
FN:277,_RNCNvMNtNtCs9G0t2qE8rAk_9kv_engine4mvcc3txnNtB4_11Transaction6commits0_0B8_
FN:255,_RNCNvMNtNtCs9G0t2qE8rAk_9kv_engine4mvcc3txnNtB4_11Transaction6commits_0B8_
FN:326,_RNCNvXs_NtNtCs9G0t2qE8rAk_9kv_engine4mvcc3txnNtNtB6_33ouroboros_impl_txn_local_iterator16TxnLocalIteratorNtNtBa_9iterators15StorageIterator4next0Ba_
FN:331,_RNCNvXs_NtNtCs9G0t2qE8rAk_9kv_engine4mvcc3txnNtNtB6_33ouroboros_impl_txn_local_iterator16TxnLocalIteratorNtNtBa_9iterators15StorageIterator4nexts_0Ba_
FN:328,_RNCNCNvXs_NtNtCshcgQatfXnqn_9kv_engine4mvcc3txnNtNtB8_33ouroboros_impl_txn_local_iterator16TxnLocalIteratorNtNtBc_9iterators15StorageIterator4next00Bc_
FN:329,_RNCNCNvXs_NtNtCshcgQatfXnqn_9kv_engine4mvcc3txnNtNtB8_33ouroboros_impl_txn_local_iterator16TxnLocalIteratorNtNtBc_9iterators15StorageIterator4next0s_0Bc_
FN:130,_RNCNvMNtNtCshcgQatfXnqn_9kv_engine4mvcc3txnNtB4_11Transaction11prefix_scan0B8_
FN:96,_RNCNvMNtNtCshcgQatfXnqn_9kv_engine4mvcc3txnNtB4_11Transaction4scan0B8_
FN:196,_RNCNvMNtNtCshcgQatfXnqn_9kv_engine4mvcc3txnNtB4_11Transaction6commit0B8_
FN:277,_RNCNvMNtNtCshcgQatfXnqn_9kv_engine4mvcc3txnNtB4_11Transaction6commits0_0B8_
FN:255,_RNCNvMNtNtCshcgQatfXnqn_9kv_engine4mvcc3txnNtB4_11Transaction6commits_0B8_
FN:326,_RNCNvXs_NtNtCshcgQatfXnqn_9kv_engine4mvcc3txnNtNtB6_33ouroboros_impl_txn_local_iterator16TxnLocalIteratorNtNtBa_9iterators15StorageIterator4next0Ba_
FN:331,_RNCNvXs_NtNtCshcgQatfXnqn_9kv_engine4mvcc3txnNtNtB6_33ouroboros_impl_txn_local_iterator16TxnLocalIteratorNtNtBa_9iterators15StorageIterator4nexts_0Ba_
FN:317,_RNvXs_NtNtCshcgQatfXnqn_9kv_engine4mvcc3txnNtNtB4_33ouroboros_impl_txn_local_iterator16TxnLocalIteratorNtNtB8_9iterators15StorageIterator3key
FN:325,_RNvXs_NtNtCshcgQatfXnqn_9kv_engine4mvcc3txnNtNtB4_33ouroboros_impl_txn_local_iterator16TxnLocalIteratorNtNtB8_9iterators15StorageIterator4next
FN:313,_RNvXs_NtNtCshcgQatfXnqn_9kv_engine4mvcc3txnNtNtB4_33ouroboros_impl_txn_local_iterator16TxnLocalIteratorNtNtB8_9iterators15StorageIterator5value
FN:321,_RNvXs_NtNtCshcgQatfXnqn_9kv_engine4mvcc3txnNtNtB4_33ouroboros_impl_txn_local_iterator16TxnLocalIteratorNtNtB8_9iterators15StorageIterator8is_valid
FNDA:0,_RNvXs1_NtNtCs9G0t2qE8rAk_9kv_engine4mvcc3txnNtB5_11TxnIteratorNtNtB9_9iterators15StorageIterator20num_active_iterators
FNDA:3,_RNvMNtNtCs9G0t2qE8rAk_9kv_engine4mvcc3txnNtB2_11Transaction11prefix_scan
FNDA:74,_RNvMNtNtCs9G0t2qE8rAk_9kv_engine4mvcc3txnNtB2_11Transaction20ensure_not_committed
FNDA:28,_RNvMNtNtCs9G0t2qE8rAk_9kv_engine4mvcc3txnNtB2_11Transaction3get
FNDA:36,_RNvMNtNtCs9G0t2qE8rAk_9kv_engine4mvcc3txnNtB2_11Transaction3put
FNDA:2,_RNvMNtNtCs9G0t2qE8rAk_9kv_engine4mvcc3txnNtB2_11Transaction4scan
FNDA:33,_RNvMNtNtCs9G0t2qE8rAk_9kv_engine4mvcc3txnNtB2_11Transaction6commit
FNDA:5,_RNvMNtNtCs9G0t2qE8rAk_9kv_engine4mvcc3txnNtB2_11Transaction6delete
FNDA:2,_RNvMs0_NtNtCs9G0t2qE8rAk_9kv_engine4mvcc3txnNtB5_11TxnIterator6create
FNDA:3,_RNvXs1_NtNtCs9G0t2qE8rAk_9kv_engine4mvcc3txnNtB5_11TxnIteratorNtNtB9_9iterators15StorageIterator3key
FNDA:3,_RNvXs1_NtNtCs9G0t2qE8rAk_9kv_engine4mvcc3txnNtB5_11TxnIteratorNtNtB9_9iterators15StorageIterator4next
FNDA:3,_RNvXs1_NtNtCs9G0t2qE8rAk_9kv_engine4mvcc3txnNtB5_11TxnIteratorNtNtB9_9iterators15StorageIterator5value
FNDA:5,_RNvXs1_NtNtCs9G0t2qE8rAk_9kv_engine4mvcc3txnNtB5_11TxnIteratorNtNtB9_9iterators15StorageIterator8is_valid
FNDA:4,_RNvXs_NtNtCs9G0t2qE8rAk_9kv_engine4mvcc3txnNtNtB4_33ouroboros_impl_txn_local_iterator16TxnLocalIteratorNtNtB8_9iterators15StorageIterator3key
FNDA:4,_RNvXs_NtNtCs9G0t2qE8rAk_9kv_engine4mvcc3txnNtNtB4_33ouroboros_impl_txn_local_iterator16TxnLocalIteratorNtNtB8_9iterators15StorageIterator4next
FNDA:3,_RNvXs_NtNtCs9G0t2qE8rAk_9kv_engine4mvcc3txnNtNtB4_33ouroboros_impl_txn_local_iterator16TxnLocalIteratorNtNtB8_9iterators15StorageIterator5value
FNDA:10,_RNvXs_NtNtCs9G0t2qE8rAk_9kv_engine4mvcc3txnNtNtB4_33ouroboros_impl_txn_local_iterator16TxnLocalIteratorNtNtB8_9iterators15StorageIterator8is_valid
FNDA:2,_RNCNCNvXs_NtNtCs9G0t2qE8rAk_9kv_engine4mvcc3txnNtNtB8_33ouroboros_impl_txn_local_iterator16TxnLocalIteratorNtNtBc_9iterators15StorageIterator4next00Bc_
FNDA:2,_RNCNCNvXs_NtNtCs9G0t2qE8rAk_9kv_engine4mvcc3txnNtNtB8_33ouroboros_impl_txn_local_iterator16TxnLocalIteratorNtNtBc_9iterators15StorageIterator4next0s_0Bc_
FNDA:2,_RNCNvMNtNtCs9G0t2qE8rAk_9kv_engine4mvcc3txnNtB4_11Transaction11prefix_scan0B8_
FNDA:0,_RNCNvMNtNtCs9G0t2qE8rAk_9kv_engine4mvcc3txnNtB4_11Transaction4scan0B8_
FNDA:29,_RNCNvMNtNtCs9G0t2qE8rAk_9kv_engine4mvcc3txnNtB4_11Transaction6commit0B8_
FNDA:2,_RNCNvMNtNtCs9G0t2qE8rAk_9kv_engine4mvcc3txnNtB4_11Transaction6commits0_0B8_
FNDA:20,_RNCNvMNtNtCs9G0t2qE8rAk_9kv_engine4mvcc3txnNtB4_11Transaction6commits_0B8_
FNDA:4,_RNCNvXs_NtNtCs9G0t2qE8rAk_9kv_engine4mvcc3txnNtNtB6_33ouroboros_impl_txn_local_iterator16TxnLocalIteratorNtNtBa_9iterators15StorageIterator4next0Ba_
FNDA:4,_RNCNvXs_NtNtCs9G0t2qE8rAk_9kv_engine4mvcc3txnNtNtB6_33ouroboros_impl_txn_local_iterator16TxnLocalIteratorNtNtBa_9iterators15StorageIterator4nexts_0Ba_
FNDA:0,_RNCNCNvXs_NtNtCshcgQatfXnqn_9kv_engine4mvcc3txnNtNtB8_33ouroboros_impl_txn_local_iterator16TxnLocalIteratorNtNtBc_9iterators15StorageIterator4next00Bc_
FNDA:0,_RNCNCNvXs_NtNtCshcgQatfXnqn_9kv_engine4mvcc3txnNtNtB8_33ouroboros_impl_txn_local_iterator16TxnLocalIteratorNtNtBc_9iterators15StorageIterator4next0s_0Bc_
FNDA:0,_RNCNvMNtNtCshcgQatfXnqn_9kv_engine4mvcc3txnNtB4_11Transaction11prefix_scan0B8_
FNDA:0,_RNCNvMNtNtCshcgQatfXnqn_9kv_engine4mvcc3txnNtB4_11Transaction4scan0B8_
FNDA:0,_RNCNvMNtNtCshcgQatfXnqn_9kv_engine4mvcc3txnNtB4_11Transaction6commit0B8_
FNDA:0,_RNCNvMNtNtCshcgQatfXnqn_9kv_engine4mvcc3txnNtB4_11Transaction6commits0_0B8_
FNDA:0,_RNCNvMNtNtCshcgQatfXnqn_9kv_engine4mvcc3txnNtB4_11Transaction6commits_0B8_
FNDA:0,_RNCNvXs_NtNtCshcgQatfXnqn_9kv_engine4mvcc3txnNtNtB6_33ouroboros_impl_txn_local_iterator16TxnLocalIteratorNtNtBa_9iterators15StorageIterator4next0Ba_
FNDA:0,_RNCNvXs_NtNtCshcgQatfXnqn_9kv_engine4mvcc3txnNtNtB6_33ouroboros_impl_txn_local_iterator16TxnLocalIteratorNtNtBa_9iterators15StorageIterator4nexts_0Ba_
FNDA:0,_RNvXs_NtNtCshcgQatfXnqn_9kv_engine4mvcc3txnNtNtB4_33ouroboros_impl_txn_local_iterator16TxnLocalIteratorNtNtB8_9iterators15StorageIterator3key
FNDA:0,_RNvXs_NtNtCshcgQatfXnqn_9kv_engine4mvcc3txnNtNtB4_33ouroboros_impl_txn_local_iterator16TxnLocalIteratorNtNtB8_9iterators15StorageIterator4next
FNDA:0,_RNvXs_NtNtCshcgQatfXnqn_9kv_engine4mvcc3txnNtNtB4_33ouroboros_impl_txn_local_iterator16TxnLocalIteratorNtNtB8_9iterators15StorageIterator5value
FNDA:0,_RNvXs_NtNtCshcgQatfXnqn_9kv_engine4mvcc3txnNtNtB4_33ouroboros_impl_txn_local_iterator16TxnLocalIteratorNtNtB8_9iterators15StorageIterator8is_valid
FNF:26
FNH:24
DA:44,74
DA:45,74
DA:46,74
DA:49,70
DA:50,74
DA:56,28
DA:57,28
DA:60,27
DA:61,18
DA:62,18
DA:63,16
DA:64,16
DA:65,9
DA:67,27
DA:68,6
DA:70,6
DA:71,2
DA:72,4
DA:73,4
DA:74,21
DA:77,21
DA:78,28
DA:84,2
DA:85,2
DA:89,2
DA:90,2
DA:93,0
DA:94,0
DA:95,0
DA:96,0
DA:97,0
DA:100,0
DA:101,0
DA:102,0
DA:103,2
DA:110,3
DA:111,3
DA:112,0
DA:113,3
DA:114,3
DA:115,3
DA:116,3
DA:119,2
DA:120,2
DA:121,2
DA:122,2
DA:123,0
DA:125,2
DA:126,2
DA:127,2
DA:128,2
DA:129,2
DA:130,2
DA:131,2
DA:133,2
DA:134,2
DA:135,2
DA:136,3
DA:142,36
DA:143,36
DA:144,34
DA:145,34
DA:149,33
DA:150,27
DA:151,27
DA:152,33
DA:153,33
DA:154,33
DA:155,36
DA:161,5
DA:162,5
DA:164,4
DA:165,2
DA:166,2
DA:167,4
DA:168,4
DA:169,4
DA:170,4
DA:171,4
DA:172,5
DA:179,33
DA:180,33
DA:181,33
DA:182,33
DA:183,33
DA:184,33
DA:185,33
DA:186,33
DA:187,33
DA:188,33
DA:190,2
DA:191,31
DA:193,31
DA:194,31
DA:195,31
DA:196,31
DA:197,29
DA:198,29
DA:199,29
DA:200,29
DA:201,31
DA:203,31
DA:205,5
DA:206,5
DA:207,26
DA:209,26
DA:210,24
DA:211,24
DA:212,24
DA:213,24
DA:214,24
DA:215,24
DA:216,24
DA:217,24
DA:219,24
DA:221,24
DA:222,24
DA:224,24
DA:225,24
DA:226,24
DA:227,24
DA:228,0
DA:229,0
DA:233,24
DA:234,24
DA:235,24
DA:236,24
DA:237,8
DA:238,8
DA:239,8
DA:240,8
DA:241,8
DA:244,7
DA:245,7
DA:249,1
DA:253,17
DA:254,17
DA:255,20
DA:256,17
DA:257,17
DA:259,17
DA:260,17
DA:261,17
DA:262,17
DA:263,17
DA:265,17
DA:268,17
DA:270,17
DA:271,17
DA:272,0
DA:273,2
DA:275,2
DA:276,2
DA:277,2
DA:278,2
DA:279,2
DA:281,0
DA:282,0
DA:283,0
DA:284,2
DA:286,2
DA:288,2
DA:289,33
DA:313,3
DA:314,3
DA:315,3
DA:317,4
DA:318,4
DA:319,4
DA:321,10
DA:322,10
DA:323,10
DA:325,4
DA:326,4
DA:327,4
DA:328,4
DA:329,4
DA:330,4
DA:331,4
DA:332,4
DA:333,4
DA:346,2
DA:347,2
DA:348,2
DA:349,2
DA:350,2
DA:352,3
DA:353,1
DA:356,2
DA:357,2
DA:358,0
DA:359,0
DA:360,2
DA:361,2
DA:362,2
DA:371,3
DA:372,3
DA:373,3
DA:375,3
DA:376,3
DA:377,3
DA:379,5
DA:380,5
DA:381,5
DA:383,3
DA:385,3
DA:386,3
DA:387,0
DA:390,3
DA:391,1
DA:392,0
DA:393,0
DA:394,3
DA:395,3
DA:396,3
DA:398,0
DA:399,0
DA:400,0
BRF:0
BRH:0
LF:225
LH:201
end_of_record
SF:/home/liu/proj/toy-kv-engine/kv-engine/src/mvcc/watermark.rs
FN:33,_RNCNvMNtNtCs9G0t2qE8rAk_9kv_engine4mvcc9watermarkNtB4_9Watermark10add_reader0B8_
FN:36,_RNCNvMNtNtCs9G0t2qE8rAk_9kv_engine4mvcc9watermarkNtB4_9Watermark10add_readers_0B8_
FN:55,_RNCNvMNtNtCs9G0t2qE8rAk_9kv_engine4mvcc9watermarkNtB4_9Watermark13remove_reader0B8_
FN:64,_RNCNvMNtNtCs9G0t2qE8rAk_9kv_engine4mvcc9watermarkNtB4_9Watermark9watermark0B8_
FN:65,_RNCNvMNtNtCs9G0t2qE8rAk_9kv_engine4mvcc9watermarkNtB4_9Watermark9watermarks_0B8_
FN:27,_RNvMNtNtCs9G0t2qE8rAk_9kv_engine4mvcc9watermarkNtB2_9Watermark10add_reader
FN:44,_RNvMNtNtCs9G0t2qE8rAk_9kv_engine4mvcc9watermarkNtB2_9Watermark13remove_reader
FN:17,_RNvMNtNtCs9G0t2qE8rAk_9kv_engine4mvcc9watermarkNtB2_9Watermark3new
FN:61,_RNvMNtNtCs9G0t2qE8rAk_9kv_engine4mvcc9watermarkNtB2_9Watermark9watermark
FN:75,_RNvNtNtNtCs9G0t2qE8rAk_9kv_engine4mvcc9watermark5testss_20test_watermark_empty
FN:81,_RNvNtNtNtCs9G0t2qE8rAk_9kv_engine4mvcc9watermark5testss_28test_watermark_single_reader
FN:90,_RNvNtNtNtCs9G0t2qE8rAk_9kv_engine4mvcc9watermark5testss_31test_watermark_multiple_readers
FN:105,_RNvNtNtNtCs9G0t2qE8rAk_9kv_engine4mvcc9watermark5testss_34test_watermark_duplicate_reader_ts
FN:27,_RNvMNtNtCshcgQatfXnqn_9kv_engine4mvcc9watermarkNtB2_9Watermark10add_reader
FN:44,_RNvMNtNtCshcgQatfXnqn_9kv_engine4mvcc9watermarkNtB2_9Watermark13remove_reader
FN:17,_RNvMNtNtCshcgQatfXnqn_9kv_engine4mvcc9watermarkNtB2_9Watermark3new
FN:61,_RNvMNtNtCshcgQatfXnqn_9kv_engine4mvcc9watermarkNtB2_9Watermark9watermark
FN:33,_RNCNvMNtNtCshcgQatfXnqn_9kv_engine4mvcc9watermarkNtB4_9Watermark10add_reader0B8_
FN:36,_RNCNvMNtNtCshcgQatfXnqn_9kv_engine4mvcc9watermarkNtB4_9Watermark10add_readers_0B8_
FN:55,_RNCNvMNtNtCshcgQatfXnqn_9kv_engine4mvcc9watermarkNtB4_9Watermark13remove_reader0B8_
FN:64,_RNCNvMNtNtCshcgQatfXnqn_9kv_engine4mvcc9watermarkNtB4_9Watermark9watermark0B8_
FN:65,_RNCNvMNtNtCshcgQatfXnqn_9kv_engine4mvcc9watermarkNtB4_9Watermark9watermarks_0B8_
FNDA:0,_RNCNvMNtNtCs9G0t2qE8rAk_9kv_engine4mvcc9watermarkNtB4_9Watermark10add_reader0B8_
FNDA:5948,_RNCNvMNtNtCs9G0t2qE8rAk_9kv_engine4mvcc9watermarkNtB4_9Watermark10add_readers_0B8_
FNDA:5948,_RNCNvMNtNtCs9G0t2qE8rAk_9kv_engine4mvcc9watermarkNtB4_9Watermark13remove_reader0B8_
FNDA:72,_RNCNvMNtNtCs9G0t2qE8rAk_9kv_engine4mvcc9watermarkNtB4_9Watermark9watermark0B8_
FNDA:72,_RNCNvMNtNtCs9G0t2qE8rAk_9kv_engine4mvcc9watermarkNtB4_9Watermark9watermarks_0B8_
FNDA:5967,_RNvMNtNtCs9G0t2qE8rAk_9kv_engine4mvcc9watermarkNtB2_9Watermark10add_reader
FNDA:5967,_RNvMNtNtCs9G0t2qE8rAk_9kv_engine4mvcc9watermarkNtB2_9Watermark13remove_reader
FNDA:278,_RNvMNtNtCs9G0t2qE8rAk_9kv_engine4mvcc9watermarkNtB2_9Watermark3new
FNDA:143,_RNvMNtNtCs9G0t2qE8rAk_9kv_engine4mvcc9watermarkNtB2_9Watermark9watermark
FNDA:1,_RNvNtNtNtCs9G0t2qE8rAk_9kv_engine4mvcc9watermark5testss_20test_watermark_empty
FNDA:1,_RNvNtNtNtCs9G0t2qE8rAk_9kv_engine4mvcc9watermark5testss_28test_watermark_single_reader
FNDA:1,_RNvNtNtNtCs9G0t2qE8rAk_9kv_engine4mvcc9watermark5testss_31test_watermark_multiple_readers
FNDA:1,_RNvNtNtNtCs9G0t2qE8rAk_9kv_engine4mvcc9watermark5testss_34test_watermark_duplicate_reader_ts
FNDA:0,_RNvMNtNtCshcgQatfXnqn_9kv_engine4mvcc9watermarkNtB2_9Watermark10add_reader
FNDA:0,_RNvMNtNtCshcgQatfXnqn_9kv_engine4mvcc9watermarkNtB2_9Watermark13remove_reader
FNDA:0,_RNvMNtNtCshcgQatfXnqn_9kv_engine4mvcc9watermarkNtB2_9Watermark3new
FNDA:0,_RNvMNtNtCshcgQatfXnqn_9kv_engine4mvcc9watermarkNtB2_9Watermark9watermark
FNDA:0,_RNCNvMNtNtCshcgQatfXnqn_9kv_engine4mvcc9watermarkNtB4_9Watermark10add_reader0B8_
FNDA:0,_RNCNvMNtNtCshcgQatfXnqn_9kv_engine4mvcc9watermarkNtB4_9Watermark10add_readers_0B8_
FNDA:0,_RNCNvMNtNtCshcgQatfXnqn_9kv_engine4mvcc9watermarkNtB4_9Watermark13remove_reader0B8_
FNDA:0,_RNCNvMNtNtCshcgQatfXnqn_9kv_engine4mvcc9watermarkNtB4_9Watermark9watermark0B8_
FNDA:0,_RNCNvMNtNtCshcgQatfXnqn_9kv_engine4mvcc9watermarkNtB4_9Watermark9watermarks_0B8_
FNF:13
FNH:12
DA:17,278
DA:18,278
DA:19,278
DA:20,278
DA:21,278
DA:27,5967
DA:28,5967
DA:29,19
DA:30,19
DA:31,5948
DA:32,5948
DA:33,5948
DA:34,0
DA:35,0
DA:36,5948
DA:38,5967
DA:44,5967
DA:45,5967
DA:46,5967
DA:50,5948
DA:54,5948
DA:55,5948
DA:56,19
DA:57,5967
DA:61,143
DA:62,143
DA:63,143
DA:64,143
DA:65,143
DA:66,143
DA:67,143
DA:75,1
DA:76,1
DA:77,1
DA:78,1
DA:81,1
DA:82,1
DA:83,1
DA:84,1
DA:85,1
DA:86,1
DA:87,1
DA:90,1
DA:91,1
DA:92,1
DA:93,1
DA:94,1
DA:95,1
DA:96,1
DA:97,1
DA:98,1
DA:99,1
DA:100,1
DA:101,1
DA:102,1
DA:105,1
DA:106,1
DA:107,1
DA:108,1
DA:109,1
DA:110,1
DA:111,1
DA:112,1
DA:113,1
DA:114,1
BRF:0
BRH:0
LF:70
LH:67
end_of_record
SF:/home/liu/proj/toy-kv-engine/kv-engine/src/range_tombstone.rs
FN:189,_RNvMNtCs9G0t2qE8rAk_9kv_engine15range_tombstoneNtB2_17RangeTombstoneSet16approximate_size
FN:253,_RNvMNtCs9G0t2qE8rAk_9kv_engine15range_tombstoneNtB2_17RangeTombstoneSet16cached_fragments
FN:154,_RNvMNtCs9G0t2qE8rAk_9kv_engine15range_tombstoneNtB2_17RangeTombstoneSet16iter_overlapping
FN:91,_RNvMNtCs9G0t2qE8rAk_9kv_engine15range_tombstoneNtB2_17RangeTombstoneSet18newest_covering_ts
FN:220,_RNvMNtCs9G0t2qE8rAk_9kv_engine15range_tombstoneNtB2_17RangeTombstoneSet19range_could_overlap
FN:69,_RNvMNtCs9G0t2qE8rAk_9kv_engine15range_tombstoneNtB2_17RangeTombstoneSet3add
FN:199,_RNvMNtCs9G0t2qE8rAk_9kv_engine15range_tombstoneNtB2_17RangeTombstoneSet3len
FN:57,_RNvMNtCs9G0t2qE8rAk_9kv_engine15range_tombstoneNtB2_17RangeTombstoneSet3new
FN:204,_RNvMNtCs9G0t2qE8rAk_9kv_engine15range_tombstoneNtB2_17RangeTombstoneSet3raw
FN:194,_RNvMNtCs9G0t2qE8rAk_9kv_engine15range_tombstoneNtB2_17RangeTombstoneSet8is_empty
FN:126,_RNvMNtCs9G0t2qE8rAk_9kv_engine15range_tombstoneNtB2_17RangeTombstoneSet8overlaps
FN:343,_RNvMs0_NtCs9G0t2qE8rAk_9kv_engine15range_tombstoneNtB5_22RangeTombstoneFragment12decode_block
FN:321,_RNvMs0_NtCs9G0t2qE8rAk_9kv_engine15range_tombstoneNtB5_22RangeTombstoneFragment12encode_block
FN:799,_RNvMs1_NtCs9G0t2qE8rAk_9kv_engine15range_tombstoneNtB5_22RangeTombstoneIterator18newest_covering_ts
FN:771,_RNvMs1_NtCs9G0t2qE8rAk_9kv_engine15range_tombstoneNtB5_22RangeTombstoneIterator3new
FN:785,_RNvMs1_NtCs9G0t2qE8rAk_9kv_engine15range_tombstoneNtB5_22RangeTombstoneIterator7seek_to
FN:441,_RNvNtCs9G0t2qE8rAk_9kv_engine15range_tombstone14fragment_range
FN:719,_RNvNtCs9G0t2qE8rAk_9kv_engine15range_tombstone18compute_gap_ranges
FN:698,_RNvNtCs9G0t2qE8rAk_9kv_engine15range_tombstone18gc_range_fragments
FN:651,_RNvNtCs9G0t2qE8rAk_9kv_engine15range_tombstone18truncate_fragments
FN:547,_RNvNtCs9G0t2qE8rAk_9kv_engine15range_tombstone20merge_fragment_lists
FN:409,_RNvNtCs9G0t2qE8rAk_9kv_engine15range_tombstone23find_newest_covering_ts
FN:284,_RNvXs_NtCs9G0t2qE8rAk_9kv_engine15range_tombstoneNtB4_17RangeTombstoneSetNtNtCslfAf2Mv2Tp5_4core7default7Default7default
FN:849,_RNvNtNtCs9G0t2qE8rAk_9kv_engine15range_tombstone5tests2ts
FN:858,_RNvNtNtCs9G0t2qE8rAk_9kv_engine15range_tombstone5testss_14test_empty_set
FN:1210,_RNvNtNtCs9G0t2qE8rAk_9kv_engine15range_tombstone5testss_19test_iterator_empty
FN:928,_RNvNtNtCs9G0t2qE8rAk_9kv_engine15range_tombstone5testss_19test_overlaps_check
FN:1085,_RNvNtNtCs9G0t2qE8rAk_9kv_engine15range_tombstone5testss_20test_fragment_nested
FN:958,_RNvNtNtCs9G0t2qE8rAk_9kv_engine15range_tombstone5testss_21test_approximate_size
FN:941,_RNvNtNtCs9G0t2qE8rAk_9kv_engine15range_tombstone5testss_21test_iter_overlapping
FN:1000,_RNvNtNtCs9G0t2qE8rAk_9kv_engine15range_tombstone5testss_22test_boundary_equality
FN:1071,_RNvNtNtCs9G0t2qE8rAk_9kv_engine15range_tombstone5testss_22test_fragment_coalesce
FN:914,_RNvNtNtCs9G0t2qE8rAk_9kv_engine15range_tombstone5testss_23test_overlapping_ranges
FN:886,_RNvNtNtCs9G0t2qE8rAk_9kv_engine15range_tombstone5testss_23test_read_ts_visibility
FN:868,_RNvNtNtCs9G0t2qE8rAk_9kv_engine15range_tombstone5testss_25test_add_and_basic_lookup
FN:1015,_RNvNtNtCs9G0t2qE8rAk_9kv_engine15range_tombstone5testss_25test_fragment_empty_input
FN:1050,_RNvNtNtCs9G0t2qE8rAk_9kv_engine15range_tombstone5testss_25test_fragment_overlapping
FN:1137,_RNvNtNtCs9G0t2qE8rAk_9kv_engine15range_tombstone5testss_25test_merge_fragment_lists
FN:1357,_RNvNtNtCs9G0t2qE8rAk_9kv_engine15range_tombstone5testss_27test_decode_block_truncated
FN:1185,_RNvNtNtCs9G0t2qE8rAk_9kv_engine15range_tombstone5testss_27test_merge_coalesce_same_ts
FN:1034,_RNvNtNtCs9G0t2qE8rAk_9kv_engine15range_tombstone5testss_29test_fragment_non_overlapping
FN:1342,_RNvNtNtCs9G0t2qE8rAk_9kv_engine15range_tombstone5testss_30test_decode_block_crc_mismatch
FN:1333,_RNvNtNtCs9G0t2qE8rAk_9kv_engine15range_tombstone5testss_30test_encode_decode_empty_block
FN:1022,_RNvNtNtCs9G0t2qE8rAk_9kv_engine15range_tombstone5testss_30test_fragment_single_tombstone
FN:1244,_RNvNtNtCs9G0t2qE8rAk_9kv_engine15range_tombstone5testss_32test_iterator_read_ts_visibility
FN:1105,_RNvNtNtCs9G0t2qE8rAk_9kv_engine15range_tombstone5testss_33test_fragment_overlapping_same_ts
FN:1216,_RNvNtNtCs9G0t2qE8rAk_9kv_engine15range_tombstone5testss_33test_iterator_basic_lookup_sorted
FN:967,_RNvNtNtCs9G0t2qE8rAk_9kv_engine15range_tombstone5testss_33test_range_tombstone_key_ordering
FN:1313,_RNvNtNtCs9G0t2qE8rAk_9kv_engine15range_tombstone5testss_34test_encode_decode_block_roundtrip
FN:899,_RNvNtNtCs9G0t2qE8rAk_9kv_engine15range_tombstone5testss_36test_multiple_tombstones_newest_wins
FN:1279,_RNvNtNtCs9G0t2qE8rAk_9kv_engine15range_tombstone5testss_37test_iterator_key_after_all_fragments
FN:1158,_RNvNtNtCs9G0t2qE8rAk_9kv_engine15range_tombstone5testss_37test_merge_fragment_lists_overlapping
FN:1293,_RNvNtNtCs9G0t2qE8rAk_9kv_engine15range_tombstone5testss_38test_iterator_key_at_fragment_boundary
FN:1265,_RNvNtNtCs9G0t2qE8rAk_9kv_engine15range_tombstone5testss_38test_iterator_key_before_all_fragments
FN:1121,_RNvNtNtCs9G0t2qE8rAk_9kv_engine15range_tombstone5testss_53test_fragment_overlapping_same_ts_different_endpoints
FN:703,_RNCNCNvNtCs9G0t2qE8rAk_9kv_engine15range_tombstone18gc_range_fragments00B7_
FN:171,_RNCNvMNtCs9G0t2qE8rAk_9kv_engine15range_tombstoneNtB4_17RangeTombstoneSet16iter_overlapping0B6_
FN:836,_RNCNvMs1_NtCs9G0t2qE8rAk_9kv_engine15range_tombstoneNtB7_22RangeTombstoneIterator18newest_covering_ts0B9_
FN:791,_RNCNvMs1_NtCs9G0t2qE8rAk_9kv_engine15range_tombstoneNtB7_22RangeTombstoneIterator7seek_to0B9_
FN:523,_RNCNvNtCs9G0t2qE8rAk_9kv_engine15range_tombstone14fragment_range0B5_
FN:702,_RNCNvNtCs9G0t2qE8rAk_9kv_engine15range_tombstone18gc_range_fragments0B5_
FN:662,_RNCNvNtCs9G0t2qE8rAk_9kv_engine15range_tombstone18truncate_fragments0B5_
FN:550,_RNCNvNtCs9G0t2qE8rAk_9kv_engine15range_tombstone20merge_fragment_lists0B5_
FN:625,_RNCNvNtCs9G0t2qE8rAk_9kv_engine15range_tombstone20merge_fragment_listss_0B5_
FN:418,_RNCNvNtCs9G0t2qE8rAk_9kv_engine15range_tombstone23find_newest_covering_ts0B5_
FN:428,_RNCNvNtCs9G0t2qE8rAk_9kv_engine15range_tombstone23find_newest_covering_tss_0B5_
FN:703,_RNCNCNvNtCshcgQatfXnqn_9kv_engine15range_tombstone18gc_range_fragments00B7_
FN:171,_RNCNvMNtCshcgQatfXnqn_9kv_engine15range_tombstoneNtB4_17RangeTombstoneSet16iter_overlapping0B6_
FN:836,_RNCNvMs1_NtCshcgQatfXnqn_9kv_engine15range_tombstoneNtB7_22RangeTombstoneIterator18newest_covering_ts0B9_
FN:791,_RNCNvMs1_NtCshcgQatfXnqn_9kv_engine15range_tombstoneNtB7_22RangeTombstoneIterator7seek_to0B9_
FN:523,_RNCNvNtCshcgQatfXnqn_9kv_engine15range_tombstone14fragment_range0B5_
FN:702,_RNCNvNtCshcgQatfXnqn_9kv_engine15range_tombstone18gc_range_fragments0B5_
FN:662,_RNCNvNtCshcgQatfXnqn_9kv_engine15range_tombstone18truncate_fragments0B5_
FN:550,_RNCNvNtCshcgQatfXnqn_9kv_engine15range_tombstone20merge_fragment_lists0B5_
FN:625,_RNCNvNtCshcgQatfXnqn_9kv_engine15range_tombstone20merge_fragment_listss_0B5_
FN:418,_RNCNvNtCshcgQatfXnqn_9kv_engine15range_tombstone23find_newest_covering_ts0B5_
FN:428,_RNCNvNtCshcgQatfXnqn_9kv_engine15range_tombstone23find_newest_covering_tss_0B5_
FN:189,_RNvMNtCshcgQatfXnqn_9kv_engine15range_tombstoneNtB2_17RangeTombstoneSet16approximate_size
FN:253,_RNvMNtCshcgQatfXnqn_9kv_engine15range_tombstoneNtB2_17RangeTombstoneSet16cached_fragments
FN:154,_RNvMNtCshcgQatfXnqn_9kv_engine15range_tombstoneNtB2_17RangeTombstoneSet16iter_overlapping
FN:91,_RNvMNtCshcgQatfXnqn_9kv_engine15range_tombstoneNtB2_17RangeTombstoneSet18newest_covering_ts
FN:220,_RNvMNtCshcgQatfXnqn_9kv_engine15range_tombstoneNtB2_17RangeTombstoneSet19range_could_overlap
FN:69,_RNvMNtCshcgQatfXnqn_9kv_engine15range_tombstoneNtB2_17RangeTombstoneSet3add
FN:199,_RNvMNtCshcgQatfXnqn_9kv_engine15range_tombstoneNtB2_17RangeTombstoneSet3len
FN:57,_RNvMNtCshcgQatfXnqn_9kv_engine15range_tombstoneNtB2_17RangeTombstoneSet3new
FN:204,_RNvMNtCshcgQatfXnqn_9kv_engine15range_tombstoneNtB2_17RangeTombstoneSet3raw
FN:194,_RNvMNtCshcgQatfXnqn_9kv_engine15range_tombstoneNtB2_17RangeTombstoneSet8is_empty
FN:126,_RNvMNtCshcgQatfXnqn_9kv_engine15range_tombstoneNtB2_17RangeTombstoneSet8overlaps
FN:343,_RNvMs0_NtCshcgQatfXnqn_9kv_engine15range_tombstoneNtB5_22RangeTombstoneFragment12decode_block
FN:321,_RNvMs0_NtCshcgQatfXnqn_9kv_engine15range_tombstoneNtB5_22RangeTombstoneFragment12encode_block
FN:799,_RNvMs1_NtCshcgQatfXnqn_9kv_engine15range_tombstoneNtB5_22RangeTombstoneIterator18newest_covering_ts
FN:771,_RNvMs1_NtCshcgQatfXnqn_9kv_engine15range_tombstoneNtB5_22RangeTombstoneIterator3new
FN:785,_RNvMs1_NtCshcgQatfXnqn_9kv_engine15range_tombstoneNtB5_22RangeTombstoneIterator7seek_to
FN:441,_RNvNtCshcgQatfXnqn_9kv_engine15range_tombstone14fragment_range
FN:719,_RNvNtCshcgQatfXnqn_9kv_engine15range_tombstone18compute_gap_ranges
FN:698,_RNvNtCshcgQatfXnqn_9kv_engine15range_tombstone18gc_range_fragments
FN:651,_RNvNtCshcgQatfXnqn_9kv_engine15range_tombstone18truncate_fragments
FN:547,_RNvNtCshcgQatfXnqn_9kv_engine15range_tombstone20merge_fragment_lists
FN:409,_RNvNtCshcgQatfXnqn_9kv_engine15range_tombstone23find_newest_covering_ts
FN:284,_RNvXs_NtCshcgQatfXnqn_9kv_engine15range_tombstoneNtB4_17RangeTombstoneSetNtNtCslfAf2Mv2Tp5_4core7default7Default7default
FNDA:24636,_RNvMNtCs9G0t2qE8rAk_9kv_engine15range_tombstoneNtB2_17RangeTombstoneSet16approximate_size
FNDA:5858,_RNvMNtCs9G0t2qE8rAk_9kv_engine15range_tombstoneNtB2_17RangeTombstoneSet16cached_fragments
FNDA:6,_RNvMNtCs9G0t2qE8rAk_9kv_engine15range_tombstoneNtB2_17RangeTombstoneSet16iter_overlapping
FNDA:33,_RNvMNtCs9G0t2qE8rAk_9kv_engine15range_tombstoneNtB2_17RangeTombstoneSet18newest_covering_ts
FNDA:1,_RNvMNtCs9G0t2qE8rAk_9kv_engine15range_tombstoneNtB2_17RangeTombstoneSet19range_could_overlap
FNDA:98,_RNvMNtCs9G0t2qE8rAk_9kv_engine15range_tombstoneNtB2_17RangeTombstoneSet3add
FNDA:16,_RNvMNtCs9G0t2qE8rAk_9kv_engine15range_tombstoneNtB2_17RangeTombstoneSet3len
FNDA:863,_RNvMNtCs9G0t2qE8rAk_9kv_engine15range_tombstoneNtB2_17RangeTombstoneSet3new
FNDA:41,_RNvMNtCs9G0t2qE8rAk_9kv_engine15range_tombstoneNtB2_17RangeTombstoneSet3raw
FNDA:6235,_RNvMNtCs9G0t2qE8rAk_9kv_engine15range_tombstoneNtB2_17RangeTombstoneSet8is_empty
FNDA:24,_RNvMNtCs9G0t2qE8rAk_9kv_engine15range_tombstoneNtB2_17RangeTombstoneSet8overlaps
FNDA:6,_RNvMs0_NtCs9G0t2qE8rAk_9kv_engine15range_tombstoneNtB5_22RangeTombstoneFragment12decode_block
FNDA:21,_RNvMs0_NtCs9G0t2qE8rAk_9kv_engine15range_tombstoneNtB5_22RangeTombstoneFragment12encode_block
FNDA:33,_RNvMs1_NtCs9G0t2qE8rAk_9kv_engine15range_tombstoneNtB5_22RangeTombstoneIterator18newest_covering_ts
FNDA:12,_RNvMs1_NtCs9G0t2qE8rAk_9kv_engine15range_tombstoneNtB5_22RangeTombstoneIterator3new
FNDA:2,_RNvMs1_NtCs9G0t2qE8rAk_9kv_engine15range_tombstoneNtB5_22RangeTombstoneIterator7seek_to
FNDA:160,_RNvNtCs9G0t2qE8rAk_9kv_engine15range_tombstone14fragment_range
FNDA:4,_RNvNtCs9G0t2qE8rAk_9kv_engine15range_tombstone18compute_gap_ranges
FNDA:35,_RNvNtCs9G0t2qE8rAk_9kv_engine15range_tombstone18gc_range_fragments
FNDA:46,_RNvNtCs9G0t2qE8rAk_9kv_engine15range_tombstone18truncate_fragments
FNDA:14,_RNvNtCs9G0t2qE8rAk_9kv_engine15range_tombstone20merge_fragment_lists
FNDA:82,_RNvNtCs9G0t2qE8rAk_9kv_engine15range_tombstone23find_newest_covering_ts
FNDA:1,_RNvXs_NtCs9G0t2qE8rAk_9kv_engine15range_tombstoneNtB4_17RangeTombstoneSetNtNtCslfAf2Mv2Tp5_4core7default7Default7default
FNDA:27,_RNvNtNtCs9G0t2qE8rAk_9kv_engine15range_tombstone5tests2ts
FNDA:1,_RNvNtNtCs9G0t2qE8rAk_9kv_engine15range_tombstone5testss_14test_empty_set
FNDA:1,_RNvNtNtCs9G0t2qE8rAk_9kv_engine15range_tombstone5testss_19test_iterator_empty
FNDA:1,_RNvNtNtCs9G0t2qE8rAk_9kv_engine15range_tombstone5testss_19test_overlaps_check
FNDA:1,_RNvNtNtCs9G0t2qE8rAk_9kv_engine15range_tombstone5testss_20test_fragment_nested
FNDA:1,_RNvNtNtCs9G0t2qE8rAk_9kv_engine15range_tombstone5testss_21test_approximate_size
FNDA:1,_RNvNtNtCs9G0t2qE8rAk_9kv_engine15range_tombstone5testss_21test_iter_overlapping
FNDA:1,_RNvNtNtCs9G0t2qE8rAk_9kv_engine15range_tombstone5testss_22test_boundary_equality
FNDA:1,_RNvNtNtCs9G0t2qE8rAk_9kv_engine15range_tombstone5testss_22test_fragment_coalesce
FNDA:1,_RNvNtNtCs9G0t2qE8rAk_9kv_engine15range_tombstone5testss_23test_overlapping_ranges
FNDA:1,_RNvNtNtCs9G0t2qE8rAk_9kv_engine15range_tombstone5testss_23test_read_ts_visibility
FNDA:1,_RNvNtNtCs9G0t2qE8rAk_9kv_engine15range_tombstone5testss_25test_add_and_basic_lookup
FNDA:1,_RNvNtNtCs9G0t2qE8rAk_9kv_engine15range_tombstone5testss_25test_fragment_empty_input
FNDA:1,_RNvNtNtCs9G0t2qE8rAk_9kv_engine15range_tombstone5testss_25test_fragment_overlapping
FNDA:1,_RNvNtNtCs9G0t2qE8rAk_9kv_engine15range_tombstone5testss_25test_merge_fragment_lists
FNDA:1,_RNvNtNtCs9G0t2qE8rAk_9kv_engine15range_tombstone5testss_27test_decode_block_truncated
FNDA:1,_RNvNtNtCs9G0t2qE8rAk_9kv_engine15range_tombstone5testss_27test_merge_coalesce_same_ts
FNDA:1,_RNvNtNtCs9G0t2qE8rAk_9kv_engine15range_tombstone5testss_29test_fragment_non_overlapping
FNDA:1,_RNvNtNtCs9G0t2qE8rAk_9kv_engine15range_tombstone5testss_30test_decode_block_crc_mismatch
FNDA:1,_RNvNtNtCs9G0t2qE8rAk_9kv_engine15range_tombstone5testss_30test_encode_decode_empty_block
FNDA:1,_RNvNtNtCs9G0t2qE8rAk_9kv_engine15range_tombstone5testss_30test_fragment_single_tombstone
FNDA:1,_RNvNtNtCs9G0t2qE8rAk_9kv_engine15range_tombstone5testss_32test_iterator_read_ts_visibility
FNDA:1,_RNvNtNtCs9G0t2qE8rAk_9kv_engine15range_tombstone5testss_33test_fragment_overlapping_same_ts
FNDA:1,_RNvNtNtCs9G0t2qE8rAk_9kv_engine15range_tombstone5testss_33test_iterator_basic_lookup_sorted
FNDA:1,_RNvNtNtCs9G0t2qE8rAk_9kv_engine15range_tombstone5testss_33test_range_tombstone_key_ordering
FNDA:1,_RNvNtNtCs9G0t2qE8rAk_9kv_engine15range_tombstone5testss_34test_encode_decode_block_roundtrip
FNDA:1,_RNvNtNtCs9G0t2qE8rAk_9kv_engine15range_tombstone5testss_36test_multiple_tombstones_newest_wins
FNDA:1,_RNvNtNtCs9G0t2qE8rAk_9kv_engine15range_tombstone5testss_37test_iterator_key_after_all_fragments
FNDA:1,_RNvNtNtCs9G0t2qE8rAk_9kv_engine15range_tombstone5testss_37test_merge_fragment_lists_overlapping
FNDA:1,_RNvNtNtCs9G0t2qE8rAk_9kv_engine15range_tombstone5testss_38test_iterator_key_at_fragment_boundary
FNDA:1,_RNvNtNtCs9G0t2qE8rAk_9kv_engine15range_tombstone5testss_38test_iterator_key_before_all_fragments
FNDA:1,_RNvNtNtCs9G0t2qE8rAk_9kv_engine15range_tombstone5testss_53test_fragment_overlapping_same_ts_different_endpoints
FNDA:8,_RNCNCNvNtCs9G0t2qE8rAk_9kv_engine15range_tombstone18gc_range_fragments00B7_
FNDA:6,_RNCNvMNtCs9G0t2qE8rAk_9kv_engine15range_tombstoneNtB4_17RangeTombstoneSet16iter_overlapping0B6_
FNDA:31,_RNCNvMs1_NtCs9G0t2qE8rAk_9kv_engine15range_tombstoneNtB7_22RangeTombstoneIterator18newest_covering_ts0B9_
FNDA:2,_RNCNvMs1_NtCs9G0t2qE8rAk_9kv_engine15range_tombstoneNtB7_22RangeTombstoneIterator7seek_to0B9_
FNDA:7,_RNCNvNtCs9G0t2qE8rAk_9kv_engine15range_tombstone14fragment_range0B5_
FNDA:7,_RNCNvNtCs9G0t2qE8rAk_9kv_engine15range_tombstone18gc_range_fragments0B5_
FNDA:6,_RNCNvNtCs9G0t2qE8rAk_9kv_engine15range_tombstone18truncate_fragments0B5_
FNDA:10,_RNCNvNtCs9G0t2qE8rAk_9kv_engine15range_tombstone20merge_fragment_lists0B5_
FNDA:2,_RNCNvNtCs9G0t2qE8rAk_9kv_engine15range_tombstone20merge_fragment_listss_0B5_
FNDA:98,_RNCNvNtCs9G0t2qE8rAk_9kv_engine15range_tombstone23find_newest_covering_ts0B5_
FNDA:67,_RNCNvNtCs9G0t2qE8rAk_9kv_engine15range_tombstone23find_newest_covering_tss_0B5_
FNDA:0,_RNCNCNvNtCshcgQatfXnqn_9kv_engine15range_tombstone18gc_range_fragments00B7_
FNDA:0,_RNCNvMNtCshcgQatfXnqn_9kv_engine15range_tombstoneNtB4_17RangeTombstoneSet16iter_overlapping0B6_
FNDA:0,_RNCNvMs1_NtCshcgQatfXnqn_9kv_engine15range_tombstoneNtB7_22RangeTombstoneIterator18newest_covering_ts0B9_
FNDA:0,_RNCNvMs1_NtCshcgQatfXnqn_9kv_engine15range_tombstoneNtB7_22RangeTombstoneIterator7seek_to0B9_
FNDA:0,_RNCNvNtCshcgQatfXnqn_9kv_engine15range_tombstone14fragment_range0B5_
FNDA:0,_RNCNvNtCshcgQatfXnqn_9kv_engine15range_tombstone18gc_range_fragments0B5_
FNDA:0,_RNCNvNtCshcgQatfXnqn_9kv_engine15range_tombstone18truncate_fragments0B5_
FNDA:0,_RNCNvNtCshcgQatfXnqn_9kv_engine15range_tombstone20merge_fragment_lists0B5_
FNDA:0,_RNCNvNtCshcgQatfXnqn_9kv_engine15range_tombstone20merge_fragment_listss_0B5_
FNDA:0,_RNCNvNtCshcgQatfXnqn_9kv_engine15range_tombstone23find_newest_covering_ts0B5_
FNDA:0,_RNCNvNtCshcgQatfXnqn_9kv_engine15range_tombstone23find_newest_covering_tss_0B5_
FNDA:0,_RNvMNtCshcgQatfXnqn_9kv_engine15range_tombstoneNtB2_17RangeTombstoneSet16approximate_size
FNDA:0,_RNvMNtCshcgQatfXnqn_9kv_engine15range_tombstoneNtB2_17RangeTombstoneSet16cached_fragments
FNDA:0,_RNvMNtCshcgQatfXnqn_9kv_engine15range_tombstoneNtB2_17RangeTombstoneSet16iter_overlapping
FNDA:0,_RNvMNtCshcgQatfXnqn_9kv_engine15range_tombstoneNtB2_17RangeTombstoneSet18newest_covering_ts
FNDA:0,_RNvMNtCshcgQatfXnqn_9kv_engine15range_tombstoneNtB2_17RangeTombstoneSet19range_could_overlap
FNDA:0,_RNvMNtCshcgQatfXnqn_9kv_engine15range_tombstoneNtB2_17RangeTombstoneSet3add
FNDA:0,_RNvMNtCshcgQatfXnqn_9kv_engine15range_tombstoneNtB2_17RangeTombstoneSet3len
FNDA:0,_RNvMNtCshcgQatfXnqn_9kv_engine15range_tombstoneNtB2_17RangeTombstoneSet3new
FNDA:0,_RNvMNtCshcgQatfXnqn_9kv_engine15range_tombstoneNtB2_17RangeTombstoneSet3raw
FNDA:0,_RNvMNtCshcgQatfXnqn_9kv_engine15range_tombstoneNtB2_17RangeTombstoneSet8is_empty
FNDA:0,_RNvMNtCshcgQatfXnqn_9kv_engine15range_tombstoneNtB2_17RangeTombstoneSet8overlaps
FNDA:0,_RNvMs0_NtCshcgQatfXnqn_9kv_engine15range_tombstoneNtB5_22RangeTombstoneFragment12decode_block
FNDA:0,_RNvMs0_NtCshcgQatfXnqn_9kv_engine15range_tombstoneNtB5_22RangeTombstoneFragment12encode_block
FNDA:0,_RNvMs1_NtCshcgQatfXnqn_9kv_engine15range_tombstoneNtB5_22RangeTombstoneIterator18newest_covering_ts
FNDA:0,_RNvMs1_NtCshcgQatfXnqn_9kv_engine15range_tombstoneNtB5_22RangeTombstoneIterator3new
FNDA:0,_RNvMs1_NtCshcgQatfXnqn_9kv_engine15range_tombstoneNtB5_22RangeTombstoneIterator7seek_to
FNDA:0,_RNvNtCshcgQatfXnqn_9kv_engine15range_tombstone14fragment_range
FNDA:0,_RNvNtCshcgQatfXnqn_9kv_engine15range_tombstone18compute_gap_ranges
FNDA:0,_RNvNtCshcgQatfXnqn_9kv_engine15range_tombstone18gc_range_fragments
FNDA:0,_RNvNtCshcgQatfXnqn_9kv_engine15range_tombstone18truncate_fragments
FNDA:0,_RNvNtCshcgQatfXnqn_9kv_engine15range_tombstone20merge_fragment_lists
FNDA:0,_RNvNtCshcgQatfXnqn_9kv_engine15range_tombstone23find_newest_covering_ts
FNDA:0,_RNvXs_NtCshcgQatfXnqn_9kv_engine15range_tombstoneNtB4_17RangeTombstoneSetNtNtCslfAf2Mv2Tp5_4core7default7Default7default
FNF:66
FNH:66
DA:57,863
DA:58,863
DA:59,863
DA:60,863
DA:61,863
DA:62,863
DA:63,863
DA:64,863
DA:65,863
DA:69,98
DA:74,98
DA:75,98
DA:76,98
DA:77,98
DA:78,98
DA:79,98
